

Microchip MPLAB XC8 Assembler V2.46 build 20240104201356 
                                                                                               Mon Jun 03 19:11:47 2024

Microchip MPLAB XC8 C Compiler v2.46 (Free license) build 20240104201356 Og1 
     1                           	processor	16F877A
     2                           	pagewidth 120
     3                           	opt	flic
     4                           	psect	cinit,global,class=CODE,merge=1,delta=2
     5                           	psect	cstackCOMMON,global,class=COMMON,space=1,delta=1,noexec
     6                           	psect	cstackBANK0,global,class=BANK0,space=1,delta=1,noexec
     7                           	psect	maintext,global,class=CODE,split=1,delta=2
     8                           	psect	text1,local,class=CODE,merge=1,delta=2
     9                           	psect	text2,local,class=CODE,merge=1,delta=2
    10                           	psect	text3,local,class=CODE,merge=1,delta=2,group=1
    11                           	psect	text4,local,class=CODE,merge=1,delta=2
    12                           	psect	text5,local,class=CODE,merge=1,delta=2
    13                           	psect	text6,local,class=CODE,merge=1,delta=2
    14                           	psect	text7,local,class=CODE,merge=1,delta=2
    15                           	psect	text8,local,class=CODE,merge=1,delta=2
    16                           	psect	text9,local,class=CODE,merge=1,delta=2
    17                           	psect	text10,local,class=CODE,merge=1,delta=2
    18                           	psect	text11,local,class=CODE,merge=1,delta=2
    19                           	psect	text12,local,class=CODE,merge=1,delta=2
    20                           	psect	config,global,abs,ovrld,class=CONFIG,space=4,delta=2,noexec
    21                           	dabs	1,0x7E,2
    22     0000                     
    23                           ; Generated 12/10/2023 GMT
    24                           ; 
    25                           ; Copyright © 2023, Microchip Technology Inc. and its subsidiaries ("Microchip")
    26                           ; All rights reserved.
    27                           ; 
    28                           ; This software is developed by Microchip Technology Inc. and its subsidiaries ("Microch
      +                          ip").
    29                           ; 
    30                           ; Redistribution and use in source and binary forms, with or without modification, are
    31                           ; permitted provided that the following conditions are met:
    32                           ; 
    33                           ;     1. Redistributions of source code must retain the above copyright notice, this lis
      +                          t of
    34                           ;        conditions and the following disclaimer.
    35                           ; 
    36                           ;     2. Redistributions in binary form must reproduce the above copyright notice, this 
      +                          list
    37                           ;        of conditions and the following disclaimer in the documentation and/or other
    38                           ;        materials provided with the distribution. Publication is not required when
    39                           ;        this file is used in an embedded application.
    40                           ; 
    41                           ;     3. Microchip's name may not be used to endorse or promote products derived from th
      +                          is
    42                           ;        software without specific prior written permission.
    43                           ; 
    44                           ; THIS SOFTWARE IS PROVIDED BY MICROCHIP "AS IS" AND ANY EXPRESS OR IMPLIED WARRANTIES,
    45                           ; INCLUDING, BUT NOT LIMITED TO, THE IMPLIED WARRANTIES OF MERCHANTABILITY AND FITNESS F
      +                          OR
    46                           ; PURPOSE ARE DISCLAIMED.  IN NO EVENT SHALL MICROCHIP BE LIABLE FOR ANY DIRECT, INDIREC
      +                          T,
    47                           ; INCIDENTAL, SPECIAL, EXEMPLARY, OR CONSEQUENTIAL DAMAGES (INCLUDING BUT NOT LIMITED TO
    48                           ; PROCUREMENT OF SUBSTITUTE GOODS OR SERVICES; LOSS OF USE, DATA OR PROFITS; OR BUSINESS
    49                           ; INTERRUPTION) HOWSOEVER CAUSED AND ON ANY THEORY OF LIABILITY, WHETHER IN CONTRACT, ST
      +                          RICT
    50                           ; LIABILITY, OR TORT (INCLUDING NEGLIGENCE OR OTHERWISE) ARISING IN ANY WAY OUT OF THE U
      +                          SE OF
    51                           ; THIS SOFTWARE, EVEN IF ADVISED OF THE POSSIBILITY OF SUCH DAMAGE.
    52                           ; 
    53                           ; 
    54                           ; Code-generator required, PIC16F877A Definitions
    55                           ; 
    56                           ; SFR Addresses
    57     0000                     	;# 
    58     0001                     	;# 
    59     0002                     	;# 
    60     0003                     	;# 
    61     0004                     	;# 
    62     0005                     	;# 
    63     0006                     	;# 
    64     0007                     	;# 
    65     0008                     	;# 
    66     0009                     	;# 
    67     000A                     	;# 
    68     000B                     	;# 
    69     000C                     	;# 
    70     000D                     	;# 
    71     000E                     	;# 
    72     000E                     	;# 
    73     000F                     	;# 
    74     0010                     	;# 
    75     0011                     	;# 
    76     0012                     	;# 
    77     0013                     	;# 
    78     0014                     	;# 
    79     0015                     	;# 
    80     0015                     	;# 
    81     0016                     	;# 
    82     0017                     	;# 
    83     0018                     	;# 
    84     0019                     	;# 
    85     001A                     	;# 
    86     001B                     	;# 
    87     001B                     	;# 
    88     001C                     	;# 
    89     001D                     	;# 
    90     001E                     	;# 
    91     001F                     	;# 
    92     0081                     	;# 
    93     0085                     	;# 
    94     0086                     	;# 
    95     0087                     	;# 
    96     0088                     	;# 
    97     0089                     	;# 
    98     008C                     	;# 
    99     008D                     	;# 
   100     008E                     	;# 
   101     0091                     	;# 
   102     0092                     	;# 
   103     0093                     	;# 
   104     0094                     	;# 
   105     0098                     	;# 
   106     0099                     	;# 
   107     009C                     	;# 
   108     009D                     	;# 
   109     009E                     	;# 
   110     009F                     	;# 
   111     010C                     	;# 
   112     010D                     	;# 
   113     010E                     	;# 
   114     010F                     	;# 
   115     018C                     	;# 
   116     018D                     	;# 
   117     0000                     	;# 
   118     0001                     	;# 
   119     0002                     	;# 
   120     0003                     	;# 
   121     0004                     	;# 
   122     0005                     	;# 
   123     0006                     	;# 
   124     0007                     	;# 
   125     0008                     	;# 
   126     0009                     	;# 
   127     000A                     	;# 
   128     000B                     	;# 
   129     000C                     	;# 
   130     000D                     	;# 
   131     000E                     	;# 
   132     000E                     	;# 
   133     000F                     	;# 
   134     0010                     	;# 
   135     0011                     	;# 
   136     0012                     	;# 
   137     0013                     	;# 
   138     0014                     	;# 
   139     0015                     	;# 
   140     0015                     	;# 
   141     0016                     	;# 
   142     0017                     	;# 
   143     0018                     	;# 
   144     0019                     	;# 
   145     001A                     	;# 
   146     001B                     	;# 
   147     001B                     	;# 
   148     001C                     	;# 
   149     001D                     	;# 
   150     001E                     	;# 
   151     001F                     	;# 
   152     0081                     	;# 
   153     0085                     	;# 
   154     0086                     	;# 
   155     0087                     	;# 
   156     0088                     	;# 
   157     0089                     	;# 
   158     008C                     	;# 
   159     008D                     	;# 
   160     008E                     	;# 
   161     0091                     	;# 
   162     0092                     	;# 
   163     0093                     	;# 
   164     0094                     	;# 
   165     0098                     	;# 
   166     0099                     	;# 
   167     009C                     	;# 
   168     009D                     	;# 
   169     009E                     	;# 
   170     009F                     	;# 
   171     010C                     	;# 
   172     010D                     	;# 
   173     010E                     	;# 
   174     010F                     	;# 
   175     018C                     	;# 
   176     018D                     	;# 
   177     0000                     	;# 
   178     0001                     	;# 
   179     0002                     	;# 
   180     0003                     	;# 
   181     0004                     	;# 
   182     0005                     	;# 
   183     0006                     	;# 
   184     0007                     	;# 
   185     0008                     	;# 
   186     0009                     	;# 
   187     000A                     	;# 
   188     000B                     	;# 
   189     000C                     	;# 
   190     000D                     	;# 
   191     000E                     	;# 
   192     000E                     	;# 
   193     000F                     	;# 
   194     0010                     	;# 
   195     0011                     	;# 
   196     0012                     	;# 
   197     0013                     	;# 
   198     0014                     	;# 
   199     0015                     	;# 
   200     0015                     	;# 
   201     0016                     	;# 
   202     0017                     	;# 
   203     0018                     	;# 
   204     0019                     	;# 
   205     001A                     	;# 
   206     001B                     	;# 
   207     001B                     	;# 
   208     001C                     	;# 
   209     001D                     	;# 
   210     001E                     	;# 
   211     001F                     	;# 
   212     0081                     	;# 
   213     0085                     	;# 
   214     0086                     	;# 
   215     0087                     	;# 
   216     0088                     	;# 
   217     0089                     	;# 
   218     008C                     	;# 
   219     008D                     	;# 
   220     008E                     	;# 
   221     0091                     	;# 
   222     0092                     	;# 
   223     0093                     	;# 
   224     0094                     	;# 
   225     0098                     	;# 
   226     0099                     	;# 
   227     009C                     	;# 
   228     009D                     	;# 
   229     009E                     	;# 
   230     009F                     	;# 
   231     010C                     	;# 
   232     010D                     	;# 
   233     010E                     	;# 
   234     010F                     	;# 
   235     018C                     	;# 
   236     018D                     	;# 
   237     0000                     	;# 
   238     0001                     	;# 
   239     0002                     	;# 
   240     0003                     	;# 
   241     0004                     	;# 
   242     0005                     	;# 
   243     0006                     	;# 
   244     0007                     	;# 
   245     0008                     	;# 
   246     0009                     	;# 
   247     000A                     	;# 
   248     000B                     	;# 
   249     000C                     	;# 
   250     000D                     	;# 
   251     000E                     	;# 
   252     000E                     	;# 
   253     000F                     	;# 
   254     0010                     	;# 
   255     0011                     	;# 
   256     0012                     	;# 
   257     0013                     	;# 
   258     0014                     	;# 
   259     0015                     	;# 
   260     0015                     	;# 
   261     0016                     	;# 
   262     0017                     	;# 
   263     0018                     	;# 
   264     0019                     	;# 
   265     001A                     	;# 
   266     001B                     	;# 
   267     001B                     	;# 
   268     001C                     	;# 
   269     001D                     	;# 
   270     001E                     	;# 
   271     001F                     	;# 
   272     0081                     	;# 
   273     0085                     	;# 
   274     0086                     	;# 
   275     0087                     	;# 
   276     0088                     	;# 
   277     0089                     	;# 
   278     008C                     	;# 
   279     008D                     	;# 
   280     008E                     	;# 
   281     0091                     	;# 
   282     0092                     	;# 
   283     0093                     	;# 
   284     0094                     	;# 
   285     0098                     	;# 
   286     0099                     	;# 
   287     009C                     	;# 
   288     009D                     	;# 
   289     009E                     	;# 
   290     009F                     	;# 
   291     010C                     	;# 
   292     010D                     	;# 
   293     010E                     	;# 
   294     010F                     	;# 
   295     018C                     	;# 
   296     018D                     	;# 
   297     0013                     _SSPBUF	set	19
   298     0014                     _SSPCON	set	20
   299     0008                     _PORTD	set	8
   300     0063                     _SSPIF	set	99
   301     0094                     _SSPSTAT	set	148
   302     0091                     _SSPCON2	set	145
   303     0093                     _SSPADD	set	147
   304     0087                     _TRISC	set	135
   305     0088                     _TRISD	set	136
   306     048B                     _RCEN	set	1163
   307     048E                     _ACKSTAT	set	1166
   308     048C                     _ACKEN	set	1164
   309     048D                     _ACKDT	set	1165
   310     0489                     _RSEN	set	1161
   311     048A                     _PEN	set	1162
   312     0488                     _SEN	set	1160
   313                           
   314                           	psect	cinit
   315     07FC                     start_initialization:	
   316                           ; #config settings
   317                           
   318     07FC                     __initialization:
   319     07FC                     end_of_initialization:	
   320                           ;End of C runtime variable initialization code
   321                           
   322     07FC                     __end_of__initialization:
   323     07FC  0183               	clrf	3
   324     07FD  120A  118A  2F21   	ljmp	_main	;jump to C main() function
   325                           
   326                           	psect	cstackCOMMON
   327     0070                     __pcstackCOMMON:
   328     0070                     ?_I2C_Master_Start:
   329     0070                     ??_I2C_Master_Start:	
   330                           ; 1 bytes @ 0x0
   331                           
   332     0070                     ?_I2C_Master_Repeated_Start:	
   333                           ; 1 bytes @ 0x0
   334                           
   335     0070                     ??_I2C_Master_Repeated_Start:	
   336                           ; 1 bytes @ 0x0
   337                           
   338     0070                     ?_I2C_Master_Write:	
   339                           ; 1 bytes @ 0x0
   340                           
   341     0070                     ??_I2C_Master_Write:	
   342                           ; 1 bytes @ 0x0
   343                           
   344     0070                     ?_I2C_Master_Stop:	
   345                           ; 1 bytes @ 0x0
   346                           
   347     0070                     ??_I2C_Master_Stop:	
   348                           ; 1 bytes @ 0x0
   349                           
   350     0070                     ?_I2C_Read_Byte:	
   351                           ; 1 bytes @ 0x0
   352                           
   353     0070                     ??_I2C_Read_Byte:	
   354                           ; 1 bytes @ 0x0
   355                           
   356     0070                     ?_I2C_NACK:	
   357                           ; 1 bytes @ 0x0
   358                           
   359     0070                     ??_I2C_NACK:	
   360                           ; 1 bytes @ 0x0
   361                           
   362     0070                     ?_port_init:	
   363                           ; 1 bytes @ 0x0
   364                           
   365     0070                     ??_port_init:	
   366                           ; 1 bytes @ 0x0
   367                           
   368     0070                     ?_main:	
   369                           ; 1 bytes @ 0x0
   370                           
   371     0070                     ?_I2C_Master_Wait:	
   372                           ; 1 bytes @ 0x0
   373                           
   374     0070                     ??_I2C_Master_Wait:	
   375                           ; 1 bytes @ 0x0
   376                           
   377     0070                     ?___lldiv:	
   378                           ; 1 bytes @ 0x0
   379                           
   380     0070                     I2C_Master_Write@data:	
   381                           ; 4 bytes @ 0x0
   382                           
   383     0070                     ___lldiv@divisor:	
   384                           ; 1 bytes @ 0x0
   385                           
   386                           
   387                           ; 4 bytes @ 0x0
   388     0070                     	ds	1
   389     0071                     ?_EEPROM_Write:
   390     0071                     ?_EEPROM_Byte_Read:	
   391                           ; 1 bytes @ 0x1
   392                           
   393     0071                     EEPROM_Write@add:	
   394                           ; 1 bytes @ 0x1
   395                           
   396     0071                     EEPROM_Byte_Read@add:	
   397                           ; 2 bytes @ 0x1
   398                           
   399                           
   400                           ; 2 bytes @ 0x1
   401     0071                     	ds	2
   402     0073                     ??_EEPROM_Byte_Read:
   403     0073                     EEPROM_Write@data:	
   404                           ; 1 bytes @ 0x3
   405                           
   406     0073                     EEPROM_Byte_Read@Data:	
   407                           ; 1 bytes @ 0x3
   408                           
   409                           
   410                           ; 1 bytes @ 0x3
   411     0073                     	ds	1
   412     0074                     ??_EEPROM_Write:
   413     0074                     ___lldiv@dividend:	
   414                           ; 1 bytes @ 0x4
   415                           
   416                           
   417                           ; 4 bytes @ 0x4
   418     0074                     	ds	4
   419     0078                     ??___lldiv:
   420                           
   421                           ; 1 bytes @ 0x8
   422     0078                     	ds	1
   423     0079                     ___lldiv@quotient:
   424                           
   425                           ; 4 bytes @ 0x9
   426     0079                     	ds	4
   427     007D                     ___lldiv@counter:
   428                           
   429                           ; 1 bytes @ 0xD
   430     007D                     	ds	1
   431                           
   432                           	psect	cstackBANK0
   433     0020                     __pcstackBANK0:
   434     0020                     ?_I2C_Master_Init:
   435     0020                     I2C_Master_Init@BaudRate:	
   436                           ; 1 bytes @ 0x0
   437                           
   438                           
   439                           ; 4 bytes @ 0x0
   440     0020                     	ds	4
   441     0024                     ??_I2C_Master_Init:
   442                           
   443                           ; 1 bytes @ 0x4
   444     0024                     	ds	4
   445     0028                     ??_main:
   446                           
   447                           ; 1 bytes @ 0x8
   448     0028                     	ds	3
   449     002B                     main@data:
   450                           
   451                           ; 1 bytes @ 0xB
   452     002B                     	ds	1
   453     002C                     main@Address:
   454                           
   455                           ; 2 bytes @ 0xC
   456     002C                     	ds	2
   457                           
   458                           	psect	maintext
   459     0721                     __pmaintext:	
   460 ;;
   461 ;;Main: autosize = 0, tempsize = 3, incstack = 0, save=0
   462 ;;
   463 ;; *************** function _main *****************
   464 ;; Defined at:
   465 ;;		line 24 in file "main.c"
   466 ;; Parameters:    Size  Location     Type
   467 ;;		None
   468 ;; Auto vars:     Size  Location     Type
   469 ;;  Address         2   12[BANK0 ] unsigned int 
   470 ;;  data            1   11[BANK0 ] unsigned char 
   471 ;; Return value:  Size  Location     Type
   472 ;;                  1    wreg      void 
   473 ;; Registers used:
   474 ;;		wreg, status,2, status,0, btemp+1, pclath, cstack
   475 ;; Tracked objects:
   476 ;;		On entry : B00/0
   477 ;;		On exit  : 0/0
   478 ;;		Unchanged: 0/0
   479 ;; Data sizes:     COMMON   BANK0   BANK1   BANK3   BANK2
   480 ;;      Params:         0       0       0       0       0
   481 ;;      Locals:         0       3       0       0       0
   482 ;;      Temps:          0       3       0       0       0
   483 ;;      Totals:         0       6       0       0       0
   484 ;;Total ram usage:        6 bytes
   485 ;; Hardware stack levels required when called: 3
   486 ;; This function calls:
   487 ;;		_EEPROM_Byte_Read
   488 ;;		_EEPROM_Write
   489 ;;		_I2C_Master_Init
   490 ;;		_port_init
   491 ;; This function is called by:
   492 ;;		Startup code after reset
   493 ;; This function uses a non-reentrant model
   494 ;;
   495                           
   496     0721                     _main:	
   497                           ;psect for function _main
   498                           
   499     0721                     l949:	
   500                           ;incstack = 0
   501                           ; Regs used in _main: [wreg+status,2+status,0+btemp+1+pclath+cstack]
   502                           
   503                           
   504                           ;main.c: 25:     port_init();
   505     0721  120A  118A  25AD  120A  118A  	fcall	_port_init
   506     0726                     l951:
   507                           
   508                           ;main.c: 26:     I2C_Master_Init(100000);
   509     0726  3000               	movlw	0
   510     0727  1283               	bcf	3,5	;RP0=0, select bank0
   511     0728  1303               	bcf	3,6	;RP1=0, select bank0
   512     0729  00A3               	movwf	I2C_Master_Init@BaudRate+3
   513     072A  3001               	movlw	1
   514     072B  00A2               	movwf	I2C_Master_Init@BaudRate+2
   515     072C  3086               	movlw	134
   516     072D  00A1               	movwf	I2C_Master_Init@BaudRate+1
   517     072E  30A0               	movlw	160
   518     072F  00A0               	movwf	I2C_Master_Init@BaudRate
   519     0730  120A  118A  2640  120A  118A  	fcall	_I2C_Master_Init
   520     0735                     l953:
   521                           
   522                           ;main.c: 29:     unsigned int Address=0x0022;
   523     0735  3022               	movlw	34
   524     0736  1283               	bcf	3,5	;RP0=0, select bank0
   525     0737  1303               	bcf	3,6	;RP1=0, select bank0
   526     0738  00AC               	movwf	main@Address
   527     0739  3000               	movlw	0
   528     073A  00AD               	movwf	main@Address+1
   529     073B                     l955:
   530                           
   531                           ;main.c: 30:     unsigned char data=0x01;
   532     073B  01AB               	clrf	main@data
   533     073C  0AAB               	incf	main@data,f
   534     073D                     l957:
   535                           
   536                           ;main.c: 32:     EEPROM_Write(Address,data);
   537     073D  3022               	movlw	34
   538     073E  00F1               	movwf	EEPROM_Write@add
   539     073F  3000               	movlw	0
   540     0740  00F2               	movwf	EEPROM_Write@add+1
   541     0741  01F3               	clrf	EEPROM_Write@data
   542     0742  0AF3               	incf	EEPROM_Write@data,f
   543     0743  120A  118A  2612  120A  118A  	fcall	_EEPROM_Write
   544     0748                     l959:
   545                           
   546                           ;main.c: 33:     _delay((unsigned long)((10)*(4000000/4000.0)));
   547     0748  300D               	movlw	13
   548     0749  1283               	bcf	3,5	;RP0=0, select bank0
   549     074A  1303               	bcf	3,6	;RP1=0, select bank0
   550     074B  00A9               	movwf	??_main+1
   551     074C  30FB               	movlw	251
   552     074D  00A8               	movwf	??_main
   553     074E                     u397:
   554     074E  0BA8               	decfsz	??_main,f
   555     074F  2F4E               	goto	u397
   556     0750  0BA9               	decfsz	??_main+1,f
   557     0751  2F4E               	goto	u397
   558     0752                     l961:
   559                           
   560                           ;main.c: 34:     EEPROM_Write(++Address,++data);
   561     0752  3001               	movlw	1
   562     0753  1283               	bcf	3,5	;RP0=0, select bank0
   563     0754  1303               	bcf	3,6	;RP1=0, select bank0
   564     0755  07AC               	addwf	main@Address,f
   565     0756  1803               	skipnc
   566     0757  0AAD               	incf	main@Address+1,f
   567     0758  3000               	movlw	0
   568     0759  07AD               	addwf	main@Address+1,f
   569     075A  082D               	movf	main@Address+1,w
   570     075B  00F2               	movwf	EEPROM_Write@add+1
   571     075C  082C               	movf	main@Address,w
   572     075D  00F1               	movwf	EEPROM_Write@add
   573     075E  3001               	movlw	1
   574     075F  00FF               	movwf	btemp+1
   575     0760  087F               	movf	btemp+1,w
   576     0761  07AB               	addwf	main@data,f
   577     0762  082B               	movf	main@data,w
   578     0763  00F3               	movwf	EEPROM_Write@data
   579     0764  120A  118A  2612  120A  118A  	fcall	_EEPROM_Write
   580                           
   581                           ;main.c: 35:     _delay((unsigned long)((10)*(4000000/4000.0)));
   582     0769  300D               	movlw	13
   583     076A  1283               	bcf	3,5	;RP0=0, select bank0
   584     076B  1303               	bcf	3,6	;RP1=0, select bank0
   585     076C  00A9               	movwf	??_main+1
   586     076D  30FB               	movlw	251
   587     076E  00A8               	movwf	??_main
   588     076F                     u407:
   589     076F  0BA8               	decfsz	??_main,f
   590     0770  2F6F               	goto	u407
   591     0771  0BA9               	decfsz	??_main+1,f
   592     0772  2F6F               	goto	u407
   593     0773                     l963:
   594                           
   595                           ;main.c: 36:     EEPROM_Write(++Address,++data);
   596     0773  3001               	movlw	1
   597     0774  1283               	bcf	3,5	;RP0=0, select bank0
   598     0775  1303               	bcf	3,6	;RP1=0, select bank0
   599     0776  07AC               	addwf	main@Address,f
   600     0777  1803               	skipnc
   601     0778  0AAD               	incf	main@Address+1,f
   602     0779  3000               	movlw	0
   603     077A  07AD               	addwf	main@Address+1,f
   604     077B  082D               	movf	main@Address+1,w
   605     077C  00F2               	movwf	EEPROM_Write@add+1
   606     077D  082C               	movf	main@Address,w
   607     077E  00F1               	movwf	EEPROM_Write@add
   608     077F  3001               	movlw	1
   609     0780  00FF               	movwf	btemp+1
   610     0781  087F               	movf	btemp+1,w
   611     0782  07AB               	addwf	main@data,f
   612     0783  082B               	movf	main@data,w
   613     0784  00F3               	movwf	EEPROM_Write@data
   614     0785  120A  118A  2612  120A  118A  	fcall	_EEPROM_Write
   615     078A                     l965:
   616                           
   617                           ;main.c: 37:     _delay((unsigned long)((10)*(4000000/4000.0)));
   618     078A  300D               	movlw	13
   619     078B  1283               	bcf	3,5	;RP0=0, select bank0
   620     078C  1303               	bcf	3,6	;RP1=0, select bank0
   621     078D  00A9               	movwf	??_main+1
   622     078E  30FB               	movlw	251
   623     078F  00A8               	movwf	??_main
   624     0790                     u417:
   625     0790  0BA8               	decfsz	??_main,f
   626     0791  2F90               	goto	u417
   627     0792  0BA9               	decfsz	??_main+1,f
   628     0793  2F90               	goto	u417
   629     0794                     l967:
   630                           
   631                           ;main.c: 39:     Address=0x0022;
   632     0794  3022               	movlw	34
   633     0795  1283               	bcf	3,5	;RP0=0, select bank0
   634     0796  1303               	bcf	3,6	;RP1=0, select bank0
   635     0797  00AC               	movwf	main@Address
   636     0798  3000               	movlw	0
   637     0799  00AD               	movwf	main@Address+1
   638     079A                     l969:
   639                           
   640                           ;main.c: 40:     PORTD=EEPROM_Byte_Read(Address);
   641     079A  3022               	movlw	34
   642     079B  00F1               	movwf	EEPROM_Byte_Read@add
   643     079C  3000               	movlw	0
   644     079D  00F2               	movwf	EEPROM_Byte_Read@add+1
   645     079E  120A  118A  267C  120A  118A  	fcall	_EEPROM_Byte_Read
   646     07A3  1283               	bcf	3,5	;RP0=0, select bank0
   647     07A4  1303               	bcf	3,6	;RP1=0, select bank0
   648     07A5  0088               	movwf	8	;volatile
   649     07A6                     l971:
   650                           
   651                           ;main.c: 41:     _delay((unsigned long)((1000)*(4000000/4000.0)));
   652     07A6  3006               	movlw	6
   653     07A7  1283               	bcf	3,5	;RP0=0, select bank0
   654     07A8  1303               	bcf	3,6	;RP1=0, select bank0
   655     07A9  00AA               	movwf	??_main+2
   656     07AA  3013               	movlw	19
   657     07AB  00A9               	movwf	??_main+1
   658     07AC  30AD               	movlw	173
   659     07AD  00A8               	movwf	??_main
   660     07AE                     u427:
   661     07AE  0BA8               	decfsz	??_main,f
   662     07AF  2FAE               	goto	u427
   663     07B0  0BA9               	decfsz	??_main+1,f
   664     07B1  2FAE               	goto	u427
   665     07B2  0BAA               	decfsz	??_main+2,f
   666     07B3  2FAE               	goto	u427
   667     07B4                     l973:
   668                           
   669                           ;main.c: 42:     PORTD=EEPROM_Byte_Read(++Address);
   670     07B4  3001               	movlw	1
   671     07B5  1283               	bcf	3,5	;RP0=0, select bank0
   672     07B6  1303               	bcf	3,6	;RP1=0, select bank0
   673     07B7  07AC               	addwf	main@Address,f
   674     07B8  1803               	skipnc
   675     07B9  0AAD               	incf	main@Address+1,f
   676     07BA  3000               	movlw	0
   677     07BB  07AD               	addwf	main@Address+1,f
   678     07BC  082D               	movf	main@Address+1,w
   679     07BD  00F2               	movwf	EEPROM_Byte_Read@add+1
   680     07BE  082C               	movf	main@Address,w
   681     07BF  00F1               	movwf	EEPROM_Byte_Read@add
   682     07C0  120A  118A  267C  120A  118A  	fcall	_EEPROM_Byte_Read
   683     07C5  1283               	bcf	3,5	;RP0=0, select bank0
   684     07C6  1303               	bcf	3,6	;RP1=0, select bank0
   685     07C7  0088               	movwf	8	;volatile
   686     07C8                     l975:
   687                           
   688                           ;main.c: 43:     _delay((unsigned long)((1000)*(4000000/4000.0)));
   689     07C8  3006               	movlw	6
   690     07C9  1283               	bcf	3,5	;RP0=0, select bank0
   691     07CA  1303               	bcf	3,6	;RP1=0, select bank0
   692     07CB  00AA               	movwf	??_main+2
   693     07CC  3013               	movlw	19
   694     07CD  00A9               	movwf	??_main+1
   695     07CE  30AD               	movlw	173
   696     07CF  00A8               	movwf	??_main
   697     07D0                     u437:
   698     07D0  0BA8               	decfsz	??_main,f
   699     07D1  2FD0               	goto	u437
   700     07D2  0BA9               	decfsz	??_main+1,f
   701     07D3  2FD0               	goto	u437
   702     07D4  0BAA               	decfsz	??_main+2,f
   703     07D5  2FD0               	goto	u437
   704     07D6                     l977:
   705                           
   706                           ;main.c: 44:     PORTD=EEPROM_Byte_Read(++Address);
   707     07D6  3001               	movlw	1
   708     07D7  1283               	bcf	3,5	;RP0=0, select bank0
   709     07D8  1303               	bcf	3,6	;RP1=0, select bank0
   710     07D9  07AC               	addwf	main@Address,f
   711     07DA  1803               	skipnc
   712     07DB  0AAD               	incf	main@Address+1,f
   713     07DC  3000               	movlw	0
   714     07DD  07AD               	addwf	main@Address+1,f
   715     07DE  082D               	movf	main@Address+1,w
   716     07DF  00F2               	movwf	EEPROM_Byte_Read@add+1
   717     07E0  082C               	movf	main@Address,w
   718     07E1  00F1               	movwf	EEPROM_Byte_Read@add
   719     07E2  120A  118A  267C  120A  118A  	fcall	_EEPROM_Byte_Read
   720     07E7  1283               	bcf	3,5	;RP0=0, select bank0
   721     07E8  1303               	bcf	3,6	;RP1=0, select bank0
   722     07E9  0088               	movwf	8	;volatile
   723     07EA                     l979:
   724                           
   725                           ;main.c: 45:     _delay((unsigned long)((1000)*(4000000/4000.0)));
   726     07EA  3006               	movlw	6
   727     07EB  1283               	bcf	3,5	;RP0=0, select bank0
   728     07EC  1303               	bcf	3,6	;RP1=0, select bank0
   729     07ED  00AA               	movwf	??_main+2
   730     07EE  3013               	movlw	19
   731     07EF  00A9               	movwf	??_main+1
   732     07F0  30AD               	movlw	173
   733     07F1  00A8               	movwf	??_main
   734     07F2                     u447:
   735     07F2  0BA8               	decfsz	??_main,f
   736     07F3  2FF2               	goto	u447
   737     07F4  0BA9               	decfsz	??_main+1,f
   738     07F5  2FF2               	goto	u447
   739     07F6  0BAA               	decfsz	??_main+2,f
   740     07F7  2FF2               	goto	u447
   741     07F8                     l20:	
   742                           ;main.c: 47:     while(1){
   743                           
   744     07F8                     l21:	
   745                           ;main.c: 49:     }
   746                           
   747     07F8  2FF8               	goto	l20
   748     07F9  120A  118A  2800   	ljmp	start
   749     07FC                     __end_of_main:
   750                           
   751                           	psect	text1
   752     05AD                     __ptext1:	
   753 ;; *************** function _port_init *****************
   754 ;; Defined at:
   755 ;;		line 18 in file "main.c"
   756 ;; Parameters:    Size  Location     Type
   757 ;;		None
   758 ;; Auto vars:     Size  Location     Type
   759 ;;		None
   760 ;; Return value:  Size  Location     Type
   761 ;;                  1    wreg      void 
   762 ;; Registers used:
   763 ;;		status,2
   764 ;; Tracked objects:
   765 ;;		On entry : 0/0
   766 ;;		On exit  : 0/0
   767 ;;		Unchanged: 0/0
   768 ;; Data sizes:     COMMON   BANK0   BANK1   BANK3   BANK2
   769 ;;      Params:         0       0       0       0       0
   770 ;;      Locals:         0       0       0       0       0
   771 ;;      Temps:          0       0       0       0       0
   772 ;;      Totals:         0       0       0       0       0
   773 ;;Total ram usage:        0 bytes
   774 ;; Hardware stack levels used: 1
   775 ;; This function calls:
   776 ;;		Nothing
   777 ;; This function is called by:
   778 ;;		_main
   779 ;; This function uses a non-reentrant model
   780 ;;
   781                           
   782     05AD                     _port_init:	
   783                           ;psect for function _port_init
   784                           
   785     05AD                     l921:	
   786                           ;incstack = 0
   787                           ; Regs used in _port_init: [status,2]
   788                           
   789                           
   790                           ;main.c: 19:     TRISD&=~0xFF;
   791     05AD  1683               	bsf	3,5	;RP0=1, select bank1
   792     05AE  1303               	bcf	3,6	;RP1=0, select bank1
   793     05AF  0188               	clrf	8	;volatile
   794                           
   795                           ;main.c: 20:     PORTD=0;
   796     05B0  1283               	bcf	3,5	;RP0=0, select bank0
   797     05B1  1303               	bcf	3,6	;RP1=0, select bank0
   798     05B2  0188               	clrf	8	;volatile
   799     05B3                     l15:
   800     05B3  0008               	return
   801     05B4                     __end_of_port_init:
   802                           
   803                           	psect	text2
   804     0640                     __ptext2:	
   805 ;; *************** function _I2C_Master_Init *****************
   806 ;; Defined at:
   807 ;;		line 4 in file "I2C_Master.c"
   808 ;; Parameters:    Size  Location     Type
   809 ;;  BaudRate        4    0[BANK0 ] unsigned long 
   810 ;; Auto vars:     Size  Location     Type
   811 ;;		None
   812 ;; Return value:  Size  Location     Type
   813 ;;                  1    wreg      void 
   814 ;; Registers used:
   815 ;;		wreg, status,2, status,0, btemp+1, pclath, cstack
   816 ;; Tracked objects:
   817 ;;		On entry : 0/0
   818 ;;		On exit  : 0/0
   819 ;;		Unchanged: 0/0
   820 ;; Data sizes:     COMMON   BANK0   BANK1   BANK3   BANK2
   821 ;;      Params:         0       4       0       0       0
   822 ;;      Locals:         0       0       0       0       0
   823 ;;      Temps:          0       4       0       0       0
   824 ;;      Totals:         0       8       0       0       0
   825 ;;Total ram usage:        8 bytes
   826 ;; Hardware stack levels used: 1
   827 ;; Hardware stack levels required when called: 1
   828 ;; This function calls:
   829 ;;		___lldiv
   830 ;; This function is called by:
   831 ;;		_main
   832 ;; This function uses a non-reentrant model
   833 ;;
   834                           
   835     0640                     _I2C_Master_Init:	
   836                           ;psect for function _I2C_Master_Init
   837                           
   838     0640                     l923:	
   839                           ;incstack = 0
   840                           ; Regs used in _I2C_Master_Init: [wreg+status,2+status,0+btemp+1+pclath+cstack]
   841                           
   842                           
   843                           ;I2C_Master.c: 5:     TRISC|=0x18;
   844     0640  3018               	movlw	24
   845     0641  00FF               	movwf	btemp+1
   846     0642  087F               	movf	btemp+1,w
   847     0643  1683               	bsf	3,5	;RP0=1, select bank1
   848     0644  1303               	bcf	3,6	;RP1=0, select bank1
   849     0645  0487               	iorwf	7,f	;volatile
   850     0646                     l925:
   851                           
   852                           ;I2C_Master.c: 6:     SSPADD=(4000000/(4*BaudRate))-1;
   853     0646  1283               	bcf	3,5	;RP0=0, select bank0
   854     0647  1303               	bcf	3,6	;RP1=0, select bank0
   855     0648  0820               	movf	I2C_Master_Init@BaudRate,w
   856     0649  00A4               	movwf	??_I2C_Master_Init
   857     064A  0821               	movf	I2C_Master_Init@BaudRate+1,w
   858     064B  00A5               	movwf	??_I2C_Master_Init+1
   859     064C  0822               	movf	I2C_Master_Init@BaudRate+2,w
   860     064D  00A6               	movwf	??_I2C_Master_Init+2
   861     064E  0823               	movf	I2C_Master_Init@BaudRate+3,w
   862     064F  00A7               	movwf	??_I2C_Master_Init+3
   863     0650  3002               	movlw	2
   864     0651                     u315:
   865     0651  1003               	clrc
   866     0652  0DA4               	rlf	??_I2C_Master_Init,f
   867     0653  0DA5               	rlf	??_I2C_Master_Init+1,f
   868     0654  0DA6               	rlf	??_I2C_Master_Init+2,f
   869     0655  0DA7               	rlf	??_I2C_Master_Init+3,f
   870     0656                     u310:
   871     0656  3EFF               	addlw	-1
   872     0657  1D03               	skipz
   873     0658  2E51               	goto	u315
   874     0659  0827               	movf	??_I2C_Master_Init+3,w
   875     065A  00F3               	movwf	___lldiv@divisor+3
   876     065B  0826               	movf	??_I2C_Master_Init+2,w
   877     065C  00F2               	movwf	___lldiv@divisor+2
   878     065D  0825               	movf	??_I2C_Master_Init+1,w
   879     065E  00F1               	movwf	___lldiv@divisor+1
   880     065F  0824               	movf	??_I2C_Master_Init,w
   881     0660  00F0               	movwf	___lldiv@divisor
   882     0661  3000               	movlw	0
   883     0662  00F7               	movwf	___lldiv@dividend+3
   884     0663  303D               	movlw	61
   885     0664  00F6               	movwf	___lldiv@dividend+2
   886     0665  3009               	movlw	9
   887     0666  00F5               	movwf	___lldiv@dividend+1
   888     0667  3000               	movlw	0
   889     0668  00F4               	movwf	___lldiv@dividend
   890     0669  120A  118A  26BB  120A  118A  	fcall	___lldiv
   891     066E  0870               	movf	?___lldiv,w
   892     066F  3EFF               	addlw	255
   893     0670  1683               	bsf	3,5	;RP0=1, select bank1
   894     0671  1303               	bcf	3,6	;RP1=0, select bank1
   895     0672  0093               	movwf	19	;volatile
   896     0673                     l927:
   897                           
   898                           ;I2C_Master.c: 7:     SSPCON=0x28;
   899     0673  3028               	movlw	40
   900     0674  1283               	bcf	3,5	;RP0=0, select bank0
   901     0675  1303               	bcf	3,6	;RP1=0, select bank0
   902     0676  0094               	movwf	20	;volatile
   903     0677                     l929:
   904                           
   905                           ;I2C_Master.c: 9:     SSPCON2 = 0;
   906     0677  1683               	bsf	3,5	;RP0=1, select bank1
   907     0678  1303               	bcf	3,6	;RP1=0, select bank1
   908     0679  0191               	clrf	17	;volatile
   909     067A                     l931:
   910                           
   911                           ;I2C_Master.c: 10:     SSPSTAT = 0;
   912     067A  0194               	clrf	20	;volatile
   913     067B                     l104:
   914     067B  0008               	return
   915     067C                     __end_of_I2C_Master_Init:
   916                           
   917                           	psect	text3
   918     06BB                     __ptext3:	
   919 ;; *************** function ___lldiv *****************
   920 ;; Defined at:
   921 ;;		line 5 in file "C:\Program Files\Microchip\xc8\v2.46\pic\sources\c99\common\__lldiv.c"
   922 ;; Parameters:    Size  Location     Type
   923 ;;  divisor         4    0[COMMON] unsigned long 
   924 ;;  dividend        4    4[COMMON] unsigned long 
   925 ;; Auto vars:     Size  Location     Type
   926 ;;  quotient        4    9[COMMON] unsigned long 
   927 ;;  counter         1   13[COMMON] unsigned char 
   928 ;; Return value:  Size  Location     Type
   929 ;;                  4    0[COMMON] unsigned long 
   930 ;; Registers used:
   931 ;;		wreg, status,2, status,0, btemp+1
   932 ;; Tracked objects:
   933 ;;		On entry : 0/0
   934 ;;		On exit  : 0/0
   935 ;;		Unchanged: 0/0
   936 ;; Data sizes:     COMMON   BANK0   BANK1   BANK3   BANK2
   937 ;;      Params:         8       0       0       0       0
   938 ;;      Locals:         5       0       0       0       0
   939 ;;      Temps:          1       0       0       0       0
   940 ;;      Totals:        14       0       0       0       0
   941 ;;Total ram usage:       14 bytes
   942 ;; Hardware stack levels used: 1
   943 ;; This function calls:
   944 ;;		Nothing
   945 ;; This function is called by:
   946 ;;		_I2C_Master_Init
   947 ;; This function uses a non-reentrant model
   948 ;;
   949                           
   950     06BB                     ___lldiv:	
   951                           ;psect for function ___lldiv
   952                           
   953     06BB                     l895:	
   954                           ;incstack = 0
   955                           ; Regs used in ___lldiv: [wreg+status,2+status,0+btemp+1]
   956                           
   957     06BB  3000               	movlw	0
   958     06BC  00FC               	movwf	___lldiv@quotient+3
   959     06BD  3000               	movlw	0
   960     06BE  00FB               	movwf	___lldiv@quotient+2
   961     06BF  3000               	movlw	0
   962     06C0  00FA               	movwf	___lldiv@quotient+1
   963     06C1  3000               	movlw	0
   964     06C2  00F9               	movwf	___lldiv@quotient
   965     06C3  0873               	movf	___lldiv@divisor+3,w
   966     06C4  0472               	iorwf	___lldiv@divisor+2,w
   967     06C5  0471               	iorwf	___lldiv@divisor+1,w
   968     06C6  0470               	iorwf	___lldiv@divisor,w
   969     06C7  1903               	skipnz
   970     06C8  2ECA               	goto	u241
   971     06C9  2ECB               	goto	u240
   972     06CA                     u241:
   973     06CA  2F18               	goto	l917
   974     06CB                     u240:
   975     06CB                     l897:
   976     06CB  01FD               	clrf	___lldiv@counter
   977     06CC  0AFD               	incf	___lldiv@counter,f
   978     06CD  2EDB               	goto	l903
   979     06CE                     l899:
   980     06CE  3001               	movlw	1
   981     06CF  00F8               	movwf	??___lldiv
   982     06D0                     u255:
   983     06D0  1003               	clrc
   984     06D1  0DF0               	rlf	___lldiv@divisor,f
   985     06D2  0DF1               	rlf	___lldiv@divisor+1,f
   986     06D3  0DF2               	rlf	___lldiv@divisor+2,f
   987     06D4  0DF3               	rlf	___lldiv@divisor+3,f
   988     06D5  0BF8               	decfsz	??___lldiv,f
   989     06D6  2ED0               	goto	u255
   990     06D7                     l901:
   991     06D7  3001               	movlw	1
   992     06D8  00FF               	movwf	btemp+1
   993     06D9  087F               	movf	btemp+1,w
   994     06DA  07FD               	addwf	___lldiv@counter,f
   995     06DB                     l903:
   996     06DB  1FF3               	btfss	___lldiv@divisor+3,7
   997     06DC  2EDE               	goto	u261
   998     06DD  2EDF               	goto	u260
   999     06DE                     u261:
  1000     06DE  2ECE               	goto	l899
  1001     06DF                     u260:
  1002     06DF                     l905:
  1003     06DF  3001               	movlw	1
  1004     06E0  00F8               	movwf	??___lldiv
  1005     06E1                     u275:
  1006     06E1  1003               	clrc
  1007     06E2  0DF9               	rlf	___lldiv@quotient,f
  1008     06E3  0DFA               	rlf	___lldiv@quotient+1,f
  1009     06E4  0DFB               	rlf	___lldiv@quotient+2,f
  1010     06E5  0DFC               	rlf	___lldiv@quotient+3,f
  1011     06E6  0BF8               	decfsz	??___lldiv,f
  1012     06E7  2EE1               	goto	u275
  1013     06E8                     l907:
  1014     06E8  0873               	movf	___lldiv@divisor+3,w
  1015     06E9  0277               	subwf	___lldiv@dividend+3,w
  1016     06EA  1D03               	skipz
  1017     06EB  2EF6               	goto	u285
  1018     06EC  0872               	movf	___lldiv@divisor+2,w
  1019     06ED  0276               	subwf	___lldiv@dividend+2,w
  1020     06EE  1D03               	skipz
  1021     06EF  2EF6               	goto	u285
  1022     06F0  0871               	movf	___lldiv@divisor+1,w
  1023     06F1  0275               	subwf	___lldiv@dividend+1,w
  1024     06F2  1D03               	skipz
  1025     06F3  2EF6               	goto	u285
  1026     06F4  0870               	movf	___lldiv@divisor,w
  1027     06F5  0274               	subwf	___lldiv@dividend,w
  1028     06F6                     u285:
  1029     06F6  1C03               	skipc
  1030     06F7  2EF9               	goto	u281
  1031     06F8  2EFA               	goto	u280
  1032     06F9                     u281:
  1033     06F9  2F09               	goto	l913
  1034     06FA                     u280:
  1035     06FA                     l909:
  1036     06FA  0870               	movf	___lldiv@divisor,w
  1037     06FB  02F4               	subwf	___lldiv@dividend,f
  1038     06FC  0871               	movf	___lldiv@divisor+1,w
  1039     06FD  1C03               	skipc
  1040     06FE  0F71               	incfsz	___lldiv@divisor+1,w
  1041     06FF  02F5               	subwf	___lldiv@dividend+1,f
  1042     0700  0872               	movf	___lldiv@divisor+2,w
  1043     0701  1C03               	skipc
  1044     0702  0F72               	incfsz	___lldiv@divisor+2,w
  1045     0703  02F6               	subwf	___lldiv@dividend+2,f
  1046     0704  0873               	movf	___lldiv@divisor+3,w
  1047     0705  1C03               	skipc
  1048     0706  0F73               	incfsz	___lldiv@divisor+3,w
  1049     0707  02F7               	subwf	___lldiv@dividend+3,f
  1050     0708                     l911:
  1051     0708  1479               	bsf	___lldiv@quotient,0
  1052     0709                     l913:
  1053     0709  3001               	movlw	1
  1054     070A                     u295:
  1055     070A  1003               	clrc
  1056     070B  0CF3               	rrf	___lldiv@divisor+3,f
  1057     070C  0CF2               	rrf	___lldiv@divisor+2,f
  1058     070D  0CF1               	rrf	___lldiv@divisor+1,f
  1059     070E  0CF0               	rrf	___lldiv@divisor,f
  1060     070F  3EFF               	addlw	-1
  1061     0710  1D03               	skipz
  1062     0711  2F0A               	goto	u295
  1063     0712                     l915:
  1064     0712  3001               	movlw	1
  1065     0713  02FD               	subwf	___lldiv@counter,f
  1066     0714  1D03               	btfss	3,2
  1067     0715  2F17               	goto	u301
  1068     0716  2F18               	goto	u300
  1069     0717                     u301:
  1070     0717  2EDF               	goto	l905
  1071     0718                     u300:
  1072     0718                     l917:
  1073     0718  087C               	movf	___lldiv@quotient+3,w
  1074     0719  00F3               	movwf	?___lldiv+3
  1075     071A  087B               	movf	___lldiv@quotient+2,w
  1076     071B  00F2               	movwf	?___lldiv+2
  1077     071C  087A               	movf	___lldiv@quotient+1,w
  1078     071D  00F1               	movwf	?___lldiv+1
  1079     071E  0879               	movf	___lldiv@quotient,w
  1080     071F  00F0               	movwf	?___lldiv
  1081     0720                     l259:
  1082     0720  0008               	return
  1083     0721                     __end_of___lldiv:
  1084                           
  1085                           	psect	text4
  1086     0612                     __ptext4:	
  1087 ;; *************** function _EEPROM_Write *****************
  1088 ;; Defined at:
  1089 ;;		line 14 in file "I2C_EEPROM.c"
  1090 ;; Parameters:    Size  Location     Type
  1091 ;;  add             2    1[COMMON] unsigned int 
  1092 ;;  data            1    3[COMMON] unsigned char 
  1093 ;; Auto vars:     Size  Location     Type
  1094 ;;		None
  1095 ;; Return value:  Size  Location     Type
  1096 ;;                  1    wreg      void 
  1097 ;; Registers used:
  1098 ;;		wreg, status,2, status,0, pclath, cstack
  1099 ;; Tracked objects:
  1100 ;;		On entry : 0/0
  1101 ;;		On exit  : 0/0
  1102 ;;		Unchanged: 0/0
  1103 ;; Data sizes:     COMMON   BANK0   BANK1   BANK3   BANK2
  1104 ;;      Params:         3       0       0       0       0
  1105 ;;      Locals:         0       0       0       0       0
  1106 ;;      Temps:          0       0       0       0       0
  1107 ;;      Totals:         3       0       0       0       0
  1108 ;;Total ram usage:        3 bytes
  1109 ;; Hardware stack levels used: 1
  1110 ;; Hardware stack levels required when called: 2
  1111 ;; This function calls:
  1112 ;;		_I2C_Master_Repeated_Start
  1113 ;;		_I2C_Master_Start
  1114 ;;		_I2C_Master_Stop
  1115 ;;		_I2C_Master_Write
  1116 ;; This function is called by:
  1117 ;;		_main
  1118 ;; This function uses a non-reentrant model
  1119 ;;
  1120                           
  1121     0612                     _EEPROM_Write:	
  1122                           ;psect for function _EEPROM_Write
  1123                           
  1124     0612                     l933:	
  1125                           ;incstack = 0
  1126                           ; Regs used in _EEPROM_Write: [wreg+status,2+status,0+pclath+cstack]
  1127                           
  1128                           
  1129                           ;I2C_EEPROM.c: 15:     I2C_Master_Start();
  1130     0612  120A  118A  25BD  120A  118A  	fcall	_I2C_Master_Start
  1131                           
  1132                           ;I2C_EEPROM.c: 18:     while(I2C_Master_Write(0xA0)){
  1133     0617  2E1D               	goto	l40
  1134     0618                     l935:
  1135                           
  1136                           ;I2C_EEPROM.c: 19:     I2C_Master_Repeated_Start();}
  1137     0618  120A  118A  25B4  120A  118A  	fcall	_I2C_Master_Repeated_Start
  1138     061D                     l40:
  1139                           
  1140                           ;I2C_EEPROM.c: 18:     while(I2C_Master_Write(0xA0)){
  1141     061D  30A0               	movlw	160
  1142     061E  120A  118A  25E6  120A  118A  	fcall	_I2C_Master_Write
  1143     0623  3A00               	xorlw	0
  1144     0624  1D03               	skipz
  1145     0625  2E27               	goto	u321
  1146     0626  2E28               	goto	u320
  1147     0627                     u321:
  1148     0627  2E18               	goto	l935
  1149     0628                     u320:
  1150     0628                     l937:
  1151                           
  1152                           ;I2C_EEPROM.c: 21:     I2C_Master_Write(add>>8);
  1153     0628  0872               	movf	EEPROM_Write@add+1,w
  1154     0629  120A  118A  25E6  120A  118A  	fcall	_I2C_Master_Write
  1155                           
  1156                           ;I2C_EEPROM.c: 22:     I2C_Master_Write((unsigned char)add);
  1157     062E  0871               	movf	EEPROM_Write@add,w
  1158     062F  120A  118A  25E6  120A  118A  	fcall	_I2C_Master_Write
  1159                           
  1160                           ;I2C_EEPROM.c: 23:     I2C_Master_Write(data);
  1161     0634  0873               	movf	EEPROM_Write@data,w
  1162     0635  120A  118A  25E6  120A  118A  	fcall	_I2C_Master_Write
  1163                           
  1164                           ;I2C_EEPROM.c: 24:     I2C_Master_Stop();
  1165     063A  120A  118A  25C6  120A  118A  	fcall	_I2C_Master_Stop
  1166     063F                     l43:
  1167     063F  0008               	return
  1168     0640                     __end_of_EEPROM_Write:
  1169                           
  1170                           	psect	text5
  1171     067C                     __ptext5:	
  1172 ;; *************** function _EEPROM_Byte_Read *****************
  1173 ;; Defined at:
  1174 ;;		line 58 in file "I2C_EEPROM.c"
  1175 ;; Parameters:    Size  Location     Type
  1176 ;;  add             2    1[COMMON] unsigned int 
  1177 ;; Auto vars:     Size  Location     Type
  1178 ;;  Data            1    3[COMMON] unsigned char 
  1179 ;; Return value:  Size  Location     Type
  1180 ;;                  1    wreg      unsigned char 
  1181 ;; Registers used:
  1182 ;;		wreg, status,2, status,0, pclath, cstack
  1183 ;; Tracked objects:
  1184 ;;		On entry : 0/0
  1185 ;;		On exit  : 0/0
  1186 ;;		Unchanged: 0/0
  1187 ;; Data sizes:     COMMON   BANK0   BANK1   BANK3   BANK2
  1188 ;;      Params:         2       0       0       0       0
  1189 ;;      Locals:         1       0       0       0       0
  1190 ;;      Temps:          0       0       0       0       0
  1191 ;;      Totals:         3       0       0       0       0
  1192 ;;Total ram usage:        3 bytes
  1193 ;; Hardware stack levels used: 1
  1194 ;; Hardware stack levels required when called: 2
  1195 ;; This function calls:
  1196 ;;		_I2C_Master_Repeated_Start
  1197 ;;		_I2C_Master_Start
  1198 ;;		_I2C_Master_Stop
  1199 ;;		_I2C_Master_Write
  1200 ;;		_I2C_NACK
  1201 ;;		_I2C_Read_Byte
  1202 ;; This function is called by:
  1203 ;;		_main
  1204 ;; This function uses a non-reentrant model
  1205 ;;
  1206                           
  1207     067C                     _EEPROM_Byte_Read:	
  1208                           ;psect for function _EEPROM_Byte_Read
  1209                           
  1210     067C                     l939:	
  1211                           ;incstack = 0
  1212                           ; Regs used in _EEPROM_Byte_Read: [wreg+status,2+status,0+pclath+cstack]
  1213                           
  1214                           
  1215                           ;I2C_EEPROM.c: 59:     unsigned char Data;;I2C_EEPROM.c: 60:     I2C_Master_Start();
  1216     067C  120A  118A  25BD  120A  118A  	fcall	_I2C_Master_Start
  1217                           
  1218                           ;I2C_EEPROM.c: 62:     while(I2C_Master_Write(0xA0)){
  1219     0681  2E87               	goto	l61
  1220     0682                     l941:
  1221                           
  1222                           ;I2C_EEPROM.c: 63:     I2C_Master_Repeated_Start();}
  1223     0682  120A  118A  25B4  120A  118A  	fcall	_I2C_Master_Repeated_Start
  1224     0687                     l61:
  1225                           
  1226                           ;I2C_EEPROM.c: 62:     while(I2C_Master_Write(0xA0)){
  1227     0687  30A0               	movlw	160
  1228     0688  120A  118A  25E6  120A  118A  	fcall	_I2C_Master_Write
  1229     068D  3A00               	xorlw	0
  1230     068E  1D03               	skipz
  1231     068F  2E91               	goto	u331
  1232     0690  2E92               	goto	u330
  1233     0691                     u331:
  1234     0691  2E82               	goto	l941
  1235     0692                     u330:
  1236     0692                     l943:
  1237                           
  1238                           ;I2C_EEPROM.c: 65:     I2C_Master_Write(add>>8);
  1239     0692  0872               	movf	EEPROM_Byte_Read@add+1,w
  1240     0693  120A  118A  25E6  120A  118A  	fcall	_I2C_Master_Write
  1241                           
  1242                           ;I2C_EEPROM.c: 66:     I2C_Master_Write((unsigned char)add);
  1243     0698  0871               	movf	EEPROM_Byte_Read@add,w
  1244     0699  120A  118A  25E6  120A  118A  	fcall	_I2C_Master_Write
  1245                           
  1246                           ;I2C_EEPROM.c: 67:     I2C_Master_Repeated_Start();
  1247     069E  120A  118A  25B4  120A  118A  	fcall	_I2C_Master_Repeated_Start
  1248                           
  1249                           ;I2C_EEPROM.c: 69:     I2C_Master_Write(0xA1);
  1250     06A3  30A1               	movlw	161
  1251     06A4  120A  118A  25E6  120A  118A  	fcall	_I2C_Master_Write
  1252                           
  1253                           ;I2C_EEPROM.c: 70:     Data = I2C_Read_Byte();
  1254     06A9  120A  118A  25FB  120A  118A  	fcall	_I2C_Read_Byte
  1255     06AE  00F3               	movwf	EEPROM_Byte_Read@Data
  1256                           
  1257                           ;I2C_EEPROM.c: 71:     I2C_NACK();
  1258     06AF  120A  118A  25CF  120A  118A  	fcall	_I2C_NACK
  1259                           
  1260                           ;I2C_EEPROM.c: 72:     I2C_Master_Stop();
  1261     06B4  120A  118A  25C6  120A  118A  	fcall	_I2C_Master_Stop
  1262     06B9                     l945:
  1263                           
  1264                           ;I2C_EEPROM.c: 74:     return Data;
  1265     06B9  0873               	movf	EEPROM_Byte_Read@Data,w
  1266     06BA                     l64:
  1267     06BA  0008               	return
  1268     06BB                     __end_of_EEPROM_Byte_Read:
  1269                           
  1270                           	psect	text6
  1271     05FB                     __ptext6:	
  1272 ;; *************** function _I2C_Read_Byte *****************
  1273 ;; Defined at:
  1274 ;;		line 53 in file "I2C_Master.c"
  1275 ;; Parameters:    Size  Location     Type
  1276 ;;		None
  1277 ;; Auto vars:     Size  Location     Type
  1278 ;;		None
  1279 ;; Return value:  Size  Location     Type
  1280 ;;                  1    wreg      unsigned char 
  1281 ;; Registers used:
  1282 ;;		wreg, status,2, status,0, pclath, cstack
  1283 ;; Tracked objects:
  1284 ;;		On entry : 0/0
  1285 ;;		On exit  : 0/0
  1286 ;;		Unchanged: 0/0
  1287 ;; Data sizes:     COMMON   BANK0   BANK1   BANK3   BANK2
  1288 ;;      Params:         0       0       0       0       0
  1289 ;;      Locals:         0       0       0       0       0
  1290 ;;      Temps:          0       0       0       0       0
  1291 ;;      Totals:         0       0       0       0       0
  1292 ;;Total ram usage:        0 bytes
  1293 ;; Hardware stack levels used: 1
  1294 ;; Hardware stack levels required when called: 1
  1295 ;; This function calls:
  1296 ;;		_I2C_Master_Wait
  1297 ;; This function is called by:
  1298 ;;		_EEPROM_Byte_Read
  1299 ;;		_EEPROM_Current_Address_Read
  1300 ;;		_EEPROM_Sequential_Read
  1301 ;; This function uses a non-reentrant model
  1302 ;;
  1303                           
  1304     05FB                     _I2C_Read_Byte:	
  1305                           ;psect for function _I2C_Read_Byte
  1306                           
  1307     05FB                     l879:	
  1308                           ;incstack = 0
  1309                           ; Regs used in _I2C_Read_Byte: [wreg+status,2+status,0+pclath+cstack]
  1310                           
  1311                           
  1312                           ;I2C_Master.c: 54:     I2C_Master_Wait();
  1313     05FB  120A  118A  25D9  120A  118A  	fcall	_I2C_Master_Wait
  1314     0600                     l881:
  1315                           
  1316                           ;I2C_Master.c: 55:     RCEN = 1;
  1317     0600  1683               	bsf	3,5	;RP0=1, select bank1
  1318     0601  1303               	bcf	3,6	;RP1=0, select bank1
  1319     0602  1591               	bsf	17,3	;volatile
  1320     0603                     l134:	
  1321                           ;I2C_Master.c: 56:     while(!SSPIF);
  1322                           
  1323     0603  1283               	bcf	3,5	;RP0=0, select bank0
  1324     0604  1D8C               	btfss	12,3	;volatile
  1325     0605  2E07               	goto	u231
  1326     0606  2E08               	goto	u230
  1327     0607                     u231:
  1328     0607  2E03               	goto	l134
  1329     0608                     u230:
  1330     0608                     l136:
  1331                           
  1332                           ;I2C_Master.c: 57:     SSPIF = 0;
  1333     0608  118C               	bcf	12,3	;volatile
  1334     0609                     l883:
  1335                           
  1336                           ;I2C_Master.c: 58:     I2C_Master_Wait();
  1337     0609  120A  118A  25D9  120A  118A  	fcall	_I2C_Master_Wait
  1338     060E                     l885:
  1339                           
  1340                           ;I2C_Master.c: 59:     return SSPBUF;
  1341     060E  1283               	bcf	3,5	;RP0=0, select bank0
  1342     060F  1303               	bcf	3,6	;RP1=0, select bank0
  1343     0610  0813               	movf	19,w	;volatile
  1344     0611                     l137:
  1345     0611  0008               	return
  1346     0612                     __end_of_I2C_Read_Byte:
  1347                           
  1348                           	psect	text7
  1349     05CF                     __ptext7:	
  1350 ;; *************** function _I2C_NACK *****************
  1351 ;; Defined at:
  1352 ;;		line 38 in file "I2C_Master.c"
  1353 ;; Parameters:    Size  Location     Type
  1354 ;;		None
  1355 ;; Auto vars:     Size  Location     Type
  1356 ;;		None
  1357 ;; Return value:  Size  Location     Type
  1358 ;;                  1    wreg      void 
  1359 ;; Registers used:
  1360 ;;		wreg, status,2, status,0, pclath, cstack
  1361 ;; Tracked objects:
  1362 ;;		On entry : 0/0
  1363 ;;		On exit  : 0/0
  1364 ;;		Unchanged: 0/0
  1365 ;; Data sizes:     COMMON   BANK0   BANK1   BANK3   BANK2
  1366 ;;      Params:         0       0       0       0       0
  1367 ;;      Locals:         0       0       0       0       0
  1368 ;;      Temps:          0       0       0       0       0
  1369 ;;      Totals:         0       0       0       0       0
  1370 ;;Total ram usage:        0 bytes
  1371 ;; Hardware stack levels used: 1
  1372 ;; Hardware stack levels required when called: 1
  1373 ;; This function calls:
  1374 ;;		_I2C_Master_Wait
  1375 ;; This function is called by:
  1376 ;;		_EEPROM_Byte_Read
  1377 ;;		_EEPROM_Sequential_Read
  1378 ;; This function uses a non-reentrant model
  1379 ;;
  1380                           
  1381     05CF                     _I2C_NACK:	
  1382                           ;psect for function _I2C_NACK
  1383                           
  1384     05CF                     l889:	
  1385                           ;incstack = 0
  1386                           ; Regs used in _I2C_NACK: [wreg+status,2+status,0+pclath+cstack]
  1387                           
  1388                           
  1389                           ;I2C_Master.c: 40:     I2C_Master_Wait();
  1390     05CF  120A  118A  25D9  120A  118A  	fcall	_I2C_Master_Wait
  1391     05D4                     l891:
  1392                           
  1393                           ;I2C_Master.c: 41:     ACKDT=1;
  1394     05D4  1683               	bsf	3,5	;RP0=1, select bank1
  1395     05D5  1303               	bcf	3,6	;RP1=0, select bank1
  1396     05D6  1691               	bsf	17,5	;volatile
  1397     05D7                     l893:
  1398                           
  1399                           ;I2C_Master.c: 42:     ACKEN=1;
  1400     05D7  1611               	bsf	17,4	;volatile
  1401     05D8                     l125:
  1402     05D8  0008               	return
  1403     05D9                     __end_of_I2C_NACK:
  1404                           
  1405                           	psect	text8
  1406     05E6                     __ptext8:	
  1407 ;; *************** function _I2C_Master_Write *****************
  1408 ;; Defined at:
  1409 ;;		line 45 in file "I2C_Master.c"
  1410 ;; Parameters:    Size  Location     Type
  1411 ;;  data            1    wreg     unsigned char 
  1412 ;; Auto vars:     Size  Location     Type
  1413 ;;  data            1    0[COMMON] unsigned char 
  1414 ;; Return value:  Size  Location     Type
  1415 ;;                  1    wreg      unsigned char 
  1416 ;; Registers used:
  1417 ;;		wreg, status,2, status,0, pclath, cstack
  1418 ;; Tracked objects:
  1419 ;;		On entry : 0/0
  1420 ;;		On exit  : 0/0
  1421 ;;		Unchanged: 0/0
  1422 ;; Data sizes:     COMMON   BANK0   BANK1   BANK3   BANK2
  1423 ;;      Params:         0       0       0       0       0
  1424 ;;      Locals:         1       0       0       0       0
  1425 ;;      Temps:          0       0       0       0       0
  1426 ;;      Totals:         1       0       0       0       0
  1427 ;;Total ram usage:        1 bytes
  1428 ;; Hardware stack levels used: 1
  1429 ;; Hardware stack levels required when called: 1
  1430 ;; This function calls:
  1431 ;;		_I2C_Master_Wait
  1432 ;; This function is called by:
  1433 ;;		_EEPROM_Write
  1434 ;;		_EEPROM_Byte_Read
  1435 ;;		_EEPROM_Write_Page
  1436 ;;		_EEPROM_Current_Address_Read
  1437 ;;		_EEPROM_Sequential_Read
  1438 ;; This function uses a non-reentrant model
  1439 ;;
  1440                           
  1441     05E6                     _I2C_Master_Write:	
  1442                           ;psect for function _I2C_Master_Write
  1443                           
  1444                           
  1445                           ;incstack = 0
  1446                           ; Regs used in _I2C_Master_Write: [wreg+status,2+status,0+pclath+cstack]
  1447                           ;I2C_Master_Write@data stored from wreg
  1448     05E6  00F0               	movwf	I2C_Master_Write@data
  1449     05E7                     l867:
  1450                           
  1451                           ;I2C_Master.c: 46:   I2C_Master_Wait();
  1452     05E7  120A  118A  25D9  120A  118A  	fcall	_I2C_Master_Wait
  1453     05EC                     l869:
  1454                           
  1455                           ;I2C_Master.c: 47:   SSPBUF = data;
  1456     05EC  0870               	movf	I2C_Master_Write@data,w
  1457     05ED  1283               	bcf	3,5	;RP0=0, select bank0
  1458     05EE  1303               	bcf	3,6	;RP1=0, select bank0
  1459     05EF  0093               	movwf	19	;volatile
  1460     05F0                     l128:	
  1461                           ;I2C_Master.c: 48:   while(!SSPIF);
  1462                           
  1463     05F0  1D8C               	btfss	12,3	;volatile
  1464     05F1  2DF3               	goto	u221
  1465     05F2  2DF4               	goto	u220
  1466     05F3                     u221:
  1467     05F3  2DF0               	goto	l128
  1468     05F4                     u220:
  1469     05F4                     l130:
  1470                           
  1471                           ;I2C_Master.c: 49:   SSPIF = 0;
  1472     05F4  118C               	bcf	12,3	;volatile
  1473     05F5                     l871:
  1474                           
  1475                           ;I2C_Master.c: 50:   return ACKSTAT;
  1476     05F5  3000               	movlw	0
  1477     05F6  1683               	bsf	3,5	;RP0=1, select bank1
  1478     05F7  1303               	bcf	3,6	;RP1=0, select bank1
  1479     05F8  1B11               	btfsc	17,6	;volatile
  1480     05F9  3001               	movlw	1
  1481     05FA                     l131:
  1482     05FA  0008               	return
  1483     05FB                     __end_of_I2C_Master_Write:
  1484                           
  1485                           	psect	text9
  1486     05C6                     __ptext9:	
  1487 ;; *************** function _I2C_Master_Stop *****************
  1488 ;; Defined at:
  1489 ;;		line 22 in file "I2C_Master.c"
  1490 ;; Parameters:    Size  Location     Type
  1491 ;;		None
  1492 ;; Auto vars:     Size  Location     Type
  1493 ;;		None
  1494 ;; Return value:  Size  Location     Type
  1495 ;;                  1    wreg      void 
  1496 ;; Registers used:
  1497 ;;		wreg, status,2, status,0, pclath, cstack
  1498 ;; Tracked objects:
  1499 ;;		On entry : 0/0
  1500 ;;		On exit  : 0/0
  1501 ;;		Unchanged: 0/0
  1502 ;; Data sizes:     COMMON   BANK0   BANK1   BANK3   BANK2
  1503 ;;      Params:         0       0       0       0       0
  1504 ;;      Locals:         0       0       0       0       0
  1505 ;;      Temps:          0       0       0       0       0
  1506 ;;      Totals:         0       0       0       0       0
  1507 ;;Total ram usage:        0 bytes
  1508 ;; Hardware stack levels used: 1
  1509 ;; Hardware stack levels required when called: 1
  1510 ;; This function calls:
  1511 ;;		_I2C_Master_Wait
  1512 ;; This function is called by:
  1513 ;;		_EEPROM_Write
  1514 ;;		_EEPROM_Byte_Read
  1515 ;;		_EEPROM_Write_Page
  1516 ;;		_EEPROM_Current_Address_Read
  1517 ;;		_EEPROM_Sequential_Read
  1518 ;; This function uses a non-reentrant model
  1519 ;;
  1520                           
  1521     05C6                     _I2C_Master_Stop:	
  1522                           ;psect for function _I2C_Master_Stop
  1523                           
  1524     05C6                     l875:	
  1525                           ;incstack = 0
  1526                           ; Regs used in _I2C_Master_Stop: [wreg+status,2+status,0+pclath+cstack]
  1527                           
  1528                           
  1529                           ;I2C_Master.c: 23:     I2C_Master_Wait();
  1530     05C6  120A  118A  25D9  120A  118A  	fcall	_I2C_Master_Wait
  1531     05CB                     l877:
  1532                           
  1533                           ;I2C_Master.c: 24:     PEN=1;
  1534     05CB  1683               	bsf	3,5	;RP0=1, select bank1
  1535     05CC  1303               	bcf	3,6	;RP1=0, select bank1
  1536     05CD  1511               	bsf	17,2	;volatile
  1537     05CE                     l116:
  1538     05CE  0008               	return
  1539     05CF                     __end_of_I2C_Master_Stop:
  1540                           
  1541                           	psect	text10
  1542     05BD                     __ptext10:	
  1543 ;; *************** function _I2C_Master_Start *****************
  1544 ;; Defined at:
  1545 ;;		line 17 in file "I2C_Master.c"
  1546 ;; Parameters:    Size  Location     Type
  1547 ;;		None
  1548 ;; Auto vars:     Size  Location     Type
  1549 ;;		None
  1550 ;; Return value:  Size  Location     Type
  1551 ;;                  1    wreg      void 
  1552 ;; Registers used:
  1553 ;;		wreg, status,2, status,0, pclath, cstack
  1554 ;; Tracked objects:
  1555 ;;		On entry : 0/0
  1556 ;;		On exit  : 0/0
  1557 ;;		Unchanged: 0/0
  1558 ;; Data sizes:     COMMON   BANK0   BANK1   BANK3   BANK2
  1559 ;;      Params:         0       0       0       0       0
  1560 ;;      Locals:         0       0       0       0       0
  1561 ;;      Temps:          0       0       0       0       0
  1562 ;;      Totals:         0       0       0       0       0
  1563 ;;Total ram usage:        0 bytes
  1564 ;; Hardware stack levels used: 1
  1565 ;; Hardware stack levels required when called: 1
  1566 ;; This function calls:
  1567 ;;		_I2C_Master_Wait
  1568 ;; This function is called by:
  1569 ;;		_EEPROM_Write
  1570 ;;		_EEPROM_Byte_Read
  1571 ;;		_EEPROM_Write_Page
  1572 ;;		_EEPROM_Current_Address_Read
  1573 ;;		_EEPROM_Sequential_Read
  1574 ;; This function uses a non-reentrant model
  1575 ;;
  1576                           
  1577     05BD                     _I2C_Master_Start:	
  1578                           ;psect for function _I2C_Master_Start
  1579                           
  1580     05BD                     l859:	
  1581                           ;incstack = 0
  1582                           ; Regs used in _I2C_Master_Start: [wreg+status,2+status,0+pclath+cstack]
  1583                           
  1584                           
  1585                           ;I2C_Master.c: 18:     I2C_Master_Wait();
  1586     05BD  120A  118A  25D9  120A  118A  	fcall	_I2C_Master_Wait
  1587     05C2                     l861:
  1588                           
  1589                           ;I2C_Master.c: 19:     SEN=1;
  1590     05C2  1683               	bsf	3,5	;RP0=1, select bank1
  1591     05C3  1303               	bcf	3,6	;RP1=0, select bank1
  1592     05C4  1411               	bsf	17,0	;volatile
  1593     05C5                     l113:
  1594     05C5  0008               	return
  1595     05C6                     __end_of_I2C_Master_Start:
  1596                           
  1597                           	psect	text11
  1598     05B4                     __ptext11:	
  1599 ;; *************** function _I2C_Master_Repeated_Start *****************
  1600 ;; Defined at:
  1601 ;;		line 27 in file "I2C_Master.c"
  1602 ;; Parameters:    Size  Location     Type
  1603 ;;		None
  1604 ;; Auto vars:     Size  Location     Type
  1605 ;;		None
  1606 ;; Return value:  Size  Location     Type
  1607 ;;                  1    wreg      void 
  1608 ;; Registers used:
  1609 ;;		wreg, status,2, status,0, pclath, cstack
  1610 ;; Tracked objects:
  1611 ;;		On entry : 0/0
  1612 ;;		On exit  : 0/0
  1613 ;;		Unchanged: 0/0
  1614 ;; Data sizes:     COMMON   BANK0   BANK1   BANK3   BANK2
  1615 ;;      Params:         0       0       0       0       0
  1616 ;;      Locals:         0       0       0       0       0
  1617 ;;      Temps:          0       0       0       0       0
  1618 ;;      Totals:         0       0       0       0       0
  1619 ;;Total ram usage:        0 bytes
  1620 ;; Hardware stack levels used: 1
  1621 ;; Hardware stack levels required when called: 1
  1622 ;; This function calls:
  1623 ;;		_I2C_Master_Wait
  1624 ;; This function is called by:
  1625 ;;		_EEPROM_Write
  1626 ;;		_EEPROM_Byte_Read
  1627 ;;		_EEPROM_Write_Page
  1628 ;;		_EEPROM_Current_Address_Read
  1629 ;;		_EEPROM_Sequential_Read
  1630 ;; This function uses a non-reentrant model
  1631 ;;
  1632                           
  1633     05B4                     _I2C_Master_Repeated_Start:	
  1634                           ;psect for function _I2C_Master_Repeated_Start
  1635                           
  1636     05B4                     l863:	
  1637                           ;incstack = 0
  1638                           ; Regs used in _I2C_Master_Repeated_Start: [wreg+status,2+status,0+pclath+cstack]
  1639                           
  1640                           
  1641                           ;I2C_Master.c: 28:     I2C_Master_Wait();
  1642     05B4  120A  118A  25D9  120A  118A  	fcall	_I2C_Master_Wait
  1643     05B9                     l865:
  1644                           
  1645                           ;I2C_Master.c: 29:     RSEN=1;
  1646     05B9  1683               	bsf	3,5	;RP0=1, select bank1
  1647     05BA  1303               	bcf	3,6	;RP1=0, select bank1
  1648     05BB  1491               	bsf	17,1	;volatile
  1649     05BC                     l119:
  1650     05BC  0008               	return
  1651     05BD                     __end_of_I2C_Master_Repeated_Start:
  1652                           
  1653                           	psect	text12
  1654     05D9                     __ptext12:	
  1655 ;; *************** function _I2C_Master_Wait *****************
  1656 ;; Defined at:
  1657 ;;		line 13 in file "I2C_Master.c"
  1658 ;; Parameters:    Size  Location     Type
  1659 ;;		None
  1660 ;; Auto vars:     Size  Location     Type
  1661 ;;		None
  1662 ;; Return value:  Size  Location     Type
  1663 ;;                  1    wreg      void 
  1664 ;; Registers used:
  1665 ;;		wreg, status,2
  1666 ;; Tracked objects:
  1667 ;;		On entry : 0/0
  1668 ;;		On exit  : 0/0
  1669 ;;		Unchanged: 0/0
  1670 ;; Data sizes:     COMMON   BANK0   BANK1   BANK3   BANK2
  1671 ;;      Params:         0       0       0       0       0
  1672 ;;      Locals:         0       0       0       0       0
  1673 ;;      Temps:          0       0       0       0       0
  1674 ;;      Totals:         0       0       0       0       0
  1675 ;;Total ram usage:        0 bytes
  1676 ;; Hardware stack levels used: 1
  1677 ;; This function calls:
  1678 ;;		Nothing
  1679 ;; This function is called by:
  1680 ;;		_I2C_Master_Start
  1681 ;;		_I2C_Master_Stop
  1682 ;;		_I2C_Master_Repeated_Start
  1683 ;;		_I2C_NACK
  1684 ;;		_I2C_Master_Write
  1685 ;;		_I2C_Read_Byte
  1686 ;;		_I2C_ACK
  1687 ;; This function uses a non-reentrant model
  1688 ;;
  1689                           
  1690     05D9                     _I2C_Master_Wait:	
  1691                           ;psect for function _I2C_Master_Wait
  1692                           
  1693     05D9                     l855:	
  1694                           ;incstack = 0
  1695                           ; Regs used in _I2C_Master_Wait: [wreg+status,2]
  1696                           
  1697     05D9                     l107:	
  1698                           ;I2C_Master.c: 14:     while((SSPSTAT&0x04) || (SSPCON2&0x1F));
  1699                           
  1700     05D9  1683               	bsf	3,5	;RP0=1, select bank1
  1701     05DA  1303               	bcf	3,6	;RP1=0, select bank1
  1702     05DB  1914               	btfsc	20,2	;volatile
  1703     05DC  2DDE               	goto	u201
  1704     05DD  2DDF               	goto	u200
  1705     05DE                     u201:
  1706     05DE  2DD9               	goto	l107
  1707     05DF                     u200:
  1708     05DF                     l857:
  1709     05DF  0811               	movf	17,w	;volatile
  1710     05E0  391F               	andlw	31
  1711     05E1  1D03               	btfss	3,2
  1712     05E2  2DE4               	goto	u211
  1713     05E3  2DE5               	goto	u210
  1714     05E4                     u211:
  1715     05E4  2DD9               	goto	l107
  1716     05E5                     u210:
  1717     05E5                     l110:
  1718     05E5  0008               	return
  1719     05E6                     __end_of_I2C_Master_Wait:
  1720     007E                     btemp	set	126	;btemp
  1721     007E                     wtemp0	set	126
  1722                           
  1723                           	psect	config
  1724                           
  1725                           ;Config register CONFIG @ 0x2007
  1726                           ;	Oscillator Selection bits
  1727                           ;	FOSC = XT, XT oscillator
  1728                           ;	Watchdog Timer Enable bit
  1729                           ;	WDTE = OFF, WDT disabled
  1730                           ;	Power-up Timer Enable bit
  1731                           ;	PWRTE = ON, PWRT enabled
  1732                           ;	Brown-out Reset Enable bit
  1733                           ;	BOREN = ON, BOR enabled
  1734                           ;	Low-Voltage (Single-Supply) In-Circuit Serial Programming Enable bit
  1735                           ;	LVP = OFF, RB3 is digital I/O, HV on MCLR must be used for programming
  1736                           ;	Data EEPROM Memory Code Protection bit
  1737                           ;	CPD = OFF, Data EEPROM code protection off
  1738                           ;	Flash Program Memory Write Enable bits
  1739                           ;	WRT = OFF, Write protection off; all program memory may be written to by EECON control
  1740                           ;	In-Circuit Debugger Mode bit
  1741                           ;	DEBUG = 0x1, unprogrammed default
  1742                           ;	Flash Program Memory Code Protection bit
  1743                           ;	CP = OFF, Code protection off
  1744     2007                     	org	8199
  1745     2007  3F71               	dw	16241

Data Sizes:
    Strings     0
    Constant    0
    Data        0
    BSS         0
    Persistent  0
    Stack       0

Auto Spaces:
    Space          Size  Autos    Used
    COMMON           14     14      14
    BANK0            80     14      14
    BANK1            80      0       0
    BANK3            96      0       0
    BANK2            96      0       0

Pointer List with Targets:

    None.

Critical Paths under _main in COMMON

    _I2C_Master_Init->___lldiv
    _EEPROM_Write->_I2C_Master_Write
    _EEPROM_Byte_Read->_I2C_Master_Write

Critical Paths under _main in BANK0

    _main->_I2C_Master_Init

Critical Paths under _main in BANK1

    None.

Critical Paths under _main in BANK3

    None.

Critical Paths under _main in BANK2

    None.

Call Graph Tables:

 ---------------------------------------------------------------------------------
 (Depth) Function   	        Calls       Base Space   Used Autos Params    Refs
 ---------------------------------------------------------------------------------
 (0) _main                                                 6     6      0    1474
                                              8 BANK0      6     6      0
                   _EEPROM_Byte_Read
                       _EEPROM_Write
                    _I2C_Master_Init
                          _port_init
 ---------------------------------------------------------------------------------
 (1) _port_init                                            0     0      0       0
 ---------------------------------------------------------------------------------
 (1) _I2C_Master_Init                                      8     4      4     412
                                              0 BANK0      8     4      4
                            ___lldiv
 ---------------------------------------------------------------------------------
 (2) ___lldiv                                             14     6      8     314
                                              0 COMMON    14     6      8
 ---------------------------------------------------------------------------------
 (1) _EEPROM_Write                                         3     0      3     544
                                              1 COMMON     3     0      3
          _I2C_Master_Repeated_Start
                   _I2C_Master_Start
                    _I2C_Master_Stop
                   _I2C_Master_Write
 ---------------------------------------------------------------------------------
 (1) _EEPROM_Byte_Read                                     3     1      2     317
                                              1 COMMON     3     1      2
          _I2C_Master_Repeated_Start
                   _I2C_Master_Start
                    _I2C_Master_Stop
                   _I2C_Master_Write
                           _I2C_NACK
                      _I2C_Read_Byte
 ---------------------------------------------------------------------------------
 (2) _I2C_Read_Byte                                        0     0      0       0
                    _I2C_Master_Wait
 ---------------------------------------------------------------------------------
 (2) _I2C_NACK                                             0     0      0       0
                    _I2C_Master_Wait
 ---------------------------------------------------------------------------------
 (2) _I2C_Master_Write                                     1     1      0      22
                                              0 COMMON     1     1      0
                    _I2C_Master_Wait
 ---------------------------------------------------------------------------------
 (2) _I2C_Master_Stop                                      0     0      0       0
                    _I2C_Master_Wait
 ---------------------------------------------------------------------------------
 (2) _I2C_Master_Start                                     0     0      0       0
                    _I2C_Master_Wait
 ---------------------------------------------------------------------------------
 (2) _I2C_Master_Repeated_Start                            0     0      0       0
                    _I2C_Master_Wait
 ---------------------------------------------------------------------------------
 (3) _I2C_Master_Wait                                      0     0      0       0
 ---------------------------------------------------------------------------------
 Estimated maximum stack depth 3
 ---------------------------------------------------------------------------------

 Call Graph Graphs:

 _main (ROOT)
   _EEPROM_Byte_Read
     _I2C_Master_Repeated_Start
       _I2C_Master_Wait
     _I2C_Master_Start
       _I2C_Master_Wait
     _I2C_Master_Stop
       _I2C_Master_Wait
     _I2C_Master_Write
       _I2C_Master_Wait
     _I2C_NACK
       _I2C_Master_Wait
     _I2C_Read_Byte
       _I2C_Master_Wait
   _EEPROM_Write
     _I2C_Master_Repeated_Start
     _I2C_Master_Start
     _I2C_Master_Stop
     _I2C_Master_Write
   _I2C_Master_Init
     ___lldiv
   _port_init

 Address spaces:
Name               Size   Autos  Total    Cost      Usage
BITCOMMON            E      0       0       0        0.0%
EEDATA             100      0       0       0        0.0%
NULL                 0      0       0       0        0.0%
CODE                 0      0       0       0        0.0%
COMMON               E      E       E       1      100.0%
BITSFR0              0      0       0       1        0.0%
SFR0                 0      0       0       1        0.0%
BITSFR1              0      0       0       2        0.0%
SFR1                 0      0       0       2        0.0%
STACK                0      0       0       2        0.0%
ABS                  0      0       0       3        0.0%
BITBANK0            50      0       0       4        0.0%
BITSFR3              0      0       0       4        0.0%
SFR3                 0      0       0       4        0.0%
BANK0               50      E       E       5       17.5%
BITSFR2              0      0       0       5        0.0%
SFR2                 0      0       0       5        0.0%
BITBANK1            50      0       0       6        0.0%
BANK1               50      0       0       7        0.0%
BITBANK3            60      0       0       8        0.0%
BANK3               60      0       0       9        0.0%
BITBANK2            60      0       0      10        0.0%
BANK2               60      0       0      11        0.0%
DATA                 0      0       0      12        0.0%


Microchip Technology PIC Macro Assembler V2.46 build 20240104201356 
Symbol Table                                                                                   Mon Jun 03 19:11:47 2024

                               l20 07F8                                 l21 07F8  
                               l15 05B3                                 l40 061D  
                               l43 063F                                 l61 0687  
                               l64 06BA                                l110 05E5  
                              l104 067B                                l113 05C5  
                              l130 05F4                                l107 05D9  
                              l131 05FA                                l116 05CE  
                              l125 05D8                                l134 0603  
                              l119 05BC                                l128 05F0  
                              l136 0608                                l137 0611  
                              l259 0720                                l901 06D7  
                              l911 0708                                l903 06DB  
                              l913 0709                                l905 06DF  
                              l921 05AD                                l915 0712  
                              l907 06E8                                l931 067A  
                              l923 0640                                l861 05C2  
                              l941 0682                                l933 0612  
                              l909 06FA                                l917 0718  
                              l925 0646                                l855 05D9  
                              l863 05B4                                l871 05F5  
                              l943 0692                                l935 0618  
                              l927 0673                                l951 0726  
                              l857 05DF                                l865 05B9  
                              l881 0600                                l945 06B9  
                              l937 0628                                l929 0677  
                              l961 0752                                l953 0735  
                              l859 05BD                                l875 05C6  
                              l867 05E7                                l891 05D4  
                              l883 0609                                l939 067C  
                              l971 07A6                                l963 0773  
                              l955 073B                                l877 05CB  
                              l869 05EC                                l893 05D7  
                              l885 060E                                l973 07B4  
                              l965 078A                                l957 073D  
                              l949 0721                                l879 05FB  
                              l895 06BB                                l975 07C8  
                              l967 0794                                l959 0748  
                              l889 05CF                                l897 06CB  
                              l977 07D6                                l969 079A  
                              l899 06CE                                l979 07EA  
                              u200 05DF                                u201 05DE  
                              u210 05E5                                u211 05E4  
                              u220 05F4                                u300 0718  
                              u221 05F3                                u301 0717  
                              u230 0608                                u310 0656  
                              u231 0607                                u320 0628  
                              u240 06CB                                u321 0627  
                              u241 06CA                                u330 0692  
                              u331 0691                                u315 0651  
                              u260 06DF                                u261 06DE  
                              u255 06D0                                u407 076F  
                              u280 06FA                                _PEN 048A  
                              u281 06F9                                u417 0790  
                              u275 06E1                                u427 07AE  
                              u285 06F6                                u437 07D0  
                              u295 070A                                u447 07F2  
                              _SEN 0488                                u397 074E  
                             _RCEN 048B                               _RSEN 0489  
                 __end_of_I2C_NACK 05D9                               _main 0721  
                             btemp 007E                               start 0000  
                  EEPROM_Write@add 0071               __end_of_EEPROM_Write 0640  
                 ?_I2C_Master_Init 0020                   ?_I2C_Master_Wait 0070  
                 ?_I2C_Master_Stop 0070                              ?_main 0070  
                            _ACKEN 048C                              _ACKDT 048D  
                  __end_of___lldiv 0721                              _PORTD 0008  
                            _TRISC 0087                              _TRISD 0088  
                            _SSPIF 0063                              status 0003  
                            wtemp0 007E                   EEPROM_Write@data 0073  
                  __initialization 07FC                       __end_of_main 07FC  
         __end_of_EEPROM_Byte_Read 06BB                             ??_main 0028  
                ?_I2C_Master_Start 0070                  ?_I2C_Master_Write 0070  
               ??_I2C_Master_Start 0070                 ??_I2C_Master_Write 0070  
                           _SSPADD 0093                             _SSPCON 0014  
                           _SSPBUF 0013                      _I2C_Read_Byte 05FB  
                        ??___lldiv 0078                          ?_I2C_NACK 0070  
          I2C_Master_Init@BaudRate 0020            __end_of__initialization 07FC  
                   ?_I2C_Read_Byte 0070                     __pcstackCOMMON 0070  
                       ??_I2C_NACK 0070                       _EEPROM_Write 0612  
                       __pmaintext 0721                            _ACKSTAT 048E  
                          _SSPCON2 0091                            _SSPSTAT 0094  
                  ??_I2C_Read_Byte 0070                            ___lldiv 06BB  
                ?_EEPROM_Byte_Read 0071                            __ptext1 05AD  
                          __ptext2 0640                            __ptext3 06BB  
                          __ptext4 0612                            __ptext5 067C  
                          __ptext6 05FB                            __ptext7 05CF  
                          __ptext8 05E6                            __ptext9 05C6  
               ??_EEPROM_Byte_Read 0073               end_of_initialization 07FC  
                  ___lldiv@divisor 0070                    ___lldiv@counter 007D  
                __end_of_port_init 05B4                start_initialization 07FC  
                ??_I2C_Master_Init 0024                  ??_I2C_Master_Wait 0070  
                ??_I2C_Master_Stop 0070         ?_I2C_Master_Repeated_Start 0070  
                        ___latbits 0002                      __pcstackBANK0 0020  
                 _I2C_Master_Start 05BD                   _I2C_Master_Write 05E6  
                         ?___lldiv 0070               I2C_Master_Write@data 0070  
                         _I2C_NACK 05CF  __end_of_I2C_Master_Repeated_Start 05BD  
            __end_of_I2C_Read_Byte 0612                          _port_init 05AD  
             EEPROM_Byte_Read@Data 0073                         ?_port_init 0070  
                  _I2C_Master_Init 0640                    _I2C_Master_Wait 05D9  
                  _I2C_Master_Stop 05C6                           __ptext10 05BD  
                         __ptext11 05B4                           __ptext12 05D9  
                    ?_EEPROM_Write 0071                EEPROM_Byte_Read@add 0071  
                         main@data 002B        ??_I2C_Master_Repeated_Start 0070  
         __end_of_I2C_Master_Start 05C6           __end_of_I2C_Master_Write 05FB  
                   ??_EEPROM_Write 0074                   _EEPROM_Byte_Read 067C  
                 ___lldiv@dividend 0074            __end_of_I2C_Master_Init 067C  
          __end_of_I2C_Master_Wait 05E6            __end_of_I2C_Master_Stop 05CF  
                      ??_port_init 0070                   ___lldiv@quotient 0079  
        _I2C_Master_Repeated_Start 05B4                        main@Address 002C  
