

Microchip MPLAB XC8 Assembler V2.46 build 20240104201356 
                                                                                               Tue May 21 14:08:48 2024

Microchip MPLAB XC8 C Compiler v2.46 (Free license) build 20240104201356 Og1 
     1                           	processor	16F877A
     2                           	pagewidth 120
     3                           	opt	flic
     4                           	psect	strings,global,class=STRING,delta=2,noexec
     5                           	psect	cinit,global,class=CODE,merge=1,delta=2
     6                           	psect	bssBANK3,global,class=BANK3,space=1,delta=1,noexec
     7                           	psect	cstackBANK3,global,class=BANK3,space=1,delta=1,noexec
     8                           	psect	cstackBANK2,global,class=BANK2,space=1,delta=1,noexec
     9                           	psect	cstackBANK1,global,class=BANK1,space=1,delta=1,noexec
    10                           	psect	cstackCOMMON,global,class=COMMON,space=1,delta=1,noexec
    11                           	psect	cstackBANK0,global,class=BANK0,space=1,delta=1,noexec
    12                           	psect	maintext,global,class=CODE,split=1,delta=2
    13                           	psect	text1,local,class=CODE,merge=1,delta=2,group=2
    14                           	psect	text2,local,class=CODE,merge=1,delta=2,group=2
    15                           	psect	text3,local,class=CODE,merge=1,delta=2,group=2
    16                           	psect	text4,local,class=CODE,merge=1,delta=2,group=2
    17                           	psect	text5,local,class=CODE,merge=1,delta=2,group=1
    18                           	psect	text6,local,class=CODE,merge=1,delta=2,group=1
    19                           	psect	text7,local,class=CODE,merge=1,delta=2,group=2
    20                           	psect	text8,local,class=CODE,merge=1,delta=2,group=1
    21                           	psect	text9,local,class=CODE,merge=1,delta=2,group=1
    22                           	psect	text10,local,class=CODE,merge=1,delta=2,group=2
    23                           	psect	text11,local,class=CODE,merge=1,delta=2,group=1
    24                           	psect	text12,local,class=CODE,merge=1,delta=2,group=1
    25                           	psect	text13,local,class=CODE,merge=1,delta=2,group=1
    26                           	psect	text14,local,class=CODE,merge=1,delta=2,group=1
    27                           	psect	text15,local,class=CODE,merge=1,delta=2,group=1
    28                           	psect	text16,local,class=CODE,merge=1,delta=2,group=1
    29                           	psect	config,global,abs,ovrld,class=CONFIG,space=4,delta=2,noexec
    30                           	dabs	1,0x7E,2
    31     0000                     
    32                           ; Generated 12/10/2023 GMT
    33                           ; 
    34                           ; Copyright © 2023, Microchip Technology Inc. and its subsidiaries ("Microchip")
    35                           ; All rights reserved.
    36                           ; 
    37                           ; This software is developed by Microchip Technology Inc. and its subsidiaries ("Microch
      +                          ip").
    38                           ; 
    39                           ; Redistribution and use in source and binary forms, with or without modification, are
    40                           ; permitted provided that the following conditions are met:
    41                           ; 
    42                           ;     1. Redistributions of source code must retain the above copyright notice, this lis
      +                          t of
    43                           ;        conditions and the following disclaimer.
    44                           ; 
    45                           ;     2. Redistributions in binary form must reproduce the above copyright notice, this 
      +                          list
    46                           ;        of conditions and the following disclaimer in the documentation and/or other
    47                           ;        materials provided with the distribution. Publication is not required when
    48                           ;        this file is used in an embedded application.
    49                           ; 
    50                           ;     3. Microchip's name may not be used to endorse or promote products derived from th
      +                          is
    51                           ;        software without specific prior written permission.
    52                           ; 
    53                           ; THIS SOFTWARE IS PROVIDED BY MICROCHIP "AS IS" AND ANY EXPRESS OR IMPLIED WARRANTIES,
    54                           ; INCLUDING, BUT NOT LIMITED TO, THE IMPLIED WARRANTIES OF MERCHANTABILITY AND FITNESS F
      +                          OR
    55                           ; PURPOSE ARE DISCLAIMED.  IN NO EVENT SHALL MICROCHIP BE LIABLE FOR ANY DIRECT, INDIREC
      +                          T,
    56                           ; INCIDENTAL, SPECIAL, EXEMPLARY, OR CONSEQUENTIAL DAMAGES (INCLUDING BUT NOT LIMITED TO
    57                           ; PROCUREMENT OF SUBSTITUTE GOODS OR SERVICES; LOSS OF USE, DATA OR PROFITS; OR BUSINESS
    58                           ; INTERRUPTION) HOWSOEVER CAUSED AND ON ANY THEORY OF LIABILITY, WHETHER IN CONTRACT, ST
      +                          RICT
    59                           ; LIABILITY, OR TORT (INCLUDING NEGLIGENCE OR OTHERWISE) ARISING IN ANY WAY OUT OF THE U
      +                          SE OF
    60                           ; THIS SOFTWARE, EVEN IF ADVISED OF THE POSSIBILITY OF SUCH DAMAGE.
    61                           ; 
    62                           ; 
    63                           ; Code-generator required, PIC16F877A Definitions
    64                           ; 
    65                           ; SFR Addresses
    66     0000                     	;# 
    67     0001                     	;# 
    68     0002                     	;# 
    69     0003                     	;# 
    70     0004                     	;# 
    71     0005                     	;# 
    72     0006                     	;# 
    73     0007                     	;# 
    74     0008                     	;# 
    75     0009                     	;# 
    76     000A                     	;# 
    77     000B                     	;# 
    78     000C                     	;# 
    79     000D                     	;# 
    80     000E                     	;# 
    81     000E                     	;# 
    82     000F                     	;# 
    83     0010                     	;# 
    84     0011                     	;# 
    85     0012                     	;# 
    86     0013                     	;# 
    87     0014                     	;# 
    88     0015                     	;# 
    89     0015                     	;# 
    90     0016                     	;# 
    91     0017                     	;# 
    92     0018                     	;# 
    93     0019                     	;# 
    94     001A                     	;# 
    95     001B                     	;# 
    96     001B                     	;# 
    97     001C                     	;# 
    98     001D                     	;# 
    99     001E                     	;# 
   100     001F                     	;# 
   101     0081                     	;# 
   102     0085                     	;# 
   103     0086                     	;# 
   104     0087                     	;# 
   105     0088                     	;# 
   106     0089                     	;# 
   107     008C                     	;# 
   108     008D                     	;# 
   109     008E                     	;# 
   110     0091                     	;# 
   111     0092                     	;# 
   112     0093                     	;# 
   113     0094                     	;# 
   114     0098                     	;# 
   115     0099                     	;# 
   116     009C                     	;# 
   117     009D                     	;# 
   118     009E                     	;# 
   119     009F                     	;# 
   120     010C                     	;# 
   121     010D                     	;# 
   122     010E                     	;# 
   123     010F                     	;# 
   124     018C                     	;# 
   125     018D                     	;# 
   126     0000                     	;# 
   127     0001                     	;# 
   128     0002                     	;# 
   129     0003                     	;# 
   130     0004                     	;# 
   131     0005                     	;# 
   132     0006                     	;# 
   133     0007                     	;# 
   134     0008                     	;# 
   135     0009                     	;# 
   136     000A                     	;# 
   137     000B                     	;# 
   138     000C                     	;# 
   139     000D                     	;# 
   140     000E                     	;# 
   141     000E                     	;# 
   142     000F                     	;# 
   143     0010                     	;# 
   144     0011                     	;# 
   145     0012                     	;# 
   146     0013                     	;# 
   147     0014                     	;# 
   148     0015                     	;# 
   149     0015                     	;# 
   150     0016                     	;# 
   151     0017                     	;# 
   152     0018                     	;# 
   153     0019                     	;# 
   154     001A                     	;# 
   155     001B                     	;# 
   156     001B                     	;# 
   157     001C                     	;# 
   158     001D                     	;# 
   159     001E                     	;# 
   160     001F                     	;# 
   161     0081                     	;# 
   162     0085                     	;# 
   163     0086                     	;# 
   164     0087                     	;# 
   165     0088                     	;# 
   166     0089                     	;# 
   167     008C                     	;# 
   168     008D                     	;# 
   169     008E                     	;# 
   170     0091                     	;# 
   171     0092                     	;# 
   172     0093                     	;# 
   173     0094                     	;# 
   174     0098                     	;# 
   175     0099                     	;# 
   176     009C                     	;# 
   177     009D                     	;# 
   178     009E                     	;# 
   179     009F                     	;# 
   180     010C                     	;# 
   181     010D                     	;# 
   182     010E                     	;# 
   183     010F                     	;# 
   184     018C                     	;# 
   185     018D                     	;# 
   186                           
   187                           	psect	strings
   188     1800                     __pstrings:
   189     1800                     stringtab:
   190     1800                     __stringtab:
   191     1800                     stringcode:	
   192                           ;	String table - string pointers are 1 byte each
   193                           
   194     1800                     stringdir:
   195     1800  3018               	movlw	high stringdir
   196     1801  008A               	movwf	10
   197     1802  0804               	movf	4,w
   198     1803  0A84               	incf	4,f
   199     1804  0782               	addwf	2,f
   200     1805                     __stringbase:
   201     1805  3400               	retlw	0
   202     1806                     __end_of__stringtab:
   203     1806                     _S4:
   204     1806  343C               	retlw	60
   205     1807  346C               	retlw	108
   206     1808  3436               	retlw	54
   207     1809  3436               	retlw	54
   208     180A                     __end_of_S4:
   209     180A                     _S3:
   210     180A  34CF               	retlw	207
   211     180B  3407               	retlw	7
   212     180C  3450               	retlw	80
   213     180D  34B9               	retlw	185
   214     180E                     __end_of_S3:
   215     180E                     _S2:
   216     180E  3484               	retlw	132
   217     180F  3488               	retlw	136
   218     1810  3408               	retlw	8
   219     1811  343C               	retlw	60
   220     1812                     __end_of_S2:
   221     1812                     _S1:
   222     1812  34AB               	retlw	171
   223     1813  34AA               	retlw	170
   224     1814  342A               	retlw	42
   225     1815  34BE               	retlw	190
   226     1816                     __end_of_S1:
   227     1816                     _pio2_1t:
   228     1816  34A3               	retlw	163
   229     1817  3485               	retlw	133
   230     1818  3488               	retlw	136
   231     1819  3432               	retlw	50
   232     181A                     __end_of_pio2_1t:
   233     181A                     _pio2_1:
   234     181A  34DA               	retlw	218
   235     181B  340F               	retlw	15
   236     181C  34C9               	retlw	201
   237     181D  343F               	retlw	63
   238     181E                     __end_of_pio2_1:
   239     181E                     _invpio2:
   240     181E  3483               	retlw	131
   241     181F  34F9               	retlw	249
   242     1820  3422               	retlw	34
   243     1821  343F               	retlw	63
   244     1822                     __end_of_invpio2:
   245     1822                     _half:
   246     1822  3400               	retlw	0
   247     1823  3400               	retlw	0
   248     1824  3400               	retlw	0
   249     1825  343F               	retlw	63
   250     1826                     __end_of_half:
   251     1826                     _C3:
   252     1826  3417               	retlw	23
   253     1827  349A               	retlw	154
   254     1828  34CC               	retlw	204
   255     1829  3437               	retlw	55
   256     182A                     __end_of_C3:
   257     182A                     _C2:
   258     182A  343F               	retlw	63
   259     182B  3404               	retlw	4
   260     182C  34B6               	retlw	182
   261     182D  34BA               	retlw	186
   262     182E                     __end_of_C2:
   263     182E                     _C1:
   264     182E  349F               	retlw	159
   265     182F  34AA               	retlw	170
   266     1830  342A               	retlw	42
   267     1831  343D               	retlw	61
   268     1832                     __end_of_C1:
   269     1832                     _C0:
   270     1832  3400               	retlw	0
   271     1833  3400               	retlw	0
   272     1834  3400               	retlw	0
   273     1835  34BF               	retlw	191
   274     1836                     __end_of_C0:
   275     1836                     _s4pio2:
   276     1836  34DB               	retlw	219
   277     1837  340F               	retlw	15
   278     1838  34C9               	retlw	201
   279     1839  3440               	retlw	64
   280     183A                     __end_of_s4pio2:
   281     183A                     _s3pio2:
   282     183A  34E4               	retlw	228
   283     183B  34CB               	retlw	203
   284     183C  3496               	retlw	150
   285     183D  3440               	retlw	64
   286     183E                     __end_of_s3pio2:
   287     183E                     _s2pio2:
   288     183E  34DB               	retlw	219
   289     183F  340F               	retlw	15
   290     1840  3449               	retlw	73
   291     1841  3440               	retlw	64
   292     1842                     __end_of_s2pio2:
   293     1842                     _s1pio2:
   294     1842  34DB               	retlw	219
   295     1843  340F               	retlw	15
   296     1844  34C9               	retlw	201
   297     1845  343F               	retlw	63
   298     1846                     __end_of_s1pio2:
   299     1846                     _toint:
   300     1846  3400               	retlw	0
   301     1847  3400               	retlw	0
   302     1848  3400               	retlw	0
   303     1849  344B               	retlw	75
   304     184A                     __end_of_toint:
   305     0006                     _PORTB	set	6
   306     0086                     _TRISB	set	134
   307                           
   308                           	psect	cinit
   309     07EE                     start_initialization:	
   310                           ; #config settings
   311                           
   312     07EE                     __initialization:
   313                           
   314                           ; Clear objects allocated to BANK3
   315     07EE  1683               	bsf	3,5	;RP0=1, select bank3
   316     07EF  1703               	bsf	3,6	;RP1=1, select bank3
   317     07F0  01C4               	clrf	__pbssBANK3& (0+127)
   318     07F1  01C5               	clrf	(__pbssBANK3+1)& (0+127)
   319     07F2  01C6               	clrf	(__pbssBANK3+2)& (0+127)
   320     07F3  01C7               	clrf	(__pbssBANK3+3)& (0+127)
   321     07F4  01C8               	clrf	(__pbssBANK3+4)& (0+127)
   322     07F5  01C9               	clrf	(__pbssBANK3+5)& (0+127)
   323     07F6  01CA               	clrf	(__pbssBANK3+6)& (0+127)
   324     07F7  01CB               	clrf	(__pbssBANK3+7)& (0+127)
   325     07F8  01CC               	clrf	(__pbssBANK3+8)& (0+127)
   326     07F9  01CD               	clrf	(__pbssBANK3+9)& (0+127)
   327     07FA  01CE               	clrf	(__pbssBANK3+10)& (0+127)
   328     07FB  01CF               	clrf	(__pbssBANK3+11)& (0+127)
   329     07FC                     end_of_initialization:	
   330                           ;End of C runtime variable initialization code
   331                           
   332     07FC                     __end_of__initialization:
   333     07FC  0183               	clrf	3
   334     07FD  160A  158A  2E66   	ljmp	_main	;jump to C main() function
   335                           
   336                           	psect	bssBANK3
   337     01C4                     __pbssBANK3:
   338     01C4                     fabsf@F465:
   339     01C4                     	ds	4
   340     01C8                     ___rem_pio2f@F526:
   341     01C8                     	ds	4
   342     01CC                     roundf@F522:
   343     01CC                     	ds	4
   344                           
   345                           	psect	cstackBANK3
   346     0190                     __pcstackBANK3:
   347     0190                     ??___fldiv:
   348                           
   349                           ; 1 bytes @ 0x0
   350     0190                     	ds	5
   351     0195                     ___fldiv@rem:
   352                           
   353                           ; 4 bytes @ 0x5
   354     0195                     	ds	4
   355     0199                     ___fldiv@sign:
   356                           
   357                           ; 1 bytes @ 0x9
   358     0199                     	ds	1
   359     019A                     ___fldiv@new_exp:
   360                           
   361                           ; 2 bytes @ 0xA
   362     019A                     	ds	2
   363     019C                     ___fldiv@grs:
   364                           
   365                           ; 4 bytes @ 0xC
   366     019C                     	ds	4
   367     01A0                     ___fldiv@bexp:
   368                           
   369                           ; 1 bytes @ 0x10
   370     01A0                     	ds	1
   371     01A1                     ___fldiv@aexp:
   372                           
   373                           ; 1 bytes @ 0x11
   374     01A1                     	ds	1
   375     01A2                     ?_roundf:
   376     01A2                     roundf@x:	
   377                           ; 4 bytes @ 0x12
   378                           
   379                           
   380                           ; 4 bytes @ 0x12
   381     01A2                     	ds	4
   382     01A6                     ??_roundf:
   383                           
   384                           ; 1 bytes @ 0x16
   385     01A6                     	ds	4
   386     01AA                     _roundf$757:
   387                           
   388                           ; 4 bytes @ 0x1A
   389     01AA                     	ds	4
   390     01AE                     roundf@z:
   391                           
   392                           ; 4 bytes @ 0x1E
   393     01AE                     	ds	4
   394     01B2                     roundf@e:
   395                           
   396                           ; 2 bytes @ 0x22
   397     01B2                     	ds	2
   398     01B4                     roundf@u:
   399                           
   400                           ; 4 bytes @ 0x24
   401     01B4                     	ds	4
   402     01B8                     _roundf$756:
   403                           
   404                           ; 4 bytes @ 0x28
   405     01B8                     	ds	4
   406     01BC                     roundf@sign:
   407                           
   408                           ; 1 bytes @ 0x2C
   409     01BC                     	ds	1
   410     01BD                     roundf@y:
   411                           
   412                           ; 4 bytes @ 0x2D
   413     01BD                     	ds	4
   414     01C1                     ??_main:
   415                           
   416                           ; 1 bytes @ 0x31
   417     01C1                     	ds	3
   418                           
   419                           	psect	cstackBANK2
   420     0110                     __pcstackBANK2:
   421     0110                     main@sine:
   422                           
   423                           ; 50 bytes @ 0x0
   424     0110                     	ds	50
   425     0142                     _main$753:
   426                           
   427                           ; 4 bytes @ 0x32
   428     0142                     	ds	4
   429     0146                     _main$754:
   430                           
   431                           ; 4 bytes @ 0x36
   432     0146                     	ds	4
   433     014A                     _main$755:
   434                           
   435                           ; 4 bytes @ 0x3A
   436     014A                     	ds	4
   437     014E                     main@i_47:
   438                           
   439                           ; 2 bytes @ 0x3E
   440     014E                     	ds	2
   441     0150                     main@i:
   442                           
   443                           ; 2 bytes @ 0x40
   444     0150                     	ds	2
   445                           
   446                           	psect	cstackBANK1
   447     00A0                     __pcstackBANK1:
   448     00A0                     ?___flneg:
   449     00A0                     ___flneg@f1:	
   450                           ; 4 bytes @ 0x0
   451                           
   452     00A0                     ___sindf@r:	
   453                           ; 4 bytes @ 0x0
   454                           
   455                           
   456                           ; 4 bytes @ 0x0
   457     00A0                     	ds	4
   458     00A4                     ?___fltol:
   459     00A4                     ___fltol@f1:	
   460                           ; 4 bytes @ 0x4
   461                           
   462     00A4                     ___sindf@w:	
   463                           ; 4 bytes @ 0x4
   464                           
   465                           
   466                           ; 4 bytes @ 0x4
   467     00A4                     	ds	4
   468     00A8                     ??___fltol:
   469     00A8                     ___sindf$763:	
   470                           ; 1 bytes @ 0x8
   471                           
   472                           
   473                           ; 4 bytes @ 0x8
   474     00A8                     	ds	4
   475     00AC                     ___fltol@sign1:
   476     00AC                     ___sindf$764:	
   477                           ; 1 bytes @ 0xC
   478                           
   479                           
   480                           ; 4 bytes @ 0xC
   481     00AC                     	ds	1
   482     00AD                     ___fltol@exp1:
   483                           
   484                           ; 1 bytes @ 0xD
   485     00AD                     	ds	1
   486     00AE                     ?___rem_pio2f:
   487     00AE                     ___rem_pio2f@x:	
   488                           ; 2 bytes @ 0xE
   489                           
   490                           
   491                           ; 4 bytes @ 0xE
   492     00AE                     	ds	2
   493     00B0                     ___sindf$765:
   494                           
   495                           ; 4 bytes @ 0x10
   496     00B0                     	ds	2
   497     00B2                     ___rem_pio2f@y:
   498                           
   499                           ; 1 bytes @ 0x12
   500     00B2                     	ds	1
   501     00B3                     ??___rem_pio2f:
   502                           
   503                           ; 1 bytes @ 0x13
   504     00B3                     	ds	1
   505     00B4                     ___sindf@s:
   506                           
   507                           ; 4 bytes @ 0x14
   508     00B4                     	ds	1
   509     00B5                     ___rem_pio2f@ty:
   510                           
   511                           ; 4 bytes @ 0x15
   512     00B5                     	ds	3
   513     00B8                     ___sindf@z:
   514                           
   515                           ; 4 bytes @ 0x18
   516     00B8                     	ds	1
   517     00B9                     ___rem_pio2f$762:
   518                           
   519                           ; 4 bytes @ 0x19
   520     00B9                     	ds	4
   521     00BD                     ___rem_pio2f@sign:
   522                           
   523                           ; 1 bytes @ 0x1D
   524     00BD                     	ds	1
   525     00BE                     ___rem_pio2f@ux:
   526                           
   527                           ; 4 bytes @ 0x1E
   528     00BE                     	ds	4
   529     00C2                     ___rem_pio2f@fn:
   530                           
   531                           ; 4 bytes @ 0x22
   532     00C2                     	ds	4
   533     00C6                     ___rem_pio2f@t:
   534                           
   535                           ; 4 bytes @ 0x26
   536     00C6                     	ds	4
   537     00CA                     ___rem_pio2f@n:
   538                           
   539                           ; 4 bytes @ 0x2A
   540     00CA                     	ds	4
   541     00CE                     ?_sinf:
   542     00CE                     sinf@x:	
   543                           ; 4 bytes @ 0x2E
   544                           
   545                           
   546                           ; 4 bytes @ 0x2E
   547     00CE                     	ds	4
   548     00D2                     _sinf$536:
   549                           
   550                           ; 4 bytes @ 0x32
   551     00D2                     	ds	4
   552     00D6                     _sinf$537:
   553                           
   554                           ; 4 bytes @ 0x36
   555     00D6                     	ds	4
   556     00DA                     sinf@n:
   557                           
   558                           ; 1 bytes @ 0x3A
   559     00DA                     	ds	1
   560     00DB                     sinf@sign:
   561                           
   562                           ; 1 bytes @ 0x3B
   563     00DB                     	ds	1
   564     00DC                     _sinf$758:
   565                           
   566                           ; 4 bytes @ 0x3C
   567     00DC                     	ds	4
   568     00E0                     sinf@y:
   569                           
   570                           ; 4 bytes @ 0x40
   571     00E0                     	ds	4
   572     00E4                     sinf@ux:
   573                           
   574                           ; 4 bytes @ 0x44
   575     00E4                     	ds	4
   576     00E8                     ?___fldiv:
   577     00E8                     ___fldiv@a:	
   578                           ; 4 bytes @ 0x48
   579                           
   580                           
   581                           ; 4 bytes @ 0x48
   582     00E8                     	ds	4
   583     00EC                     ___fldiv@b:
   584                           
   585                           ; 4 bytes @ 0x4C
   586     00EC                     	ds	4
   587                           
   588                           	psect	cstackCOMMON
   589     0070                     __pcstackCOMMON:
   590     0070                     ?___flge:
   591     0070                     ?_main:	
   592                           ; 1 bit 
   593                           
   594     0070                     ?__Umul8_16:	
   595                           ; 1 bytes @ 0x0
   596                           
   597     0070                     ?___wmul:	
   598                           ; 2 bytes @ 0x0
   599                           
   600     0070                     ?_fabsf:	
   601                           ; 2 bytes @ 0x0
   602                           
   603     0070                     __Umul8_16@multiplicand:	
   604                           ; 4 bytes @ 0x0
   605                           
   606     0070                     ___wmul@multiplier:	
   607                           ; 1 bytes @ 0x0
   608                           
   609     0070                     ___flge@ff1:	
   610                           ; 2 bytes @ 0x0
   611                           
   612     0070                     fabsf@x:	
   613                           ; 4 bytes @ 0x0
   614                           
   615                           
   616                           ; 4 bytes @ 0x0
   617     0070                     	ds	2
   618     0072                     ??__Umul8_16:
   619     0072                     ___wmul@multiplicand:	
   620                           ; 1 bytes @ 0x2
   621                           
   622                           
   623                           ; 2 bytes @ 0x2
   624     0072                     	ds	2
   625     0074                     ??_fabsf:
   626     0074                     ??___wmul:	
   627                           ; 1 bytes @ 0x4
   628                           
   629     0074                     ___wmul@product:	
   630                           ; 1 bytes @ 0x4
   631                           
   632     0074                     __Umul8_16@product:	
   633                           ; 2 bytes @ 0x4
   634                           
   635     0074                     ___flge@ff2:	
   636                           ; 2 bytes @ 0x4
   637                           
   638     0074                     fabsf@u:	
   639                           ; 4 bytes @ 0x4
   640                           
   641                           
   642                           ; 4 bytes @ 0x4
   643     0074                     	ds	2
   644     0076                     ?___xxtofl:
   645     0076                     __Umul8_16@word_mpld:	
   646                           ; 4 bytes @ 0x6
   647                           
   648     0076                     ___xxtofl@val:	
   649                           ; 2 bytes @ 0x6
   650                           
   651                           
   652                           ; 4 bytes @ 0x6
   653     0076                     	ds	2
   654     0078                     ??___flge:
   655     0078                     __Umul8_16@multiplier:	
   656                           ; 1 bytes @ 0x8
   657                           
   658                           
   659                           ; 1 bytes @ 0x8
   660     0078                     	ds	2
   661     007A                     ??___xxtofl:
   662                           
   663                           ; 1 bytes @ 0xA
   664     007A                     	ds	4
   665     007E                     ??_sinf:
   666     007E                     ??___sindf:	
   667                           ; 1 bytes @ 0xE
   668                           
   669     007E                     ??___cosdf:	
   670                           ; 1 bytes @ 0xE
   671                           
   672     007E                     ??___flneg:	
   673                           ; 1 bytes @ 0xE
   674                           
   675     007E                     ??___flsub:	
   676                           ; 1 bytes @ 0xE
   677                           
   678                           
   679                           	psect	cstackBANK0
   680     0020                     __pcstackBANK0:	
   681                           ; 1 bytes @ 0xE
   682                           
   683     0020                     ___xxtofl@sign:
   684                           
   685                           ; 1 bytes @ 0x0
   686     0020                     	ds	1
   687     0021                     ___xxtofl@exp:
   688                           
   689                           ; 1 bytes @ 0x1
   690     0021                     	ds	1
   691     0022                     ___xxtofl@arg:
   692                           
   693                           ; 4 bytes @ 0x2
   694     0022                     	ds	4
   695     0026                     ?___flmul:
   696     0026                     ___flmul@b:	
   697                           ; 4 bytes @ 0x6
   698                           
   699                           
   700                           ; 4 bytes @ 0x6
   701     0026                     	ds	4
   702     002A                     ___flmul@a:
   703                           
   704                           ; 4 bytes @ 0xA
   705     002A                     	ds	4
   706     002E                     ??___flmul:
   707                           
   708                           ; 1 bytes @ 0xE
   709     002E                     	ds	5
   710     0033                     ___flmul@sign:
   711                           
   712                           ; 1 bytes @ 0x13
   713     0033                     	ds	1
   714     0034                     ___flmul@grs:
   715                           
   716                           ; 4 bytes @ 0x14
   717     0034                     	ds	4
   718     0038                     ___flmul@aexp:
   719                           
   720                           ; 1 bytes @ 0x18
   721     0038                     	ds	1
   722     0039                     ___flmul@bexp:
   723                           
   724                           ; 1 bytes @ 0x19
   725     0039                     	ds	1
   726     003A                     ___flmul@prod:
   727                           
   728                           ; 4 bytes @ 0x1A
   729     003A                     	ds	4
   730     003E                     ___flmul@temp:
   731                           
   732                           ; 2 bytes @ 0x1E
   733     003E                     	ds	2
   734     0040                     ?___fladd:
   735     0040                     ___fladd@b:	
   736                           ; 4 bytes @ 0x20
   737                           
   738                           
   739                           ; 4 bytes @ 0x20
   740     0040                     	ds	4
   741     0044                     ___fladd@a:
   742                           
   743                           ; 4 bytes @ 0x24
   744     0044                     	ds	4
   745     0048                     ??___fladd:
   746                           
   747                           ; 1 bytes @ 0x28
   748     0048                     	ds	8
   749     0050                     ___fladd@signs:
   750                           
   751                           ; 1 bytes @ 0x30
   752     0050                     	ds	1
   753     0051                     ___fladd@aexp:
   754                           
   755                           ; 1 bytes @ 0x31
   756     0051                     	ds	1
   757     0052                     ___fladd@bexp:
   758                           
   759                           ; 1 bytes @ 0x32
   760     0052                     	ds	1
   761     0053                     ___fladd@grs:
   762                           
   763                           ; 1 bytes @ 0x33
   764     0053                     	ds	1
   765     0054                     ?___sindf:
   766     0054                     ?___cosdf:	
   767                           ; 4 bytes @ 0x34
   768                           
   769     0054                     ?___flsub:	
   770                           ; 4 bytes @ 0x34
   771                           
   772     0054                     ___flsub@a:	
   773                           ; 4 bytes @ 0x34
   774                           
   775     0054                     ___cosdf@x:	
   776                           ; 4 bytes @ 0x34
   777                           
   778     0054                     ___sindf@x:	
   779                           ; 4 bytes @ 0x34
   780                           
   781                           
   782                           ; 4 bytes @ 0x34
   783     0054                     	ds	4
   784     0058                     ___flsub@b:
   785     0058                     ___cosdf@r:	
   786                           ; 4 bytes @ 0x38
   787                           
   788                           
   789                           ; 4 bytes @ 0x38
   790     0058                     	ds	4
   791     005C                     ___cosdf$759:
   792                           
   793                           ; 4 bytes @ 0x3C
   794     005C                     	ds	4
   795     0060                     ___cosdf$760:
   796                           
   797                           ; 4 bytes @ 0x40
   798     0060                     	ds	4
   799     0064                     ___cosdf$761:
   800                           
   801                           ; 4 bytes @ 0x44
   802     0064                     	ds	4
   803     0068                     ___cosdf@w:
   804                           
   805                           ; 4 bytes @ 0x48
   806     0068                     	ds	4
   807     006C                     ___cosdf@z:
   808                           
   809                           ; 4 bytes @ 0x4C
   810     006C                     	ds	4
   811                           
   812                           	psect	maintext
   813     1E66                     __pmaintext:	
   814 ;;
   815 ;;Main: autosize = 0, tempsize = 3, incstack = 0, save=0
   816 ;;
   817 ;; *************** function _main *****************
   818 ;; Defined at:
   819 ;;		line 22 in file "main.c"
   820 ;; Parameters:    Size  Location     Type
   821 ;;		None
   822 ;; Auto vars:     Size  Location     Type
   823 ;;  i               2   62[BANK2 ] int 
   824 ;;  i               2   64[BANK2 ] int 
   825 ;;  sine           50    0[BANK2 ] unsigned char [50]
   826 ;; Return value:  Size  Location     Type
   827 ;;                  1    wreg      void 
   828 ;; Registers used:
   829 ;;		wreg, fsr0l, fsr0h, status,2, status,0, btemp+1, pclath, cstack
   830 ;; Tracked objects:
   831 ;;		On entry : B00/0
   832 ;;		On exit  : 0/0
   833 ;;		Unchanged: 0/0
   834 ;; Data sizes:     COMMON   BANK0   BANK1   BANK3   BANK2
   835 ;;      Params:         0       0       0       0       0
   836 ;;      Locals:         0       0       0       0      66
   837 ;;      Temps:          0       0       0       3       0
   838 ;;      Totals:         0       0       0       3      66
   839 ;;Total ram usage:       69 bytes
   840 ;; Hardware stack levels required when called: 4
   841 ;; This function calls:
   842 ;;		___fladd
   843 ;;		___fldiv
   844 ;;		___flmul
   845 ;;		___fltol
   846 ;;		___wmul
   847 ;;		___xxtofl
   848 ;;		_roundf
   849 ;;		_sinf
   850 ;; This function is called by:
   851 ;;		Startup code after reset
   852 ;; This function uses a non-reentrant model
   853 ;;
   854                           
   855     1E66                     _main:	
   856                           ;psect for function _main
   857                           
   858     1E66                     l2353:	
   859                           ;incstack = 0
   860                           ; Regs used in _main: [wreg-fsr0h+status,2+status,0+btemp+1+pclath+cstack]
   861                           
   862                           
   863                           ;main.c: 23:     TRISB = 0x00;
   864     1E66  1683               	bsf	3,5	;RP0=1, select bank1
   865     1E67  1303               	bcf	3,6	;RP1=0, select bank1
   866     1E68  0186               	clrf	6	;volatile
   867                           
   868                           ;main.c: 24:     PORTB = 0x00;
   869     1E69  1283               	bcf	3,5	;RP0=0, select bank0
   870     1E6A  1303               	bcf	3,6	;RP1=0, select bank0
   871     1E6B  0186               	clrf	6	;volatile
   872                           
   873                           ;main.c: 25:     uint8_t sine[50];;main.c: 26:     for(int i=0;i<50;i++){
   874     1E6C  1283               	bcf	3,5	;RP0=0, select bank2
   875     1E6D  1703               	bsf	3,6	;RP1=1, select bank2
   876     1E6E  01D0               	clrf	main@i^(0+256)
   877     1E6F  01D1               	clrf	(main@i+1)^(0+256)
   878     1E70                     l2359:
   879                           
   880                           ;main.c: 27:         sine[i]=roundf((((sinf((360/50)*i*(3.141592/180))+1)/2)*255));
   881     1E70  3007               	movlw	7
   882     1E71  00F2               	movwf	___wmul@multiplicand
   883     1E72  3000               	movlw	0
   884     1E73  00F3               	movwf	___wmul@multiplicand+1
   885     1E74  1283               	bcf	3,5	;RP0=0, select bank2
   886     1E75  1703               	bsf	3,6	;RP1=1, select bank2
   887     1E76  0851               	movf	(main@i+1)^(0+256),w
   888     1E77  00F1               	movwf	___wmul@multiplier+1
   889     1E78  0850               	movf	main@i^(0+256),w
   890     1E79  00F0               	movwf	___wmul@multiplier
   891     1E7A  160A  158A  250F  160A  158A  	fcall	___wmul
   892     1E7F  0870               	movf	?___wmul,w
   893     1E80  00F6               	movwf	___xxtofl@val
   894     1E81  0871               	movf	?___wmul+1,w
   895     1E82  00F7               	movwf	___xxtofl@val+1
   896     1E83  3000               	movlw	0
   897     1E84  1BF7               	btfsc	___xxtofl@val+1,7
   898     1E85  30FF               	movlw	255
   899     1E86  00F8               	movwf	___xxtofl@val+2
   900     1E87  00F9               	movwf	___xxtofl@val+3
   901     1E88  3001               	movlw	1
   902     1E89  160A  158A  25AC  160A  158A  	fcall	___xxtofl
   903     1E8E  0879               	movf	?___xxtofl+3,w
   904     1E8F  1283               	bcf	3,5	;RP0=0, select bank0
   905     1E90  1303               	bcf	3,6	;RP1=0, select bank0
   906     1E91  00AD               	movwf	___flmul@a+3
   907     1E92  0878               	movf	?___xxtofl+2,w
   908     1E93  00AC               	movwf	___flmul@a+2
   909     1E94  0877               	movf	?___xxtofl+1,w
   910     1E95  00AB               	movwf	___flmul@a+1
   911     1E96  0876               	movf	?___xxtofl,w
   912     1E97  00AA               	movwf	___flmul@a
   913     1E98  303C               	movlw	60
   914     1E99  00A9               	movwf	___flmul@b+3
   915     1E9A  308E               	movlw	142
   916     1E9B  00A8               	movwf	___flmul@b+2
   917     1E9C  30FA               	movlw	250
   918     1E9D  00A7               	movwf	___flmul@b+1
   919     1E9E  3033               	movlw	51
   920     1E9F  00A6               	movwf	___flmul@b
   921     1EA0  120A  158A  2173  160A  158A  	fcall	___flmul
   922     1EA5  1283               	bcf	3,5	;RP0=0, select bank0
   923     1EA6  1303               	bcf	3,6	;RP1=0, select bank0
   924     1EA7  0829               	movf	?___flmul+3,w
   925     1EA8  1283               	bcf	3,5	;RP0=0, select bank2
   926     1EA9  1703               	bsf	3,6	;RP1=1, select bank2
   927     1EAA  00C5               	movwf	(_main$753+3)^(0+256)
   928     1EAB  1283               	bcf	3,5	;RP0=0, select bank0
   929     1EAC  1303               	bcf	3,6	;RP1=0, select bank0
   930     1EAD  0828               	movf	?___flmul+2,w
   931     1EAE  1283               	bcf	3,5	;RP0=0, select bank2
   932     1EAF  1703               	bsf	3,6	;RP1=1, select bank2
   933     1EB0  00C4               	movwf	(_main$753+2)^(0+256)
   934     1EB1  1283               	bcf	3,5	;RP0=0, select bank0
   935     1EB2  1303               	bcf	3,6	;RP1=0, select bank0
   936     1EB3  0827               	movf	?___flmul+1,w
   937     1EB4  1283               	bcf	3,5	;RP0=0, select bank2
   938     1EB5  1703               	bsf	3,6	;RP1=1, select bank2
   939     1EB6  00C3               	movwf	(_main$753+1)^(0+256)
   940     1EB7  1283               	bcf	3,5	;RP0=0, select bank0
   941     1EB8  1303               	bcf	3,6	;RP1=0, select bank0
   942     1EB9  0826               	movf	?___flmul,w
   943     1EBA  1283               	bcf	3,5	;RP0=0, select bank2
   944     1EBB  1703               	bsf	3,6	;RP1=1, select bank2
   945     1EBC  00C2               	movwf	_main$753^(0+256)
   946     1EBD                     l2361:
   947                           
   948                           ;main.c: 27:         sine[i]=roundf((((sinf((360/50)*i*(3.141592/180))+1)/2)*255));
   949     1EBD  0845               	movf	(_main$753+3)^(0+256),w
   950     1EBE  1683               	bsf	3,5	;RP0=1, select bank1
   951     1EBF  1303               	bcf	3,6	;RP1=0, select bank1
   952     1EC0  00D1               	movwf	(sinf@x+3)^(0+128)
   953     1EC1  1283               	bcf	3,5	;RP0=0, select bank2
   954     1EC2  1703               	bsf	3,6	;RP1=1, select bank2
   955     1EC3  0844               	movf	(_main$753+2)^(0+256),w
   956     1EC4  1683               	bsf	3,5	;RP0=1, select bank1
   957     1EC5  1303               	bcf	3,6	;RP1=0, select bank1
   958     1EC6  00D0               	movwf	(sinf@x+2)^(0+128)
   959     1EC7  1283               	bcf	3,5	;RP0=0, select bank2
   960     1EC8  1703               	bsf	3,6	;RP1=1, select bank2
   961     1EC9  0843               	movf	(_main$753+1)^(0+256),w
   962     1ECA  1683               	bsf	3,5	;RP0=1, select bank1
   963     1ECB  1303               	bcf	3,6	;RP1=0, select bank1
   964     1ECC  00CF               	movwf	(sinf@x+1)^(0+128)
   965     1ECD  1283               	bcf	3,5	;RP0=0, select bank2
   966     1ECE  1703               	bsf	3,6	;RP1=1, select bank2
   967     1ECF  0842               	movf	_main$753^(0+256),w
   968     1ED0  1683               	bsf	3,5	;RP0=1, select bank1
   969     1ED1  1303               	bcf	3,6	;RP1=0, select bank1
   970     1ED2  00CE               	movwf	sinf@x^(0+128)
   971     1ED3  120A  118A  2294  160A  158A  	fcall	_sinf
   972     1ED8  1683               	bsf	3,5	;RP0=1, select bank1
   973     1ED9  1303               	bcf	3,6	;RP1=0, select bank1
   974     1EDA  0851               	movf	(?_sinf+3)^(0+128),w
   975     1EDB  1283               	bcf	3,5	;RP0=0, select bank2
   976     1EDC  1703               	bsf	3,6	;RP1=1, select bank2
   977     1EDD  00C9               	movwf	(_main$754+3)^(0+256)
   978     1EDE  1683               	bsf	3,5	;RP0=1, select bank1
   979     1EDF  1303               	bcf	3,6	;RP1=0, select bank1
   980     1EE0  0850               	movf	(?_sinf+2)^(0+128),w
   981     1EE1  1283               	bcf	3,5	;RP0=0, select bank2
   982     1EE2  1703               	bsf	3,6	;RP1=1, select bank2
   983     1EE3  00C8               	movwf	(_main$754+2)^(0+256)
   984     1EE4  1683               	bsf	3,5	;RP0=1, select bank1
   985     1EE5  1303               	bcf	3,6	;RP1=0, select bank1
   986     1EE6  084F               	movf	(?_sinf+1)^(0+128),w
   987     1EE7  1283               	bcf	3,5	;RP0=0, select bank2
   988     1EE8  1703               	bsf	3,6	;RP1=1, select bank2
   989     1EE9  00C7               	movwf	(_main$754+1)^(0+256)
   990     1EEA  1683               	bsf	3,5	;RP0=1, select bank1
   991     1EEB  1303               	bcf	3,6	;RP1=0, select bank1
   992     1EEC  084E               	movf	?_sinf^(0+128),w
   993     1EED  1283               	bcf	3,5	;RP0=0, select bank2
   994     1EEE  1703               	bsf	3,6	;RP1=1, select bank2
   995     1EEF  00C6               	movwf	_main$754^(0+256)
   996     1EF0                     l2363:
   997                           
   998                           ;main.c: 27:         sine[i]=roundf((((sinf((360/50)*i*(3.141592/180))+1)/2)*255));
   999     1EF0  0849               	movf	(_main$754+3)^(0+256),w
  1000     1EF1  1283               	bcf	3,5	;RP0=0, select bank0
  1001     1EF2  1303               	bcf	3,6	;RP1=0, select bank0
  1002     1EF3  00C7               	movwf	___fladd@a+3
  1003     1EF4  1283               	bcf	3,5	;RP0=0, select bank2
  1004     1EF5  1703               	bsf	3,6	;RP1=1, select bank2
  1005     1EF6  0848               	movf	(_main$754+2)^(0+256),w
  1006     1EF7  1283               	bcf	3,5	;RP0=0, select bank0
  1007     1EF8  1303               	bcf	3,6	;RP1=0, select bank0
  1008     1EF9  00C6               	movwf	___fladd@a+2
  1009     1EFA  1283               	bcf	3,5	;RP0=0, select bank2
  1010     1EFB  1703               	bsf	3,6	;RP1=1, select bank2
  1011     1EFC  0847               	movf	(_main$754+1)^(0+256),w
  1012     1EFD  1283               	bcf	3,5	;RP0=0, select bank0
  1013     1EFE  1303               	bcf	3,6	;RP1=0, select bank0
  1014     1EFF  00C5               	movwf	___fladd@a+1
  1015     1F00  1283               	bcf	3,5	;RP0=0, select bank2
  1016     1F01  1703               	bsf	3,6	;RP1=1, select bank2
  1017     1F02  0846               	movf	_main$754^(0+256),w
  1018     1F03  1283               	bcf	3,5	;RP0=0, select bank0
  1019     1F04  1303               	bcf	3,6	;RP1=0, select bank0
  1020     1F05  00C4               	movwf	___fladd@a
  1021     1F06  303F               	movlw	63
  1022     1F07  00C3               	movwf	___fladd@b+3
  1023     1F08  3080               	movlw	128
  1024     1F09  00C2               	movwf	___fladd@b+2
  1025     1F0A  3000               	movlw	0
  1026     1F0B  00C1               	movwf	___fladd@b+1
  1027     1F0C  3000               	movlw	0
  1028     1F0D  00C0               	movwf	___fladd@b
  1029     1F0E  160A  118A  20AA  160A  158A  	fcall	___fladd
  1030     1F13  1283               	bcf	3,5	;RP0=0, select bank0
  1031     1F14  1303               	bcf	3,6	;RP1=0, select bank0
  1032     1F15  0843               	movf	?___fladd+3,w
  1033     1F16  1683               	bsf	3,5	;RP0=1, select bank1
  1034     1F17  1303               	bcf	3,6	;RP1=0, select bank1
  1035     1F18  00EF               	movwf	(___fldiv@b+3)^(0+128)
  1036     1F19  1283               	bcf	3,5	;RP0=0, select bank0
  1037     1F1A  1303               	bcf	3,6	;RP1=0, select bank0
  1038     1F1B  0842               	movf	?___fladd+2,w
  1039     1F1C  1683               	bsf	3,5	;RP0=1, select bank1
  1040     1F1D  1303               	bcf	3,6	;RP1=0, select bank1
  1041     1F1E  00EE               	movwf	(___fldiv@b+2)^(0+128)
  1042     1F1F  1283               	bcf	3,5	;RP0=0, select bank0
  1043     1F20  1303               	bcf	3,6	;RP1=0, select bank0
  1044     1F21  0841               	movf	?___fladd+1,w
  1045     1F22  1683               	bsf	3,5	;RP0=1, select bank1
  1046     1F23  1303               	bcf	3,6	;RP1=0, select bank1
  1047     1F24  00ED               	movwf	(___fldiv@b+1)^(0+128)
  1048     1F25  1283               	bcf	3,5	;RP0=0, select bank0
  1049     1F26  1303               	bcf	3,6	;RP1=0, select bank0
  1050     1F27  0840               	movf	?___fladd,w
  1051     1F28  1683               	bsf	3,5	;RP0=1, select bank1
  1052     1F29  1303               	bcf	3,6	;RP1=0, select bank1
  1053     1F2A  00EC               	movwf	___fldiv@b^(0+128)
  1054     1F2B  3040               	movlw	64
  1055     1F2C  00EB               	movwf	(___fldiv@a+3)^(0+128)
  1056     1F2D  3000               	movlw	0
  1057     1F2E  00EA               	movwf	(___fldiv@a+2)^(0+128)
  1058     1F2F  3000               	movlw	0
  1059     1F30  00E9               	movwf	(___fldiv@a+1)^(0+128)
  1060     1F31  3000               	movlw	0
  1061     1F32  00E8               	movwf	___fldiv@a^(0+128)
  1062     1F33  160A  118A  257D  160A  158A  	fcall	___fldiv
  1063     1F38  1683               	bsf	3,5	;RP0=1, select bank1
  1064     1F39  1303               	bcf	3,6	;RP1=0, select bank1
  1065     1F3A  086B               	movf	(?___fldiv+3)^(0+128),w
  1066     1F3B  1283               	bcf	3,5	;RP0=0, select bank0
  1067     1F3C  1303               	bcf	3,6	;RP1=0, select bank0
  1068     1F3D  00AD               	movwf	___flmul@a+3
  1069     1F3E  1683               	bsf	3,5	;RP0=1, select bank1
  1070     1F3F  1303               	bcf	3,6	;RP1=0, select bank1
  1071     1F40  086A               	movf	(?___fldiv+2)^(0+128),w
  1072     1F41  1283               	bcf	3,5	;RP0=0, select bank0
  1073     1F42  1303               	bcf	3,6	;RP1=0, select bank0
  1074     1F43  00AC               	movwf	___flmul@a+2
  1075     1F44  1683               	bsf	3,5	;RP0=1, select bank1
  1076     1F45  1303               	bcf	3,6	;RP1=0, select bank1
  1077     1F46  0869               	movf	(?___fldiv+1)^(0+128),w
  1078     1F47  1283               	bcf	3,5	;RP0=0, select bank0
  1079     1F48  1303               	bcf	3,6	;RP1=0, select bank0
  1080     1F49  00AB               	movwf	___flmul@a+1
  1081     1F4A  1683               	bsf	3,5	;RP0=1, select bank1
  1082     1F4B  1303               	bcf	3,6	;RP1=0, select bank1
  1083     1F4C  0868               	movf	?___fldiv^(0+128),w
  1084     1F4D  1283               	bcf	3,5	;RP0=0, select bank0
  1085     1F4E  1303               	bcf	3,6	;RP1=0, select bank0
  1086     1F4F  00AA               	movwf	___flmul@a
  1087     1F50  3043               	movlw	67
  1088     1F51  00A9               	movwf	___flmul@b+3
  1089     1F52  307F               	movlw	127
  1090     1F53  00A8               	movwf	___flmul@b+2
  1091     1F54  3000               	movlw	0
  1092     1F55  00A7               	movwf	___flmul@b+1
  1093     1F56  3000               	movlw	0
  1094     1F57  00A6               	movwf	___flmul@b
  1095     1F58  120A  158A  2173  160A  158A  	fcall	___flmul
  1096     1F5D  1283               	bcf	3,5	;RP0=0, select bank0
  1097     1F5E  1303               	bcf	3,6	;RP1=0, select bank0
  1098     1F5F  0829               	movf	?___flmul+3,w
  1099     1F60  1283               	bcf	3,5	;RP0=0, select bank2
  1100     1F61  1703               	bsf	3,6	;RP1=1, select bank2
  1101     1F62  00CD               	movwf	(_main$755+3)^(0+256)
  1102     1F63  1283               	bcf	3,5	;RP0=0, select bank0
  1103     1F64  1303               	bcf	3,6	;RP1=0, select bank0
  1104     1F65  0828               	movf	?___flmul+2,w
  1105     1F66  1283               	bcf	3,5	;RP0=0, select bank2
  1106     1F67  1703               	bsf	3,6	;RP1=1, select bank2
  1107     1F68  00CC               	movwf	(_main$755+2)^(0+256)
  1108     1F69  1283               	bcf	3,5	;RP0=0, select bank0
  1109     1F6A  1303               	bcf	3,6	;RP1=0, select bank0
  1110     1F6B  0827               	movf	?___flmul+1,w
  1111     1F6C  1283               	bcf	3,5	;RP0=0, select bank2
  1112     1F6D  1703               	bsf	3,6	;RP1=1, select bank2
  1113     1F6E  00CB               	movwf	(_main$755+1)^(0+256)
  1114     1F6F  1283               	bcf	3,5	;RP0=0, select bank0
  1115     1F70  1303               	bcf	3,6	;RP1=0, select bank0
  1116     1F71  0826               	movf	?___flmul,w
  1117     1F72  1283               	bcf	3,5	;RP0=0, select bank2
  1118     1F73  1703               	bsf	3,6	;RP1=1, select bank2
  1119     1F74  00CA               	movwf	_main$755^(0+256)
  1120                           
  1121                           ;main.c: 27:         sine[i]=roundf((((sinf((360/50)*i*(3.141592/180))+1)/2)*255));
  1122     1F75  0850               	movf	main@i^(0+256),w
  1123     1F76  3E10               	addlw	(low (main@sine| (0+256)))& (0+255)
  1124     1F77  0084               	movwf	4
  1125     1F78  084D               	movf	(_main$755+3)^(0+256),w
  1126     1F79  1683               	bsf	3,5	;RP0=1, select bank3
  1127     1F7A  1703               	bsf	3,6	;RP1=1, select bank3
  1128     1F7B  00A5               	movwf	(roundf@x+3)^(0+384)
  1129     1F7C  1283               	bcf	3,5	;RP0=0, select bank2
  1130     1F7D  1703               	bsf	3,6	;RP1=1, select bank2
  1131     1F7E  084C               	movf	(_main$755+2)^(0+256),w
  1132     1F7F  1683               	bsf	3,5	;RP0=1, select bank3
  1133     1F80  1703               	bsf	3,6	;RP1=1, select bank3
  1134     1F81  00A4               	movwf	(roundf@x+2)^(0+384)
  1135     1F82  1283               	bcf	3,5	;RP0=0, select bank2
  1136     1F83  1703               	bsf	3,6	;RP1=1, select bank2
  1137     1F84  084B               	movf	(_main$755+1)^(0+256),w
  1138     1F85  1683               	bsf	3,5	;RP0=1, select bank3
  1139     1F86  1703               	bsf	3,6	;RP1=1, select bank3
  1140     1F87  00A3               	movwf	(roundf@x+1)^(0+384)
  1141     1F88  1283               	bcf	3,5	;RP0=0, select bank2
  1142     1F89  1703               	bsf	3,6	;RP1=1, select bank2
  1143     1F8A  084A               	movf	_main$755^(0+256),w
  1144     1F8B  1683               	bsf	3,5	;RP0=1, select bank3
  1145     1F8C  1703               	bsf	3,6	;RP1=1, select bank3
  1146     1F8D  00A2               	movwf	roundf@x^(0+384)
  1147     1F8E  120A  118A  2011  160A  158A  	fcall	_roundf
  1148     1F93  1683               	bsf	3,5	;RP0=1, select bank3
  1149     1F94  1703               	bsf	3,6	;RP1=1, select bank3
  1150     1F95  0825               	movf	(?_roundf+3)^(0+384),w
  1151     1F96  1683               	bsf	3,5	;RP0=1, select bank1
  1152     1F97  1303               	bcf	3,6	;RP1=0, select bank1
  1153     1F98  00A7               	movwf	(___fltol@f1+3)^(0+128)
  1154     1F99  1683               	bsf	3,5	;RP0=1, select bank3
  1155     1F9A  1703               	bsf	3,6	;RP1=1, select bank3
  1156     1F9B  0824               	movf	(?_roundf+2)^(0+384),w
  1157     1F9C  1683               	bsf	3,5	;RP0=1, select bank1
  1158     1F9D  1303               	bcf	3,6	;RP1=0, select bank1
  1159     1F9E  00A6               	movwf	(___fltol@f1+2)^(0+128)
  1160     1F9F  1683               	bsf	3,5	;RP0=1, select bank3
  1161     1FA0  1703               	bsf	3,6	;RP1=1, select bank3
  1162     1FA1  0823               	movf	(?_roundf+1)^(0+384),w
  1163     1FA2  1683               	bsf	3,5	;RP0=1, select bank1
  1164     1FA3  1303               	bcf	3,6	;RP1=0, select bank1
  1165     1FA4  00A5               	movwf	(___fltol@f1+1)^(0+128)
  1166     1FA5  1683               	bsf	3,5	;RP0=1, select bank3
  1167     1FA6  1703               	bsf	3,6	;RP1=1, select bank3
  1168     1FA7  0822               	movf	?_roundf^(0+384),w
  1169     1FA8  1683               	bsf	3,5	;RP0=1, select bank1
  1170     1FA9  1303               	bcf	3,6	;RP1=0, select bank1
  1171     1FAA  00A4               	movwf	___fltol@f1^(0+128)
  1172     1FAB  160A  158A  2534  160A  158A  	fcall	___fltol
  1173     1FB0  1683               	bsf	3,5	;RP0=1, select bank1
  1174     1FB1  1303               	bcf	3,6	;RP1=0, select bank1
  1175     1FB2  0824               	movf	?___fltol^(0+128),w
  1176     1FB3  1783               	bsf	3,7	;select IRP bank2
  1177     1FB4  0080               	movwf	0
  1178     1FB5                     l2365:
  1179                           
  1180                           ;main.c: 28:     }
  1181     1FB5  3001               	movlw	1
  1182     1FB6  1283               	bcf	3,5	;RP0=0, select bank2
  1183     1FB7  1703               	bsf	3,6	;RP1=1, select bank2
  1184     1FB8  07D0               	addwf	main@i^(0+256),f
  1185     1FB9  1803               	skipnc
  1186     1FBA  0AD1               	incf	(main@i+1)^(0+256),f
  1187     1FBB  3000               	movlw	0
  1188     1FBC  07D1               	addwf	(main@i+1)^(0+256),f
  1189     1FBD                     l2367:
  1190     1FBD  0851               	movf	(main@i+1)^(0+256),w
  1191     1FBE  3A80               	xorlw	128
  1192     1FBF  00FF               	movwf	btemp+1
  1193     1FC0  3080               	movlw	128
  1194     1FC1  027F               	subwf	btemp+1,w
  1195     1FC2  1D03               	skipz
  1196     1FC3  2FC6               	goto	u3605
  1197     1FC4  3032               	movlw	50
  1198     1FC5  0250               	subwf	main@i^(0+256),w
  1199     1FC6                     u3605:
  1200     1FC6  1C03               	skipc
  1201     1FC7  2FC9               	goto	u3601
  1202     1FC8  2FCA               	goto	u3600
  1203     1FC9                     u3601:
  1204     1FC9  2E70               	goto	l2359
  1205     1FCA                     u3600:
  1206     1FCA                     l2369:
  1207                           
  1208                           ;main.c: 30:     for(int i=0;i<50;i++){
  1209     1FCA  1283               	bcf	3,5	;RP0=0, select bank2
  1210     1FCB  1703               	bsf	3,6	;RP1=1, select bank2
  1211     1FCC  01CE               	clrf	main@i_47^(0+256)
  1212     1FCD  01CF               	clrf	(main@i_47+1)^(0+256)
  1213     1FCE                     l2375:
  1214                           
  1215                           ;main.c: 31:         PORTB=sine[i];
  1216     1FCE  1283               	bcf	3,5	;RP0=0, select bank2
  1217     1FCF  1703               	bsf	3,6	;RP1=1, select bank2
  1218     1FD0  084E               	movf	main@i_47^(0+256),w
  1219     1FD1  3E10               	addlw	(low (main@sine| (0+256)))& (0+255)
  1220     1FD2  0084               	movwf	4
  1221     1FD3  1783               	bsf	3,7	;select IRP bank2
  1222     1FD4  0800               	movf	0,w
  1223     1FD5  1283               	bcf	3,5	;RP0=0, select bank0
  1224     1FD6  1303               	bcf	3,6	;RP1=0, select bank0
  1225     1FD7  0086               	movwf	6	;volatile
  1226     1FD8                     l2377:
  1227                           
  1228                           ;main.c: 32:         _delay((unsigned long)((200)*(4000000/4000.0)));
  1229     1FD8  3002               	movlw	2
  1230     1FD9  1683               	bsf	3,5	;RP0=1, select bank3
  1231     1FDA  1703               	bsf	3,6	;RP1=1, select bank3
  1232     1FDB  00C3               	movwf	(??_main^(0+384)+2)
  1233     1FDC  3004               	movlw	4
  1234     1FDD  00C2               	movwf	(??_main^(0+384)+1)
  1235     1FDE  30B9               	movlw	185
  1236     1FDF  00C1               	movwf	??_main^(0+384)
  1237     1FE0                     u3627:
  1238     1FE0  0BC1               	decfsz	??_main^(0+384),f
  1239     1FE1  2FE0               	goto	u3627
  1240     1FE2  0BC2               	decfsz	(??_main^(0+384)+1),f
  1241     1FE3  2FE0               	goto	u3627
  1242     1FE4  0BC3               	decfsz	(??_main^(0+384)+2),f
  1243     1FE5  2FE0               	goto	u3627
  1244     1FE6  2FE7               	nop2
  1245     1FE7                     l2379:
  1246                           
  1247                           ;main.c: 33:     }
  1248     1FE7  3001               	movlw	1
  1249     1FE8  1283               	bcf	3,5	;RP0=0, select bank2
  1250     1FE9  1703               	bsf	3,6	;RP1=1, select bank2
  1251     1FEA  07CE               	addwf	main@i_47^(0+256),f
  1252     1FEB  1803               	skipnc
  1253     1FEC  0ACF               	incf	(main@i_47+1)^(0+256),f
  1254     1FED  3000               	movlw	0
  1255     1FEE  07CF               	addwf	(main@i_47+1)^(0+256),f
  1256     1FEF                     l2381:
  1257     1FEF  084F               	movf	(main@i_47+1)^(0+256),w
  1258     1FF0  3A80               	xorlw	128
  1259     1FF1  00FF               	movwf	btemp+1
  1260     1FF2  3080               	movlw	128
  1261     1FF3  027F               	subwf	btemp+1,w
  1262     1FF4  1D03               	skipz
  1263     1FF5  2FF8               	goto	u3615
  1264     1FF6  3032               	movlw	50
  1265     1FF7  024E               	subwf	main@i_47^(0+256),w
  1266     1FF8                     u3615:
  1267     1FF8  1C03               	skipc
  1268     1FF9  2FFB               	goto	u3611
  1269     1FFA  2FFC               	goto	u3610
  1270     1FFB                     u3611:
  1271     1FFB  2FCE               	goto	l2375
  1272     1FFC                     u3610:
  1273     1FFC  2FCA               	goto	l2369
  1274     1FFD  120A  118A  2800   	ljmp	start
  1275     2000                     __end_of_main:
  1276                           
  1277                           	psect	text1
  1278     0294                     __ptext1:	
  1279 ;; *************** function _sinf *****************
  1280 ;; Defined at:
  1281 ;;		line 27 in file "C:\Program Files\Microchip\xc8\v2.46\pic\sources\c99\common\sinf.c"
  1282 ;; Parameters:    Size  Location     Type
  1283 ;;  x               4   46[BANK1 ] float 
  1284 ;; Auto vars:     Size  Location     Type
  1285 ;;  ux              4   68[BANK1 ] struct .
  1286 ;;  y               4   64[BANK1 ] struct .
  1287 ;;  sign            1   59[BANK1 ] _Bool 
  1288 ;;  n               1   58[BANK1 ] unsigned char 
  1289 ;; Return value:  Size  Location     Type
  1290 ;;                  4   46[BANK1 ] float 
  1291 ;; Registers used:
  1292 ;;		wreg, fsr0l, fsr0h, status,2, status,0, btemp+1, pclath, cstack
  1293 ;; Tracked objects:
  1294 ;;		On entry : 0/0
  1295 ;;		On exit  : 0/0
  1296 ;;		Unchanged: 0/0
  1297 ;; Data sizes:     COMMON   BANK0   BANK1   BANK3   BANK2
  1298 ;;      Params:         0       0       4       0       0
  1299 ;;      Locals:         0       0      22       0       0
  1300 ;;      Temps:          0       0       0       0       0
  1301 ;;      Totals:         0       0      26       0       0
  1302 ;;Total ram usage:       26 bytes
  1303 ;; Hardware stack levels used: 1
  1304 ;; Hardware stack levels required when called: 3
  1305 ;; This function calls:
  1306 ;;		___cosdf
  1307 ;;		___fladd
  1308 ;;		___flneg
  1309 ;;		___rem_pio2f
  1310 ;;		___sindf
  1311 ;; This function is called by:
  1312 ;;		_main
  1313 ;; This function uses a non-reentrant model
  1314 ;;
  1315                           
  1316     0294                     _sinf:	
  1317                           ;psect for function _sinf
  1318                           
  1319     0294                     l2063:	
  1320                           ;incstack = 0
  1321                           ; Regs used in _sinf: [wreg-fsr0h+status,2+status,0+btemp+1+pclath+cstack]
  1322                           
  1323     0294  1683               	bsf	3,5	;RP0=1, select bank1
  1324     0295  1303               	bcf	3,6	;RP1=0, select bank1
  1325     0296  0851               	movf	(sinf@x+3)^(0+128),w
  1326     0297  00E7               	movwf	(sinf@ux+3)^(0+128)
  1327     0298  0850               	movf	(sinf@x+2)^(0+128),w
  1328     0299  00E6               	movwf	(sinf@ux+2)^(0+128)
  1329     029A  084F               	movf	(sinf@x+1)^(0+128),w
  1330     029B  00E5               	movwf	(sinf@ux+1)^(0+128)
  1331     029C  084E               	movf	sinf@x^(0+128),w
  1332     029D  00E4               	movwf	sinf@ux^(0+128)
  1333     029E  1BE7               	btfsc	(sinf@ux+3)^(0+128),7
  1334     029F  2AA1               	goto	u3041
  1335     02A0  2AA3               	goto	u3040
  1336     02A1                     u3041:
  1337     02A1  3001               	movlw	1
  1338     02A2  2AA4               	goto	u3050
  1339     02A3                     u3040:
  1340     02A3  3000               	movlw	0
  1341     02A4                     u3050:
  1342     02A4  00DB               	movwf	sinf@sign^(0+128)
  1343     02A5  30FF               	movlw	255
  1344     02A6  05E4               	andwf	sinf@ux^(0+128),f
  1345     02A7  30FF               	movlw	255
  1346     02A8  05E5               	andwf	(sinf@ux+1)^(0+128),f
  1347     02A9  30FF               	movlw	255
  1348     02AA  05E6               	andwf	(sinf@ux+2)^(0+128),f
  1349     02AB  307F               	movlw	127
  1350     02AC  05E7               	andwf	(sinf@ux+3)^(0+128),f
  1351     02AD                     l2065:
  1352     02AD  303F               	movlw	63
  1353     02AE  0267               	subwf	(sinf@ux+3)^(0+128),w
  1354     02AF  1D03               	skipz
  1355     02B0  2ABD               	goto	u3063
  1356     02B1  3049               	movlw	73
  1357     02B2  0266               	subwf	(sinf@ux+2)^(0+128),w
  1358     02B3  1D03               	skipz
  1359     02B4  2ABD               	goto	u3063
  1360     02B5  300F               	movlw	15
  1361     02B6  0265               	subwf	(sinf@ux+1)^(0+128),w
  1362     02B7  1D03               	skipz
  1363     02B8  2ABD               	goto	u3063
  1364     02B9  30DB               	movlw	219
  1365     02BA  0264               	subwf	sinf@ux^(0+128),w
  1366     02BB  1D03               	skipz
  1367     02BC  2ABD               	goto	u3063
  1368     02BD                     u3063:
  1369     02BD  1803               	btfsc	3,0
  1370     02BE  2AC0               	goto	u3061
  1371     02BF  2AC1               	goto	u3060
  1372     02C0                     u3061:
  1373     02C0  2B0E               	goto	l2075
  1374     02C1                     u3060:
  1375     02C1                     l2067:
  1376     02C1  3039               	movlw	57
  1377     02C2  1683               	bsf	3,5	;RP0=1, select bank1
  1378     02C3  1303               	bcf	3,6	;RP1=0, select bank1
  1379     02C4  0267               	subwf	(sinf@ux+3)^(0+128),w
  1380     02C5  1D03               	skipz
  1381     02C6  2AD3               	goto	u3073
  1382     02C7  3080               	movlw	128
  1383     02C8  0266               	subwf	(sinf@ux+2)^(0+128),w
  1384     02C9  1D03               	skipz
  1385     02CA  2AD3               	goto	u3073
  1386     02CB  3000               	movlw	0
  1387     02CC  0265               	subwf	(sinf@ux+1)^(0+128),w
  1388     02CD  1D03               	skipz
  1389     02CE  2AD3               	goto	u3073
  1390     02CF  3000               	movlw	0
  1391     02D0  0264               	subwf	sinf@ux^(0+128),w
  1392     02D1  1D03               	skipz
  1393     02D2  2AD3               	goto	u3073
  1394     02D3                     u3073:
  1395     02D3  1803               	btfsc	3,0
  1396     02D4  2AD6               	goto	u3071
  1397     02D5  2AD7               	goto	u3070
  1398     02D6                     u3071:
  1399     02D6  2AD8               	goto	l2071
  1400     02D7                     u3070:
  1401     02D7                     l2069:
  1402     02D7  2FED               	goto	l597
  1403     02D8                     l2071:
  1404     02D8  1683               	bsf	3,5	;RP0=1, select bank1
  1405     02D9  1303               	bcf	3,6	;RP1=0, select bank1
  1406     02DA  0851               	movf	(sinf@x+3)^(0+128),w
  1407     02DB  1283               	bcf	3,5	;RP0=0, select bank0
  1408     02DC  1303               	bcf	3,6	;RP1=0, select bank0
  1409     02DD  00D7               	movwf	___sindf@x+3
  1410     02DE  1683               	bsf	3,5	;RP0=1, select bank1
  1411     02DF  1303               	bcf	3,6	;RP1=0, select bank1
  1412     02E0  0850               	movf	(sinf@x+2)^(0+128),w
  1413     02E1  1283               	bcf	3,5	;RP0=0, select bank0
  1414     02E2  1303               	bcf	3,6	;RP1=0, select bank0
  1415     02E3  00D6               	movwf	___sindf@x+2
  1416     02E4  1683               	bsf	3,5	;RP0=1, select bank1
  1417     02E5  1303               	bcf	3,6	;RP1=0, select bank1
  1418     02E6  084F               	movf	(sinf@x+1)^(0+128),w
  1419     02E7  1283               	bcf	3,5	;RP0=0, select bank0
  1420     02E8  1303               	bcf	3,6	;RP1=0, select bank0
  1421     02E9  00D5               	movwf	___sindf@x+1
  1422     02EA  1683               	bsf	3,5	;RP0=1, select bank1
  1423     02EB  1303               	bcf	3,6	;RP1=0, select bank1
  1424     02EC  084E               	movf	sinf@x^(0+128),w
  1425     02ED  1283               	bcf	3,5	;RP0=0, select bank0
  1426     02EE  1303               	bcf	3,6	;RP1=0, select bank0
  1427     02EF  00D4               	movwf	___sindf@x
  1428     02F0  160A  118A  2302  120A  118A  	fcall	___sindf
  1429     02F5  1283               	bcf	3,5	;RP0=0, select bank0
  1430     02F6  1303               	bcf	3,6	;RP1=0, select bank0
  1431     02F7  0857               	movf	?___sindf+3,w
  1432     02F8  1683               	bsf	3,5	;RP0=1, select bank1
  1433     02F9  1303               	bcf	3,6	;RP1=0, select bank1
  1434     02FA  00D1               	movwf	(?_sinf+3)^(0+128)
  1435     02FB  1283               	bcf	3,5	;RP0=0, select bank0
  1436     02FC  1303               	bcf	3,6	;RP1=0, select bank0
  1437     02FD  0856               	movf	?___sindf+2,w
  1438     02FE  1683               	bsf	3,5	;RP0=1, select bank1
  1439     02FF  1303               	bcf	3,6	;RP1=0, select bank1
  1440     0300  00D0               	movwf	(?_sinf+2)^(0+128)
  1441     0301  1283               	bcf	3,5	;RP0=0, select bank0
  1442     0302  1303               	bcf	3,6	;RP1=0, select bank0
  1443     0303  0855               	movf	?___sindf+1,w
  1444     0304  1683               	bsf	3,5	;RP0=1, select bank1
  1445     0305  1303               	bcf	3,6	;RP1=0, select bank1
  1446     0306  00CF               	movwf	(?_sinf+1)^(0+128)
  1447     0307  1283               	bcf	3,5	;RP0=0, select bank0
  1448     0308  1303               	bcf	3,6	;RP1=0, select bank0
  1449     0309  0854               	movf	?___sindf,w
  1450     030A  1683               	bsf	3,5	;RP0=1, select bank1
  1451     030B  1303               	bcf	3,6	;RP1=0, select bank1
  1452     030C  00CE               	movwf	?_sinf^(0+128)
  1453     030D  2FED               	goto	l597
  1454     030E                     l2075:
  1455     030E  3040               	movlw	64
  1456     030F  1683               	bsf	3,5	;RP0=1, select bank1
  1457     0310  1303               	bcf	3,6	;RP1=0, select bank1
  1458     0311  0267               	subwf	(sinf@ux+3)^(0+128),w
  1459     0312  1D03               	skipz
  1460     0313  2B20               	goto	u3083
  1461     0314  307B               	movlw	123
  1462     0315  0266               	subwf	(sinf@ux+2)^(0+128),w
  1463     0316  1D03               	skipz
  1464     0317  2B20               	goto	u3083
  1465     0318  3053               	movlw	83
  1466     0319  0265               	subwf	(sinf@ux+1)^(0+128),w
  1467     031A  1D03               	skipz
  1468     031B  2B20               	goto	u3083
  1469     031C  30D2               	movlw	210
  1470     031D  0264               	subwf	sinf@ux^(0+128),w
  1471     031E  1D03               	skipz
  1472     031F  2B20               	goto	u3083
  1473     0320                     u3083:
  1474     0320  1803               	btfsc	3,0
  1475     0321  2B23               	goto	u3081
  1476     0322  2B24               	goto	u3080
  1477     0323                     u3081:
  1478     0323  2D02               	goto	l2099
  1479     0324                     u3080:
  1480     0324                     l2077:
  1481     0324  3040               	movlw	64
  1482     0325  1683               	bsf	3,5	;RP0=1, select bank1
  1483     0326  1303               	bcf	3,6	;RP1=0, select bank1
  1484     0327  0267               	subwf	(sinf@ux+3)^(0+128),w
  1485     0328  1D03               	skipz
  1486     0329  2B36               	goto	u3093
  1487     032A  3016               	movlw	22
  1488     032B  0266               	subwf	(sinf@ux+2)^(0+128),w
  1489     032C  1D03               	skipz
  1490     032D  2B36               	goto	u3093
  1491     032E  30CB               	movlw	203
  1492     032F  0265               	subwf	(sinf@ux+1)^(0+128),w
  1493     0330  1D03               	skipz
  1494     0331  2B36               	goto	u3093
  1495     0332  30E4               	movlw	228
  1496     0333  0264               	subwf	sinf@ux^(0+128),w
  1497     0334  1D03               	skipz
  1498     0335  2B36               	goto	u3093
  1499     0336                     u3093:
  1500     0336  1803               	btfsc	3,0
  1501     0337  2B39               	goto	u3091
  1502     0338  2B3A               	goto	u3090
  1503     0339                     u3091:
  1504     0339  2C32               	goto	l2091
  1505     033A                     u3090:
  1506     033A                     l2079:
  1507     033A  1683               	bsf	3,5	;RP0=1, select bank1
  1508     033B  1303               	bcf	3,6	;RP1=0, select bank1
  1509     033C  085B               	movf	sinf@sign^(0+128),w
  1510     033D  1903               	btfsc	3,2
  1511     033E  2B40               	goto	u3101
  1512     033F  2B41               	goto	u3100
  1513     0340                     u3101:
  1514     0340  2BBF               	goto	l2087
  1515     0341                     u3100:
  1516     0341                     l2081:
  1517     0341  0851               	movf	(sinf@x+3)^(0+128),w
  1518     0342  1283               	bcf	3,5	;RP0=0, select bank0
  1519     0343  1303               	bcf	3,6	;RP1=0, select bank0
  1520     0344  00C7               	movwf	___fladd@a+3
  1521     0345  1683               	bsf	3,5	;RP0=1, select bank1
  1522     0346  1303               	bcf	3,6	;RP1=0, select bank1
  1523     0347  0850               	movf	(sinf@x+2)^(0+128),w
  1524     0348  1283               	bcf	3,5	;RP0=0, select bank0
  1525     0349  1303               	bcf	3,6	;RP1=0, select bank0
  1526     034A  00C6               	movwf	___fladd@a+2
  1527     034B  1683               	bsf	3,5	;RP0=1, select bank1
  1528     034C  1303               	bcf	3,6	;RP1=0, select bank1
  1529     034D  084F               	movf	(sinf@x+1)^(0+128),w
  1530     034E  1283               	bcf	3,5	;RP0=0, select bank0
  1531     034F  1303               	bcf	3,6	;RP1=0, select bank0
  1532     0350  00C5               	movwf	___fladd@a+1
  1533     0351  1683               	bsf	3,5	;RP0=1, select bank1
  1534     0352  1303               	bcf	3,6	;RP1=0, select bank1
  1535     0353  084E               	movf	sinf@x^(0+128),w
  1536     0354  1283               	bcf	3,5	;RP0=0, select bank0
  1537     0355  1303               	bcf	3,6	;RP1=0, select bank0
  1538     0356  00C4               	movwf	___fladd@a
  1539     0357  303F               	movlw	63
  1540     0358  00C3               	movwf	___fladd@b+3
  1541     0359  30C9               	movlw	201
  1542     035A  00C2               	movwf	___fladd@b+2
  1543     035B  300F               	movlw	15
  1544     035C  00C1               	movwf	___fladd@b+1
  1545     035D  30DB               	movlw	219
  1546     035E  00C0               	movwf	___fladd@b
  1547     035F  160A  118A  20AA  120A  118A  	fcall	___fladd
  1548     0364  1283               	bcf	3,5	;RP0=0, select bank0
  1549     0365  1303               	bcf	3,6	;RP1=0, select bank0
  1550     0366  0843               	movf	?___fladd+3,w
  1551     0367  1683               	bsf	3,5	;RP0=1, select bank1
  1552     0368  1303               	bcf	3,6	;RP1=0, select bank1
  1553     0369  00DF               	movwf	(_sinf$758+3)^(0+128)
  1554     036A  1283               	bcf	3,5	;RP0=0, select bank0
  1555     036B  1303               	bcf	3,6	;RP1=0, select bank0
  1556     036C  0842               	movf	?___fladd+2,w
  1557     036D  1683               	bsf	3,5	;RP0=1, select bank1
  1558     036E  1303               	bcf	3,6	;RP1=0, select bank1
  1559     036F  00DE               	movwf	(_sinf$758+2)^(0+128)
  1560     0370  1283               	bcf	3,5	;RP0=0, select bank0
  1561     0371  1303               	bcf	3,6	;RP1=0, select bank0
  1562     0372  0841               	movf	?___fladd+1,w
  1563     0373  1683               	bsf	3,5	;RP0=1, select bank1
  1564     0374  1303               	bcf	3,6	;RP1=0, select bank1
  1565     0375  00DD               	movwf	(_sinf$758+1)^(0+128)
  1566     0376  1283               	bcf	3,5	;RP0=0, select bank0
  1567     0377  1303               	bcf	3,6	;RP1=0, select bank0
  1568     0378  0840               	movf	?___fladd,w
  1569     0379  1683               	bsf	3,5	;RP0=1, select bank1
  1570     037A  1303               	bcf	3,6	;RP1=0, select bank1
  1571     037B  00DC               	movwf	_sinf$758^(0+128)
  1572     037C  085F               	movf	(_sinf$758+3)^(0+128),w
  1573     037D  1283               	bcf	3,5	;RP0=0, select bank0
  1574     037E  1303               	bcf	3,6	;RP1=0, select bank0
  1575     037F  00D7               	movwf	___cosdf@x+3
  1576     0380  1683               	bsf	3,5	;RP0=1, select bank1
  1577     0381  1303               	bcf	3,6	;RP1=0, select bank1
  1578     0382  085E               	movf	(_sinf$758+2)^(0+128),w
  1579     0383  1283               	bcf	3,5	;RP0=0, select bank0
  1580     0384  1303               	bcf	3,6	;RP1=0, select bank0
  1581     0385  00D6               	movwf	___cosdf@x+2
  1582     0386  1683               	bsf	3,5	;RP0=1, select bank1
  1583     0387  1303               	bcf	3,6	;RP1=0, select bank1
  1584     0388  085D               	movf	(_sinf$758+1)^(0+128),w
  1585     0389  1283               	bcf	3,5	;RP0=0, select bank0
  1586     038A  1303               	bcf	3,6	;RP1=0, select bank0
  1587     038B  00D5               	movwf	___cosdf@x+1
  1588     038C  1683               	bsf	3,5	;RP0=1, select bank1
  1589     038D  1303               	bcf	3,6	;RP1=0, select bank1
  1590     038E  085C               	movf	_sinf$758^(0+128),w
  1591     038F  1283               	bcf	3,5	;RP0=0, select bank0
  1592     0390  1303               	bcf	3,6	;RP1=0, select bank0
  1593     0391  00D4               	movwf	___cosdf@x
  1594     0392  120A  158A  203B  120A  118A  	fcall	___cosdf
  1595     0397  1283               	bcf	3,5	;RP0=0, select bank0
  1596     0398  1303               	bcf	3,6	;RP1=0, select bank0
  1597     0399  0857               	movf	?___cosdf+3,w
  1598     039A  1683               	bsf	3,5	;RP0=1, select bank1
  1599     039B  1303               	bcf	3,6	;RP1=0, select bank1
  1600     039C  00A3               	movwf	(___flneg@f1+3)^(0+128)
  1601     039D  1283               	bcf	3,5	;RP0=0, select bank0
  1602     039E  1303               	bcf	3,6	;RP1=0, select bank0
  1603     039F  0856               	movf	?___cosdf+2,w
  1604     03A0  1683               	bsf	3,5	;RP0=1, select bank1
  1605     03A1  1303               	bcf	3,6	;RP1=0, select bank1
  1606     03A2  00A2               	movwf	(___flneg@f1+2)^(0+128)
  1607     03A3  1283               	bcf	3,5	;RP0=0, select bank0
  1608     03A4  1303               	bcf	3,6	;RP1=0, select bank0
  1609     03A5  0855               	movf	?___cosdf+1,w
  1610     03A6  1683               	bsf	3,5	;RP0=1, select bank1
  1611     03A7  1303               	bcf	3,6	;RP1=0, select bank1
  1612     03A8  00A1               	movwf	(___flneg@f1+1)^(0+128)
  1613     03A9  1283               	bcf	3,5	;RP0=0, select bank0
  1614     03AA  1303               	bcf	3,6	;RP1=0, select bank0
  1615     03AB  0854               	movf	?___cosdf,w
  1616     03AC  1683               	bsf	3,5	;RP0=1, select bank1
  1617     03AD  1303               	bcf	3,6	;RP1=0, select bank1
  1618     03AE  00A0               	movwf	___flneg@f1^(0+128)
  1619     03AF  120A  118A  2004  120A  118A  	fcall	___flneg
  1620     03B4  1683               	bsf	3,5	;RP0=1, select bank1
  1621     03B5  1303               	bcf	3,6	;RP1=0, select bank1
  1622     03B6  0823               	movf	(?___flneg+3)^(0+128),w
  1623     03B7  00D1               	movwf	(?_sinf+3)^(0+128)
  1624     03B8  0822               	movf	(?___flneg+2)^(0+128),w
  1625     03B9  00D0               	movwf	(?_sinf+2)^(0+128)
  1626     03BA  0821               	movf	(?___flneg+1)^(0+128),w
  1627     03BB  00CF               	movwf	(?_sinf+1)^(0+128)
  1628     03BC  0820               	movf	?___flneg^(0+128),w
  1629     03BD  00CE               	movwf	?_sinf^(0+128)
  1630     03BE  2FED               	goto	l597
  1631     03BF                     l2087:
  1632     03BF  30BF               	movlw	191
  1633     03C0  1283               	bcf	3,5	;RP0=0, select bank0
  1634     03C1  1303               	bcf	3,6	;RP1=0, select bank0
  1635     03C2  00C3               	movwf	___fladd@b+3
  1636     03C3  30C9               	movlw	201
  1637     03C4  00C2               	movwf	___fladd@b+2
  1638     03C5  300F               	movlw	15
  1639     03C6  00C1               	movwf	___fladd@b+1
  1640     03C7  30DB               	movlw	219
  1641     03C8  00C0               	movwf	___fladd@b
  1642     03C9  1683               	bsf	3,5	;RP0=1, select bank1
  1643     03CA  1303               	bcf	3,6	;RP1=0, select bank1
  1644     03CB  0851               	movf	(sinf@x+3)^(0+128),w
  1645     03CC  1283               	bcf	3,5	;RP0=0, select bank0
  1646     03CD  1303               	bcf	3,6	;RP1=0, select bank0
  1647     03CE  00C7               	movwf	___fladd@a+3
  1648     03CF  1683               	bsf	3,5	;RP0=1, select bank1
  1649     03D0  1303               	bcf	3,6	;RP1=0, select bank1
  1650     03D1  0850               	movf	(sinf@x+2)^(0+128),w
  1651     03D2  1283               	bcf	3,5	;RP0=0, select bank0
  1652     03D3  1303               	bcf	3,6	;RP1=0, select bank0
  1653     03D4  00C6               	movwf	___fladd@a+2
  1654     03D5  1683               	bsf	3,5	;RP0=1, select bank1
  1655     03D6  1303               	bcf	3,6	;RP1=0, select bank1
  1656     03D7  084F               	movf	(sinf@x+1)^(0+128),w
  1657     03D8  1283               	bcf	3,5	;RP0=0, select bank0
  1658     03D9  1303               	bcf	3,6	;RP1=0, select bank0
  1659     03DA  00C5               	movwf	___fladd@a+1
  1660     03DB  1683               	bsf	3,5	;RP0=1, select bank1
  1661     03DC  1303               	bcf	3,6	;RP1=0, select bank1
  1662     03DD  084E               	movf	sinf@x^(0+128),w
  1663     03DE  1283               	bcf	3,5	;RP0=0, select bank0
  1664     03DF  1303               	bcf	3,6	;RP1=0, select bank0
  1665     03E0  00C4               	movwf	___fladd@a
  1666     03E1  160A  118A  20AA  120A  118A  	fcall	___fladd
  1667     03E6  1283               	bcf	3,5	;RP0=0, select bank0
  1668     03E7  1303               	bcf	3,6	;RP1=0, select bank0
  1669     03E8  0843               	movf	?___fladd+3,w
  1670     03E9  1683               	bsf	3,5	;RP0=1, select bank1
  1671     03EA  1303               	bcf	3,6	;RP1=0, select bank1
  1672     03EB  00DF               	movwf	(_sinf$758+3)^(0+128)
  1673     03EC  1283               	bcf	3,5	;RP0=0, select bank0
  1674     03ED  1303               	bcf	3,6	;RP1=0, select bank0
  1675     03EE  0842               	movf	?___fladd+2,w
  1676     03EF  1683               	bsf	3,5	;RP0=1, select bank1
  1677     03F0  1303               	bcf	3,6	;RP1=0, select bank1
  1678     03F1  00DE               	movwf	(_sinf$758+2)^(0+128)
  1679     03F2  1283               	bcf	3,5	;RP0=0, select bank0
  1680     03F3  1303               	bcf	3,6	;RP1=0, select bank0
  1681     03F4  0841               	movf	?___fladd+1,w
  1682     03F5  1683               	bsf	3,5	;RP0=1, select bank1
  1683     03F6  1303               	bcf	3,6	;RP1=0, select bank1
  1684     03F7  00DD               	movwf	(_sinf$758+1)^(0+128)
  1685     03F8  1283               	bcf	3,5	;RP0=0, select bank0
  1686     03F9  1303               	bcf	3,6	;RP1=0, select bank0
  1687     03FA  0840               	movf	?___fladd,w
  1688     03FB  1683               	bsf	3,5	;RP0=1, select bank1
  1689     03FC  1303               	bcf	3,6	;RP1=0, select bank1
  1690     03FD  00DC               	movwf	_sinf$758^(0+128)
  1691     03FE  085F               	movf	(_sinf$758+3)^(0+128),w
  1692     03FF  1283               	bcf	3,5	;RP0=0, select bank0
  1693     0400  1303               	bcf	3,6	;RP1=0, select bank0
  1694     0401  00D7               	movwf	___cosdf@x+3
  1695     0402  1683               	bsf	3,5	;RP0=1, select bank1
  1696     0403  1303               	bcf	3,6	;RP1=0, select bank1
  1697     0404  085E               	movf	(_sinf$758+2)^(0+128),w
  1698     0405  1283               	bcf	3,5	;RP0=0, select bank0
  1699     0406  1303               	bcf	3,6	;RP1=0, select bank0
  1700     0407  00D6               	movwf	___cosdf@x+2
  1701     0408  1683               	bsf	3,5	;RP0=1, select bank1
  1702     0409  1303               	bcf	3,6	;RP1=0, select bank1
  1703     040A  085D               	movf	(_sinf$758+1)^(0+128),w
  1704     040B  1283               	bcf	3,5	;RP0=0, select bank0
  1705     040C  1303               	bcf	3,6	;RP1=0, select bank0
  1706     040D  00D5               	movwf	___cosdf@x+1
  1707     040E  1683               	bsf	3,5	;RP0=1, select bank1
  1708     040F  1303               	bcf	3,6	;RP1=0, select bank1
  1709     0410  085C               	movf	_sinf$758^(0+128),w
  1710     0411  1283               	bcf	3,5	;RP0=0, select bank0
  1711     0412  1303               	bcf	3,6	;RP1=0, select bank0
  1712     0413  00D4               	movwf	___cosdf@x
  1713     0414  120A  158A  203B  120A  118A  	fcall	___cosdf
  1714     0419  1283               	bcf	3,5	;RP0=0, select bank0
  1715     041A  1303               	bcf	3,6	;RP1=0, select bank0
  1716     041B  0857               	movf	?___cosdf+3,w
  1717     041C  1683               	bsf	3,5	;RP0=1, select bank1
  1718     041D  1303               	bcf	3,6	;RP1=0, select bank1
  1719     041E  00D1               	movwf	(?_sinf+3)^(0+128)
  1720     041F  1283               	bcf	3,5	;RP0=0, select bank0
  1721     0420  1303               	bcf	3,6	;RP1=0, select bank0
  1722     0421  0856               	movf	?___cosdf+2,w
  1723     0422  1683               	bsf	3,5	;RP0=1, select bank1
  1724     0423  1303               	bcf	3,6	;RP1=0, select bank1
  1725     0424  00D0               	movwf	(?_sinf+2)^(0+128)
  1726     0425  1283               	bcf	3,5	;RP0=0, select bank0
  1727     0426  1303               	bcf	3,6	;RP1=0, select bank0
  1728     0427  0855               	movf	?___cosdf+1,w
  1729     0428  1683               	bsf	3,5	;RP0=1, select bank1
  1730     0429  1303               	bcf	3,6	;RP1=0, select bank1
  1731     042A  00CF               	movwf	(?_sinf+1)^(0+128)
  1732     042B  1283               	bcf	3,5	;RP0=0, select bank0
  1733     042C  1303               	bcf	3,6	;RP1=0, select bank0
  1734     042D  0854               	movf	?___cosdf,w
  1735     042E  1683               	bsf	3,5	;RP0=1, select bank1
  1736     042F  1303               	bcf	3,6	;RP1=0, select bank1
  1737     0430  00CE               	movwf	?_sinf^(0+128)
  1738     0431  2FED               	goto	l597
  1739     0432                     l2091:
  1740     0432  1683               	bsf	3,5	;RP0=1, select bank1
  1741     0433  1303               	bcf	3,6	;RP1=0, select bank1
  1742     0434  085B               	movf	sinf@sign^(0+128),w
  1743     0435  1D03               	btfss	3,2
  1744     0436  2C38               	goto	u3111
  1745     0437  2C39               	goto	u3110
  1746     0438                     u3111:
  1747     0438  2C84               	goto	l2095
  1748     0439                     u3110:
  1749     0439                     l2093:
  1750     0439  0851               	movf	(sinf@x+3)^(0+128),w
  1751     043A  1283               	bcf	3,5	;RP0=0, select bank0
  1752     043B  1303               	bcf	3,6	;RP1=0, select bank0
  1753     043C  00C7               	movwf	___fladd@a+3
  1754     043D  1683               	bsf	3,5	;RP0=1, select bank1
  1755     043E  1303               	bcf	3,6	;RP1=0, select bank1
  1756     043F  0850               	movf	(sinf@x+2)^(0+128),w
  1757     0440  1283               	bcf	3,5	;RP0=0, select bank0
  1758     0441  1303               	bcf	3,6	;RP1=0, select bank0
  1759     0442  00C6               	movwf	___fladd@a+2
  1760     0443  1683               	bsf	3,5	;RP0=1, select bank1
  1761     0444  1303               	bcf	3,6	;RP1=0, select bank1
  1762     0445  084F               	movf	(sinf@x+1)^(0+128),w
  1763     0446  1283               	bcf	3,5	;RP0=0, select bank0
  1764     0447  1303               	bcf	3,6	;RP1=0, select bank0
  1765     0448  00C5               	movwf	___fladd@a+1
  1766     0449  1683               	bsf	3,5	;RP0=1, select bank1
  1767     044A  1303               	bcf	3,6	;RP1=0, select bank1
  1768     044B  084E               	movf	sinf@x^(0+128),w
  1769     044C  1283               	bcf	3,5	;RP0=0, select bank0
  1770     044D  1303               	bcf	3,6	;RP1=0, select bank0
  1771     044E  00C4               	movwf	___fladd@a
  1772     044F  30C0               	movlw	192
  1773     0450  00C3               	movwf	___fladd@b+3
  1774     0451  3049               	movlw	73
  1775     0452  00C2               	movwf	___fladd@b+2
  1776     0453  300F               	movlw	15
  1777     0454  00C1               	movwf	___fladd@b+1
  1778     0455  30DB               	movlw	219
  1779     0456  00C0               	movwf	___fladd@b
  1780     0457  160A  118A  20AA  120A  118A  	fcall	___fladd
  1781     045C  1283               	bcf	3,5	;RP0=0, select bank0
  1782     045D  1303               	bcf	3,6	;RP1=0, select bank0
  1783     045E  0843               	movf	?___fladd+3,w
  1784     045F  1683               	bsf	3,5	;RP0=1, select bank1
  1785     0460  1303               	bcf	3,6	;RP1=0, select bank1
  1786     0461  00A3               	movwf	(___flneg@f1+3)^(0+128)
  1787     0462  1283               	bcf	3,5	;RP0=0, select bank0
  1788     0463  1303               	bcf	3,6	;RP1=0, select bank0
  1789     0464  0842               	movf	?___fladd+2,w
  1790     0465  1683               	bsf	3,5	;RP0=1, select bank1
  1791     0466  1303               	bcf	3,6	;RP1=0, select bank1
  1792     0467  00A2               	movwf	(___flneg@f1+2)^(0+128)
  1793     0468  1283               	bcf	3,5	;RP0=0, select bank0
  1794     0469  1303               	bcf	3,6	;RP1=0, select bank0
  1795     046A  0841               	movf	?___fladd+1,w
  1796     046B  1683               	bsf	3,5	;RP0=1, select bank1
  1797     046C  1303               	bcf	3,6	;RP1=0, select bank1
  1798     046D  00A1               	movwf	(___flneg@f1+1)^(0+128)
  1799     046E  1283               	bcf	3,5	;RP0=0, select bank0
  1800     046F  1303               	bcf	3,6	;RP1=0, select bank0
  1801     0470  0840               	movf	?___fladd,w
  1802     0471  1683               	bsf	3,5	;RP0=1, select bank1
  1803     0472  1303               	bcf	3,6	;RP1=0, select bank1
  1804     0473  00A0               	movwf	___flneg@f1^(0+128)
  1805     0474  120A  118A  2004  120A  118A  	fcall	___flneg
  1806     0479  1683               	bsf	3,5	;RP0=1, select bank1
  1807     047A  1303               	bcf	3,6	;RP1=0, select bank1
  1808     047B  0823               	movf	(?___flneg+3)^(0+128),w
  1809     047C  00D5               	movwf	(_sinf$536+3)^(0+128)
  1810     047D  0822               	movf	(?___flneg+2)^(0+128),w
  1811     047E  00D4               	movwf	(_sinf$536+2)^(0+128)
  1812     047F  0821               	movf	(?___flneg+1)^(0+128),w
  1813     0480  00D3               	movwf	(_sinf$536+1)^(0+128)
  1814     0481  0820               	movf	?___flneg^(0+128),w
  1815     0482  00D2               	movwf	_sinf$536^(0+128)
  1816     0483  2CCE               	goto	l605
  1817     0484                     l2095:
  1818     0484  0851               	movf	(sinf@x+3)^(0+128),w
  1819     0485  1283               	bcf	3,5	;RP0=0, select bank0
  1820     0486  1303               	bcf	3,6	;RP1=0, select bank0
  1821     0487  00C7               	movwf	___fladd@a+3
  1822     0488  1683               	bsf	3,5	;RP0=1, select bank1
  1823     0489  1303               	bcf	3,6	;RP1=0, select bank1
  1824     048A  0850               	movf	(sinf@x+2)^(0+128),w
  1825     048B  1283               	bcf	3,5	;RP0=0, select bank0
  1826     048C  1303               	bcf	3,6	;RP1=0, select bank0
  1827     048D  00C6               	movwf	___fladd@a+2
  1828     048E  1683               	bsf	3,5	;RP0=1, select bank1
  1829     048F  1303               	bcf	3,6	;RP1=0, select bank1
  1830     0490  084F               	movf	(sinf@x+1)^(0+128),w
  1831     0491  1283               	bcf	3,5	;RP0=0, select bank0
  1832     0492  1303               	bcf	3,6	;RP1=0, select bank0
  1833     0493  00C5               	movwf	___fladd@a+1
  1834     0494  1683               	bsf	3,5	;RP0=1, select bank1
  1835     0495  1303               	bcf	3,6	;RP1=0, select bank1
  1836     0496  084E               	movf	sinf@x^(0+128),w
  1837     0497  1283               	bcf	3,5	;RP0=0, select bank0
  1838     0498  1303               	bcf	3,6	;RP1=0, select bank0
  1839     0499  00C4               	movwf	___fladd@a
  1840     049A  3040               	movlw	64
  1841     049B  00C3               	movwf	___fladd@b+3
  1842     049C  3049               	movlw	73
  1843     049D  00C2               	movwf	___fladd@b+2
  1844     049E  300F               	movlw	15
  1845     049F  00C1               	movwf	___fladd@b+1
  1846     04A0  30DB               	movlw	219
  1847     04A1  00C0               	movwf	___fladd@b
  1848     04A2  160A  118A  20AA  120A  118A  	fcall	___fladd
  1849     04A7  1283               	bcf	3,5	;RP0=0, select bank0
  1850     04A8  1303               	bcf	3,6	;RP1=0, select bank0
  1851     04A9  0843               	movf	?___fladd+3,w
  1852     04AA  1683               	bsf	3,5	;RP0=1, select bank1
  1853     04AB  1303               	bcf	3,6	;RP1=0, select bank1
  1854     04AC  00A3               	movwf	(___flneg@f1+3)^(0+128)
  1855     04AD  1283               	bcf	3,5	;RP0=0, select bank0
  1856     04AE  1303               	bcf	3,6	;RP1=0, select bank0
  1857     04AF  0842               	movf	?___fladd+2,w
  1858     04B0  1683               	bsf	3,5	;RP0=1, select bank1
  1859     04B1  1303               	bcf	3,6	;RP1=0, select bank1
  1860     04B2  00A2               	movwf	(___flneg@f1+2)^(0+128)
  1861     04B3  1283               	bcf	3,5	;RP0=0, select bank0
  1862     04B4  1303               	bcf	3,6	;RP1=0, select bank0
  1863     04B5  0841               	movf	?___fladd+1,w
  1864     04B6  1683               	bsf	3,5	;RP0=1, select bank1
  1865     04B7  1303               	bcf	3,6	;RP1=0, select bank1
  1866     04B8  00A1               	movwf	(___flneg@f1+1)^(0+128)
  1867     04B9  1283               	bcf	3,5	;RP0=0, select bank0
  1868     04BA  1303               	bcf	3,6	;RP1=0, select bank0
  1869     04BB  0840               	movf	?___fladd,w
  1870     04BC  1683               	bsf	3,5	;RP0=1, select bank1
  1871     04BD  1303               	bcf	3,6	;RP1=0, select bank1
  1872     04BE  00A0               	movwf	___flneg@f1^(0+128)
  1873     04BF  120A  118A  2004  120A  118A  	fcall	___flneg
  1874     04C4  1683               	bsf	3,5	;RP0=1, select bank1
  1875     04C5  1303               	bcf	3,6	;RP1=0, select bank1
  1876     04C6  0823               	movf	(?___flneg+3)^(0+128),w
  1877     04C7  00D5               	movwf	(_sinf$536+3)^(0+128)
  1878     04C8  0822               	movf	(?___flneg+2)^(0+128),w
  1879     04C9  00D4               	movwf	(_sinf$536+2)^(0+128)
  1880     04CA  0821               	movf	(?___flneg+1)^(0+128),w
  1881     04CB  00D3               	movwf	(_sinf$536+1)^(0+128)
  1882     04CC  0820               	movf	?___flneg^(0+128),w
  1883     04CD  00D2               	movwf	_sinf$536^(0+128)
  1884     04CE                     l605:
  1885     04CE  0855               	movf	(_sinf$536+3)^(0+128),w
  1886     04CF  1283               	bcf	3,5	;RP0=0, select bank0
  1887     04D0  1303               	bcf	3,6	;RP1=0, select bank0
  1888     04D1  00D7               	movwf	___sindf@x+3
  1889     04D2  1683               	bsf	3,5	;RP0=1, select bank1
  1890     04D3  1303               	bcf	3,6	;RP1=0, select bank1
  1891     04D4  0854               	movf	(_sinf$536+2)^(0+128),w
  1892     04D5  1283               	bcf	3,5	;RP0=0, select bank0
  1893     04D6  1303               	bcf	3,6	;RP1=0, select bank0
  1894     04D7  00D6               	movwf	___sindf@x+2
  1895     04D8  1683               	bsf	3,5	;RP0=1, select bank1
  1896     04D9  1303               	bcf	3,6	;RP1=0, select bank1
  1897     04DA  0853               	movf	(_sinf$536+1)^(0+128),w
  1898     04DB  1283               	bcf	3,5	;RP0=0, select bank0
  1899     04DC  1303               	bcf	3,6	;RP1=0, select bank0
  1900     04DD  00D5               	movwf	___sindf@x+1
  1901     04DE  1683               	bsf	3,5	;RP0=1, select bank1
  1902     04DF  1303               	bcf	3,6	;RP1=0, select bank1
  1903     04E0  0852               	movf	_sinf$536^(0+128),w
  1904     04E1  1283               	bcf	3,5	;RP0=0, select bank0
  1905     04E2  1303               	bcf	3,6	;RP1=0, select bank0
  1906     04E3  00D4               	movwf	___sindf@x
  1907     04E4  160A  118A  2302  120A  118A  	fcall	___sindf
  1908     04E9  1283               	bcf	3,5	;RP0=0, select bank0
  1909     04EA  1303               	bcf	3,6	;RP1=0, select bank0
  1910     04EB  0857               	movf	?___sindf+3,w
  1911     04EC  1683               	bsf	3,5	;RP0=1, select bank1
  1912     04ED  1303               	bcf	3,6	;RP1=0, select bank1
  1913     04EE  00D1               	movwf	(?_sinf+3)^(0+128)
  1914     04EF  1283               	bcf	3,5	;RP0=0, select bank0
  1915     04F0  1303               	bcf	3,6	;RP1=0, select bank0
  1916     04F1  0856               	movf	?___sindf+2,w
  1917     04F2  1683               	bsf	3,5	;RP0=1, select bank1
  1918     04F3  1303               	bcf	3,6	;RP1=0, select bank1
  1919     04F4  00D0               	movwf	(?_sinf+2)^(0+128)
  1920     04F5  1283               	bcf	3,5	;RP0=0, select bank0
  1921     04F6  1303               	bcf	3,6	;RP1=0, select bank0
  1922     04F7  0855               	movf	?___sindf+1,w
  1923     04F8  1683               	bsf	3,5	;RP0=1, select bank1
  1924     04F9  1303               	bcf	3,6	;RP1=0, select bank1
  1925     04FA  00CF               	movwf	(?_sinf+1)^(0+128)
  1926     04FB  1283               	bcf	3,5	;RP0=0, select bank0
  1927     04FC  1303               	bcf	3,6	;RP1=0, select bank0
  1928     04FD  0854               	movf	?___sindf,w
  1929     04FE  1683               	bsf	3,5	;RP0=1, select bank1
  1930     04FF  1303               	bcf	3,6	;RP1=0, select bank1
  1931     0500  00CE               	movwf	?_sinf^(0+128)
  1932     0501  2FED               	goto	l597
  1933     0502                     l2099:
  1934     0502  3040               	movlw	64
  1935     0503  1683               	bsf	3,5	;RP0=1, select bank1
  1936     0504  1303               	bcf	3,6	;RP1=0, select bank1
  1937     0505  0267               	subwf	(sinf@ux+3)^(0+128),w
  1938     0506  1D03               	skipz
  1939     0507  2D14               	goto	u3123
  1940     0508  30E2               	movlw	226
  1941     0509  0266               	subwf	(sinf@ux+2)^(0+128),w
  1942     050A  1D03               	skipz
  1943     050B  2D14               	goto	u3123
  1944     050C  3031               	movlw	49
  1945     050D  0265               	subwf	(sinf@ux+1)^(0+128),w
  1946     050E  1D03               	skipz
  1947     050F  2D14               	goto	u3123
  1948     0510  30D6               	movlw	214
  1949     0511  0264               	subwf	sinf@ux^(0+128),w
  1950     0512  1D03               	skipz
  1951     0513  2D14               	goto	u3123
  1952     0514                     u3123:
  1953     0514  1803               	btfsc	3,0
  1954     0515  2D17               	goto	u3121
  1955     0516  2D18               	goto	u3120
  1956     0517                     u3121:
  1957     0517  2EE0               	goto	l2123
  1958     0518                     u3120:
  1959     0518                     l2101:
  1960     0518  3040               	movlw	64
  1961     0519  1683               	bsf	3,5	;RP0=1, select bank1
  1962     051A  1303               	bcf	3,6	;RP1=0, select bank1
  1963     051B  0267               	subwf	(sinf@ux+3)^(0+128),w
  1964     051C  1D03               	skipz
  1965     051D  2D2A               	goto	u3133
  1966     051E  30AF               	movlw	175
  1967     051F  0266               	subwf	(sinf@ux+2)^(0+128),w
  1968     0520  1D03               	skipz
  1969     0521  2D2A               	goto	u3133
  1970     0522  30ED               	movlw	237
  1971     0523  0265               	subwf	(sinf@ux+1)^(0+128),w
  1972     0524  1D03               	skipz
  1973     0525  2D2A               	goto	u3133
  1974     0526  30E0               	movlw	224
  1975     0527  0264               	subwf	sinf@ux^(0+128),w
  1976     0528  1D03               	skipz
  1977     0529  2D2A               	goto	u3133
  1978     052A                     u3133:
  1979     052A  1803               	btfsc	3,0
  1980     052B  2D2D               	goto	u3131
  1981     052C  2D2E               	goto	u3130
  1982     052D                     u3131:
  1983     052D  2E26               	goto	l2115
  1984     052E                     u3130:
  1985     052E                     l2103:
  1986     052E  1683               	bsf	3,5	;RP0=1, select bank1
  1987     052F  1303               	bcf	3,6	;RP1=0, select bank1
  1988     0530  085B               	movf	sinf@sign^(0+128),w
  1989     0531  1903               	btfsc	3,2
  1990     0532  2D34               	goto	u3141
  1991     0533  2D35               	goto	u3140
  1992     0534                     u3141:
  1993     0534  2DA8               	goto	l2111
  1994     0535                     u3140:
  1995     0535                     l2105:
  1996     0535  3040               	movlw	64
  1997     0536  1283               	bcf	3,5	;RP0=0, select bank0
  1998     0537  1303               	bcf	3,6	;RP1=0, select bank0
  1999     0538  00C3               	movwf	___fladd@b+3
  2000     0539  3096               	movlw	150
  2001     053A  00C2               	movwf	___fladd@b+2
  2002     053B  30CB               	movlw	203
  2003     053C  00C1               	movwf	___fladd@b+1
  2004     053D  30E4               	movlw	228
  2005     053E  00C0               	movwf	___fladd@b
  2006     053F  1683               	bsf	3,5	;RP0=1, select bank1
  2007     0540  1303               	bcf	3,6	;RP1=0, select bank1
  2008     0541  0851               	movf	(sinf@x+3)^(0+128),w
  2009     0542  1283               	bcf	3,5	;RP0=0, select bank0
  2010     0543  1303               	bcf	3,6	;RP1=0, select bank0
  2011     0544  00C7               	movwf	___fladd@a+3
  2012     0545  1683               	bsf	3,5	;RP0=1, select bank1
  2013     0546  1303               	bcf	3,6	;RP1=0, select bank1
  2014     0547  0850               	movf	(sinf@x+2)^(0+128),w
  2015     0548  1283               	bcf	3,5	;RP0=0, select bank0
  2016     0549  1303               	bcf	3,6	;RP1=0, select bank0
  2017     054A  00C6               	movwf	___fladd@a+2
  2018     054B  1683               	bsf	3,5	;RP0=1, select bank1
  2019     054C  1303               	bcf	3,6	;RP1=0, select bank1
  2020     054D  084F               	movf	(sinf@x+1)^(0+128),w
  2021     054E  1283               	bcf	3,5	;RP0=0, select bank0
  2022     054F  1303               	bcf	3,6	;RP1=0, select bank0
  2023     0550  00C5               	movwf	___fladd@a+1
  2024     0551  1683               	bsf	3,5	;RP0=1, select bank1
  2025     0552  1303               	bcf	3,6	;RP1=0, select bank1
  2026     0553  084E               	movf	sinf@x^(0+128),w
  2027     0554  1283               	bcf	3,5	;RP0=0, select bank0
  2028     0555  1303               	bcf	3,6	;RP1=0, select bank0
  2029     0556  00C4               	movwf	___fladd@a
  2030     0557  160A  118A  20AA  120A  118A  	fcall	___fladd
  2031     055C  1283               	bcf	3,5	;RP0=0, select bank0
  2032     055D  1303               	bcf	3,6	;RP1=0, select bank0
  2033     055E  0843               	movf	?___fladd+3,w
  2034     055F  1683               	bsf	3,5	;RP0=1, select bank1
  2035     0560  1303               	bcf	3,6	;RP1=0, select bank1
  2036     0561  00DF               	movwf	(_sinf$758+3)^(0+128)
  2037     0562  1283               	bcf	3,5	;RP0=0, select bank0
  2038     0563  1303               	bcf	3,6	;RP1=0, select bank0
  2039     0564  0842               	movf	?___fladd+2,w
  2040     0565  1683               	bsf	3,5	;RP0=1, select bank1
  2041     0566  1303               	bcf	3,6	;RP1=0, select bank1
  2042     0567  00DE               	movwf	(_sinf$758+2)^(0+128)
  2043     0568  1283               	bcf	3,5	;RP0=0, select bank0
  2044     0569  1303               	bcf	3,6	;RP1=0, select bank0
  2045     056A  0841               	movf	?___fladd+1,w
  2046     056B  1683               	bsf	3,5	;RP0=1, select bank1
  2047     056C  1303               	bcf	3,6	;RP1=0, select bank1
  2048     056D  00DD               	movwf	(_sinf$758+1)^(0+128)
  2049     056E  1283               	bcf	3,5	;RP0=0, select bank0
  2050     056F  1303               	bcf	3,6	;RP1=0, select bank0
  2051     0570  0840               	movf	?___fladd,w
  2052     0571  1683               	bsf	3,5	;RP0=1, select bank1
  2053     0572  1303               	bcf	3,6	;RP1=0, select bank1
  2054     0573  00DC               	movwf	_sinf$758^(0+128)
  2055     0574  085F               	movf	(_sinf$758+3)^(0+128),w
  2056     0575  1283               	bcf	3,5	;RP0=0, select bank0
  2057     0576  1303               	bcf	3,6	;RP1=0, select bank0
  2058     0577  00D7               	movwf	___cosdf@x+3
  2059     0578  1683               	bsf	3,5	;RP0=1, select bank1
  2060     0579  1303               	bcf	3,6	;RP1=0, select bank1
  2061     057A  085E               	movf	(_sinf$758+2)^(0+128),w
  2062     057B  1283               	bcf	3,5	;RP0=0, select bank0
  2063     057C  1303               	bcf	3,6	;RP1=0, select bank0
  2064     057D  00D6               	movwf	___cosdf@x+2
  2065     057E  1683               	bsf	3,5	;RP0=1, select bank1
  2066     057F  1303               	bcf	3,6	;RP1=0, select bank1
  2067     0580  085D               	movf	(_sinf$758+1)^(0+128),w
  2068     0581  1283               	bcf	3,5	;RP0=0, select bank0
  2069     0582  1303               	bcf	3,6	;RP1=0, select bank0
  2070     0583  00D5               	movwf	___cosdf@x+1
  2071     0584  1683               	bsf	3,5	;RP0=1, select bank1
  2072     0585  1303               	bcf	3,6	;RP1=0, select bank1
  2073     0586  085C               	movf	_sinf$758^(0+128),w
  2074     0587  1283               	bcf	3,5	;RP0=0, select bank0
  2075     0588  1303               	bcf	3,6	;RP1=0, select bank0
  2076     0589  00D4               	movwf	___cosdf@x
  2077     058A  120A  158A  203B  120A  118A  	fcall	___cosdf
  2078     058F  1283               	bcf	3,5	;RP0=0, select bank0
  2079     0590  1303               	bcf	3,6	;RP1=0, select bank0
  2080     0591  0857               	movf	?___cosdf+3,w
  2081     0592  1683               	bsf	3,5	;RP0=1, select bank1
  2082     0593  1303               	bcf	3,6	;RP1=0, select bank1
  2083     0594  00D1               	movwf	(?_sinf+3)^(0+128)
  2084     0595  1283               	bcf	3,5	;RP0=0, select bank0
  2085     0596  1303               	bcf	3,6	;RP1=0, select bank0
  2086     0597  0856               	movf	?___cosdf+2,w
  2087     0598  1683               	bsf	3,5	;RP0=1, select bank1
  2088     0599  1303               	bcf	3,6	;RP1=0, select bank1
  2089     059A  00D0               	movwf	(?_sinf+2)^(0+128)
  2090     059B  1283               	bcf	3,5	;RP0=0, select bank0
  2091     059C  1303               	bcf	3,6	;RP1=0, select bank0
  2092     059D  0855               	movf	?___cosdf+1,w
  2093     059E  1683               	bsf	3,5	;RP0=1, select bank1
  2094     059F  1303               	bcf	3,6	;RP1=0, select bank1
  2095     05A0  00CF               	movwf	(?_sinf+1)^(0+128)
  2096     05A1  1283               	bcf	3,5	;RP0=0, select bank0
  2097     05A2  1303               	bcf	3,6	;RP1=0, select bank0
  2098     05A3  0854               	movf	?___cosdf,w
  2099     05A4  1683               	bsf	3,5	;RP0=1, select bank1
  2100     05A5  1303               	bcf	3,6	;RP1=0, select bank1
  2101     05A6  00CE               	movwf	?_sinf^(0+128)
  2102     05A7  2FED               	goto	l597
  2103     05A8                     l2111:
  2104     05A8  0851               	movf	(sinf@x+3)^(0+128),w
  2105     05A9  1283               	bcf	3,5	;RP0=0, select bank0
  2106     05AA  1303               	bcf	3,6	;RP1=0, select bank0
  2107     05AB  00C7               	movwf	___fladd@a+3
  2108     05AC  1683               	bsf	3,5	;RP0=1, select bank1
  2109     05AD  1303               	bcf	3,6	;RP1=0, select bank1
  2110     05AE  0850               	movf	(sinf@x+2)^(0+128),w
  2111     05AF  1283               	bcf	3,5	;RP0=0, select bank0
  2112     05B0  1303               	bcf	3,6	;RP1=0, select bank0
  2113     05B1  00C6               	movwf	___fladd@a+2
  2114     05B2  1683               	bsf	3,5	;RP0=1, select bank1
  2115     05B3  1303               	bcf	3,6	;RP1=0, select bank1
  2116     05B4  084F               	movf	(sinf@x+1)^(0+128),w
  2117     05B5  1283               	bcf	3,5	;RP0=0, select bank0
  2118     05B6  1303               	bcf	3,6	;RP1=0, select bank0
  2119     05B7  00C5               	movwf	___fladd@a+1
  2120     05B8  1683               	bsf	3,5	;RP0=1, select bank1
  2121     05B9  1303               	bcf	3,6	;RP1=0, select bank1
  2122     05BA  084E               	movf	sinf@x^(0+128),w
  2123     05BB  1283               	bcf	3,5	;RP0=0, select bank0
  2124     05BC  1303               	bcf	3,6	;RP1=0, select bank0
  2125     05BD  00C4               	movwf	___fladd@a
  2126     05BE  30C0               	movlw	192
  2127     05BF  00C3               	movwf	___fladd@b+3
  2128     05C0  3096               	movlw	150
  2129     05C1  00C2               	movwf	___fladd@b+2
  2130     05C2  30CB               	movlw	203
  2131     05C3  00C1               	movwf	___fladd@b+1
  2132     05C4  30E4               	movlw	228
  2133     05C5  00C0               	movwf	___fladd@b
  2134     05C6  160A  118A  20AA  120A  118A  	fcall	___fladd
  2135     05CB  1283               	bcf	3,5	;RP0=0, select bank0
  2136     05CC  1303               	bcf	3,6	;RP1=0, select bank0
  2137     05CD  0843               	movf	?___fladd+3,w
  2138     05CE  1683               	bsf	3,5	;RP0=1, select bank1
  2139     05CF  1303               	bcf	3,6	;RP1=0, select bank1
  2140     05D0  00DF               	movwf	(_sinf$758+3)^(0+128)
  2141     05D1  1283               	bcf	3,5	;RP0=0, select bank0
  2142     05D2  1303               	bcf	3,6	;RP1=0, select bank0
  2143     05D3  0842               	movf	?___fladd+2,w
  2144     05D4  1683               	bsf	3,5	;RP0=1, select bank1
  2145     05D5  1303               	bcf	3,6	;RP1=0, select bank1
  2146     05D6  00DE               	movwf	(_sinf$758+2)^(0+128)
  2147     05D7  1283               	bcf	3,5	;RP0=0, select bank0
  2148     05D8  1303               	bcf	3,6	;RP1=0, select bank0
  2149     05D9  0841               	movf	?___fladd+1,w
  2150     05DA  1683               	bsf	3,5	;RP0=1, select bank1
  2151     05DB  1303               	bcf	3,6	;RP1=0, select bank1
  2152     05DC  00DD               	movwf	(_sinf$758+1)^(0+128)
  2153     05DD  1283               	bcf	3,5	;RP0=0, select bank0
  2154     05DE  1303               	bcf	3,6	;RP1=0, select bank0
  2155     05DF  0840               	movf	?___fladd,w
  2156     05E0  1683               	bsf	3,5	;RP0=1, select bank1
  2157     05E1  1303               	bcf	3,6	;RP1=0, select bank1
  2158     05E2  00DC               	movwf	_sinf$758^(0+128)
  2159     05E3  085F               	movf	(_sinf$758+3)^(0+128),w
  2160     05E4  1283               	bcf	3,5	;RP0=0, select bank0
  2161     05E5  1303               	bcf	3,6	;RP1=0, select bank0
  2162     05E6  00D7               	movwf	___cosdf@x+3
  2163     05E7  1683               	bsf	3,5	;RP0=1, select bank1
  2164     05E8  1303               	bcf	3,6	;RP1=0, select bank1
  2165     05E9  085E               	movf	(_sinf$758+2)^(0+128),w
  2166     05EA  1283               	bcf	3,5	;RP0=0, select bank0
  2167     05EB  1303               	bcf	3,6	;RP1=0, select bank0
  2168     05EC  00D6               	movwf	___cosdf@x+2
  2169     05ED  1683               	bsf	3,5	;RP0=1, select bank1
  2170     05EE  1303               	bcf	3,6	;RP1=0, select bank1
  2171     05EF  085D               	movf	(_sinf$758+1)^(0+128),w
  2172     05F0  1283               	bcf	3,5	;RP0=0, select bank0
  2173     05F1  1303               	bcf	3,6	;RP1=0, select bank0
  2174     05F2  00D5               	movwf	___cosdf@x+1
  2175     05F3  1683               	bsf	3,5	;RP0=1, select bank1
  2176     05F4  1303               	bcf	3,6	;RP1=0, select bank1
  2177     05F5  085C               	movf	_sinf$758^(0+128),w
  2178     05F6  1283               	bcf	3,5	;RP0=0, select bank0
  2179     05F7  1303               	bcf	3,6	;RP1=0, select bank0
  2180     05F8  00D4               	movwf	___cosdf@x
  2181     05F9  120A  158A  203B  120A  118A  	fcall	___cosdf
  2182     05FE  1283               	bcf	3,5	;RP0=0, select bank0
  2183     05FF  1303               	bcf	3,6	;RP1=0, select bank0
  2184     0600  0857               	movf	?___cosdf+3,w
  2185     0601  1683               	bsf	3,5	;RP0=1, select bank1
  2186     0602  1303               	bcf	3,6	;RP1=0, select bank1
  2187     0603  00A3               	movwf	(___flneg@f1+3)^(0+128)
  2188     0604  1283               	bcf	3,5	;RP0=0, select bank0
  2189     0605  1303               	bcf	3,6	;RP1=0, select bank0
  2190     0606  0856               	movf	?___cosdf+2,w
  2191     0607  1683               	bsf	3,5	;RP0=1, select bank1
  2192     0608  1303               	bcf	3,6	;RP1=0, select bank1
  2193     0609  00A2               	movwf	(___flneg@f1+2)^(0+128)
  2194     060A  1283               	bcf	3,5	;RP0=0, select bank0
  2195     060B  1303               	bcf	3,6	;RP1=0, select bank0
  2196     060C  0855               	movf	?___cosdf+1,w
  2197     060D  1683               	bsf	3,5	;RP0=1, select bank1
  2198     060E  1303               	bcf	3,6	;RP1=0, select bank1
  2199     060F  00A1               	movwf	(___flneg@f1+1)^(0+128)
  2200     0610  1283               	bcf	3,5	;RP0=0, select bank0
  2201     0611  1303               	bcf	3,6	;RP1=0, select bank0
  2202     0612  0854               	movf	?___cosdf,w
  2203     0613  1683               	bsf	3,5	;RP0=1, select bank1
  2204     0614  1303               	bcf	3,6	;RP1=0, select bank1
  2205     0615  00A0               	movwf	___flneg@f1^(0+128)
  2206     0616  120A  118A  2004  120A  118A  	fcall	___flneg
  2207     061B  1683               	bsf	3,5	;RP0=1, select bank1
  2208     061C  1303               	bcf	3,6	;RP1=0, select bank1
  2209     061D  0823               	movf	(?___flneg+3)^(0+128),w
  2210     061E  00D1               	movwf	(?_sinf+3)^(0+128)
  2211     061F  0822               	movf	(?___flneg+2)^(0+128),w
  2212     0620  00D0               	movwf	(?_sinf+2)^(0+128)
  2213     0621  0821               	movf	(?___flneg+1)^(0+128),w
  2214     0622  00CF               	movwf	(?_sinf+1)^(0+128)
  2215     0623  0820               	movf	?___flneg^(0+128),w
  2216     0624  00CE               	movwf	?_sinf^(0+128)
  2217     0625  2FED               	goto	l597
  2218     0626                     l2115:
  2219     0626  1683               	bsf	3,5	;RP0=1, select bank1
  2220     0627  1303               	bcf	3,6	;RP1=0, select bank1
  2221     0628  085B               	movf	sinf@sign^(0+128),w
  2222     0629  1D03               	btfss	3,2
  2223     062A  2E2C               	goto	u3151
  2224     062B  2E2D               	goto	u3150
  2225     062C                     u3151:
  2226     062C  2E6D               	goto	l2119
  2227     062D                     u3150:
  2228     062D                     l2117:
  2229     062D  30C0               	movlw	192
  2230     062E  1283               	bcf	3,5	;RP0=0, select bank0
  2231     062F  1303               	bcf	3,6	;RP1=0, select bank0
  2232     0630  00C3               	movwf	___fladd@b+3
  2233     0631  30C9               	movlw	201
  2234     0632  00C2               	movwf	___fladd@b+2
  2235     0633  300F               	movlw	15
  2236     0634  00C1               	movwf	___fladd@b+1
  2237     0635  30DB               	movlw	219
  2238     0636  00C0               	movwf	___fladd@b
  2239     0637  1683               	bsf	3,5	;RP0=1, select bank1
  2240     0638  1303               	bcf	3,6	;RP1=0, select bank1
  2241     0639  0851               	movf	(sinf@x+3)^(0+128),w
  2242     063A  1283               	bcf	3,5	;RP0=0, select bank0
  2243     063B  1303               	bcf	3,6	;RP1=0, select bank0
  2244     063C  00C7               	movwf	___fladd@a+3
  2245     063D  1683               	bsf	3,5	;RP0=1, select bank1
  2246     063E  1303               	bcf	3,6	;RP1=0, select bank1
  2247     063F  0850               	movf	(sinf@x+2)^(0+128),w
  2248     0640  1283               	bcf	3,5	;RP0=0, select bank0
  2249     0641  1303               	bcf	3,6	;RP1=0, select bank0
  2250     0642  00C6               	movwf	___fladd@a+2
  2251     0643  1683               	bsf	3,5	;RP0=1, select bank1
  2252     0644  1303               	bcf	3,6	;RP1=0, select bank1
  2253     0645  084F               	movf	(sinf@x+1)^(0+128),w
  2254     0646  1283               	bcf	3,5	;RP0=0, select bank0
  2255     0647  1303               	bcf	3,6	;RP1=0, select bank0
  2256     0648  00C5               	movwf	___fladd@a+1
  2257     0649  1683               	bsf	3,5	;RP0=1, select bank1
  2258     064A  1303               	bcf	3,6	;RP1=0, select bank1
  2259     064B  084E               	movf	sinf@x^(0+128),w
  2260     064C  1283               	bcf	3,5	;RP0=0, select bank0
  2261     064D  1303               	bcf	3,6	;RP1=0, select bank0
  2262     064E  00C4               	movwf	___fladd@a
  2263     064F  160A  118A  20AA  120A  118A  	fcall	___fladd
  2264     0654  1283               	bcf	3,5	;RP0=0, select bank0
  2265     0655  1303               	bcf	3,6	;RP1=0, select bank0
  2266     0656  0843               	movf	?___fladd+3,w
  2267     0657  1683               	bsf	3,5	;RP0=1, select bank1
  2268     0658  1303               	bcf	3,6	;RP1=0, select bank1
  2269     0659  00D9               	movwf	(_sinf$537+3)^(0+128)
  2270     065A  1283               	bcf	3,5	;RP0=0, select bank0
  2271     065B  1303               	bcf	3,6	;RP1=0, select bank0
  2272     065C  0842               	movf	?___fladd+2,w
  2273     065D  1683               	bsf	3,5	;RP0=1, select bank1
  2274     065E  1303               	bcf	3,6	;RP1=0, select bank1
  2275     065F  00D8               	movwf	(_sinf$537+2)^(0+128)
  2276     0660  1283               	bcf	3,5	;RP0=0, select bank0
  2277     0661  1303               	bcf	3,6	;RP1=0, select bank0
  2278     0662  0841               	movf	?___fladd+1,w
  2279     0663  1683               	bsf	3,5	;RP0=1, select bank1
  2280     0664  1303               	bcf	3,6	;RP1=0, select bank1
  2281     0665  00D7               	movwf	(_sinf$537+1)^(0+128)
  2282     0666  1283               	bcf	3,5	;RP0=0, select bank0
  2283     0667  1303               	bcf	3,6	;RP1=0, select bank0
  2284     0668  0840               	movf	?___fladd,w
  2285     0669  1683               	bsf	3,5	;RP0=1, select bank1
  2286     066A  1303               	bcf	3,6	;RP1=0, select bank1
  2287     066B  00D6               	movwf	_sinf$537^(0+128)
  2288     066C  2EAC               	goto	l613
  2289     066D                     l2119:
  2290     066D  3040               	movlw	64
  2291     066E  1283               	bcf	3,5	;RP0=0, select bank0
  2292     066F  1303               	bcf	3,6	;RP1=0, select bank0
  2293     0670  00C3               	movwf	___fladd@b+3
  2294     0671  30C9               	movlw	201
  2295     0672  00C2               	movwf	___fladd@b+2
  2296     0673  300F               	movlw	15
  2297     0674  00C1               	movwf	___fladd@b+1
  2298     0675  30DB               	movlw	219
  2299     0676  00C0               	movwf	___fladd@b
  2300     0677  1683               	bsf	3,5	;RP0=1, select bank1
  2301     0678  1303               	bcf	3,6	;RP1=0, select bank1
  2302     0679  0851               	movf	(sinf@x+3)^(0+128),w
  2303     067A  1283               	bcf	3,5	;RP0=0, select bank0
  2304     067B  1303               	bcf	3,6	;RP1=0, select bank0
  2305     067C  00C7               	movwf	___fladd@a+3
  2306     067D  1683               	bsf	3,5	;RP0=1, select bank1
  2307     067E  1303               	bcf	3,6	;RP1=0, select bank1
  2308     067F  0850               	movf	(sinf@x+2)^(0+128),w
  2309     0680  1283               	bcf	3,5	;RP0=0, select bank0
  2310     0681  1303               	bcf	3,6	;RP1=0, select bank0
  2311     0682  00C6               	movwf	___fladd@a+2
  2312     0683  1683               	bsf	3,5	;RP0=1, select bank1
  2313     0684  1303               	bcf	3,6	;RP1=0, select bank1
  2314     0685  084F               	movf	(sinf@x+1)^(0+128),w
  2315     0686  1283               	bcf	3,5	;RP0=0, select bank0
  2316     0687  1303               	bcf	3,6	;RP1=0, select bank0
  2317     0688  00C5               	movwf	___fladd@a+1
  2318     0689  1683               	bsf	3,5	;RP0=1, select bank1
  2319     068A  1303               	bcf	3,6	;RP1=0, select bank1
  2320     068B  084E               	movf	sinf@x^(0+128),w
  2321     068C  1283               	bcf	3,5	;RP0=0, select bank0
  2322     068D  1303               	bcf	3,6	;RP1=0, select bank0
  2323     068E  00C4               	movwf	___fladd@a
  2324     068F  160A  118A  20AA  120A  118A  	fcall	___fladd
  2325     0694  1283               	bcf	3,5	;RP0=0, select bank0
  2326     0695  1303               	bcf	3,6	;RP1=0, select bank0
  2327     0696  0843               	movf	?___fladd+3,w
  2328     0697  1683               	bsf	3,5	;RP0=1, select bank1
  2329     0698  1303               	bcf	3,6	;RP1=0, select bank1
  2330     0699  00D9               	movwf	(_sinf$537+3)^(0+128)
  2331     069A  1283               	bcf	3,5	;RP0=0, select bank0
  2332     069B  1303               	bcf	3,6	;RP1=0, select bank0
  2333     069C  0842               	movf	?___fladd+2,w
  2334     069D  1683               	bsf	3,5	;RP0=1, select bank1
  2335     069E  1303               	bcf	3,6	;RP1=0, select bank1
  2336     069F  00D8               	movwf	(_sinf$537+2)^(0+128)
  2337     06A0  1283               	bcf	3,5	;RP0=0, select bank0
  2338     06A1  1303               	bcf	3,6	;RP1=0, select bank0
  2339     06A2  0841               	movf	?___fladd+1,w
  2340     06A3  1683               	bsf	3,5	;RP0=1, select bank1
  2341     06A4  1303               	bcf	3,6	;RP1=0, select bank1
  2342     06A5  00D7               	movwf	(_sinf$537+1)^(0+128)
  2343     06A6  1283               	bcf	3,5	;RP0=0, select bank0
  2344     06A7  1303               	bcf	3,6	;RP1=0, select bank0
  2345     06A8  0840               	movf	?___fladd,w
  2346     06A9  1683               	bsf	3,5	;RP0=1, select bank1
  2347     06AA  1303               	bcf	3,6	;RP1=0, select bank1
  2348     06AB  00D6               	movwf	_sinf$537^(0+128)
  2349     06AC                     l613:
  2350     06AC  0859               	movf	(_sinf$537+3)^(0+128),w
  2351     06AD  1283               	bcf	3,5	;RP0=0, select bank0
  2352     06AE  1303               	bcf	3,6	;RP1=0, select bank0
  2353     06AF  00D7               	movwf	___sindf@x+3
  2354     06B0  1683               	bsf	3,5	;RP0=1, select bank1
  2355     06B1  1303               	bcf	3,6	;RP1=0, select bank1
  2356     06B2  0858               	movf	(_sinf$537+2)^(0+128),w
  2357     06B3  1283               	bcf	3,5	;RP0=0, select bank0
  2358     06B4  1303               	bcf	3,6	;RP1=0, select bank0
  2359     06B5  00D6               	movwf	___sindf@x+2
  2360     06B6  1683               	bsf	3,5	;RP0=1, select bank1
  2361     06B7  1303               	bcf	3,6	;RP1=0, select bank1
  2362     06B8  0857               	movf	(_sinf$537+1)^(0+128),w
  2363     06B9  1283               	bcf	3,5	;RP0=0, select bank0
  2364     06BA  1303               	bcf	3,6	;RP1=0, select bank0
  2365     06BB  00D5               	movwf	___sindf@x+1
  2366     06BC  1683               	bsf	3,5	;RP0=1, select bank1
  2367     06BD  1303               	bcf	3,6	;RP1=0, select bank1
  2368     06BE  0856               	movf	_sinf$537^(0+128),w
  2369     06BF  1283               	bcf	3,5	;RP0=0, select bank0
  2370     06C0  1303               	bcf	3,6	;RP1=0, select bank0
  2371     06C1  00D4               	movwf	___sindf@x
  2372     06C2  160A  118A  2302  120A  118A  	fcall	___sindf
  2373     06C7  1283               	bcf	3,5	;RP0=0, select bank0
  2374     06C8  1303               	bcf	3,6	;RP1=0, select bank0
  2375     06C9  0857               	movf	?___sindf+3,w
  2376     06CA  1683               	bsf	3,5	;RP0=1, select bank1
  2377     06CB  1303               	bcf	3,6	;RP1=0, select bank1
  2378     06CC  00D1               	movwf	(?_sinf+3)^(0+128)
  2379     06CD  1283               	bcf	3,5	;RP0=0, select bank0
  2380     06CE  1303               	bcf	3,6	;RP1=0, select bank0
  2381     06CF  0856               	movf	?___sindf+2,w
  2382     06D0  1683               	bsf	3,5	;RP0=1, select bank1
  2383     06D1  1303               	bcf	3,6	;RP1=0, select bank1
  2384     06D2  00D0               	movwf	(?_sinf+2)^(0+128)
  2385     06D3  1283               	bcf	3,5	;RP0=0, select bank0
  2386     06D4  1303               	bcf	3,6	;RP1=0, select bank0
  2387     06D5  0855               	movf	?___sindf+1,w
  2388     06D6  1683               	bsf	3,5	;RP0=1, select bank1
  2389     06D7  1303               	bcf	3,6	;RP1=0, select bank1
  2390     06D8  00CF               	movwf	(?_sinf+1)^(0+128)
  2391     06D9  1283               	bcf	3,5	;RP0=0, select bank0
  2392     06DA  1303               	bcf	3,6	;RP1=0, select bank0
  2393     06DB  0854               	movf	?___sindf,w
  2394     06DC  1683               	bsf	3,5	;RP0=1, select bank1
  2395     06DD  1303               	bcf	3,6	;RP1=0, select bank1
  2396     06DE  00CE               	movwf	?_sinf^(0+128)
  2397     06DF  2FED               	goto	l597
  2398     06E0                     l2123:
  2399     06E0  307F               	movlw	127
  2400     06E1  1683               	bsf	3,5	;RP0=1, select bank1
  2401     06E2  1303               	bcf	3,6	;RP1=0, select bank1
  2402     06E3  0267               	subwf	(sinf@ux+3)^(0+128),w
  2403     06E4  1D03               	skipz
  2404     06E5  2EF2               	goto	u3163
  2405     06E6  3080               	movlw	128
  2406     06E7  0266               	subwf	(sinf@ux+2)^(0+128),w
  2407     06E8  1D03               	skipz
  2408     06E9  2EF2               	goto	u3163
  2409     06EA  3000               	movlw	0
  2410     06EB  0265               	subwf	(sinf@ux+1)^(0+128),w
  2411     06EC  1D03               	skipz
  2412     06ED  2EF2               	goto	u3163
  2413     06EE  3000               	movlw	0
  2414     06EF  0264               	subwf	sinf@ux^(0+128),w
  2415     06F0  1D03               	skipz
  2416     06F1  2EF2               	goto	u3163
  2417     06F2                     u3163:
  2418     06F2  1C03               	btfss	3,0
  2419     06F3  2EF5               	goto	u3161
  2420     06F4  2EF6               	goto	u3160
  2421     06F5                     u3161:
  2422     06F5  2F09               	goto	l2129
  2423     06F6                     u3160:
  2424     06F6                     l2125:
  2425     06F6  30FF               	movlw	255
  2426     06F7  1683               	bsf	3,5	;RP0=1, select bank1
  2427     06F8  1303               	bcf	3,6	;RP1=0, select bank1
  2428     06F9  04E4               	iorwf	sinf@ux^(0+128),f
  2429     06FA  30FF               	movlw	255
  2430     06FB  04E5               	iorwf	(sinf@ux+1)^(0+128),f
  2431     06FC  30FF               	movlw	255
  2432     06FD  04E6               	iorwf	(sinf@ux+2)^(0+128),f
  2433     06FE  3000               	movlw	0
  2434     06FF  04E7               	iorwf	(sinf@ux+3)^(0+128),f
  2435     0700  0867               	movf	(sinf@ux+3)^(0+128),w
  2436     0701  00D1               	movwf	(?_sinf+3)^(0+128)
  2437     0702  0866               	movf	(sinf@ux+2)^(0+128),w
  2438     0703  00D0               	movwf	(?_sinf+2)^(0+128)
  2439     0704  0865               	movf	(sinf@ux+1)^(0+128),w
  2440     0705  00CF               	movwf	(?_sinf+1)^(0+128)
  2441     0706  0864               	movf	sinf@ux^(0+128),w
  2442     0707  00CE               	movwf	?_sinf^(0+128)
  2443     0708  2FED               	goto	l597
  2444     0709                     l2129:
  2445     0709  1683               	bsf	3,5	;RP0=1, select bank1
  2446     070A  1303               	bcf	3,6	;RP1=0, select bank1
  2447     070B  0851               	movf	(sinf@x+3)^(0+128),w
  2448     070C  00B1               	movwf	(___rem_pio2f@x+3)^(0+128)
  2449     070D  0850               	movf	(sinf@x+2)^(0+128),w
  2450     070E  00B0               	movwf	(___rem_pio2f@x+2)^(0+128)
  2451     070F  084F               	movf	(sinf@x+1)^(0+128),w
  2452     0710  00AF               	movwf	(___rem_pio2f@x+1)^(0+128)
  2453     0711  084E               	movf	sinf@x^(0+128),w
  2454     0712  00AE               	movwf	___rem_pio2f@x^(0+128)
  2455     0713  30E0               	movlw	(low (sinf@y| 0))& (0+255)
  2456     0714  00B2               	movwf	___rem_pio2f@y^(0+128)
  2457     0715  120A  158A  24B8  120A  118A  	fcall	___rem_pio2f
  2458     071A  1683               	bsf	3,5	;RP0=1, select bank1
  2459     071B  1303               	bcf	3,6	;RP1=0, select bank1
  2460     071C  082E               	movf	?___rem_pio2f^(0+128),w
  2461     071D  3903               	andlw	3
  2462     071E  00DA               	movwf	sinf@n^(0+128)
  2463     071F  2FE2               	goto	l2147
  2464     0720                     l2131:
  2465     0720  0863               	movf	(sinf@y+3)^(0+128),w
  2466     0721  00A3               	movwf	(___flneg@f1+3)^(0+128)
  2467     0722  0862               	movf	(sinf@y+2)^(0+128),w
  2468     0723  00A2               	movwf	(___flneg@f1+2)^(0+128)
  2469     0724  0861               	movf	(sinf@y+1)^(0+128),w
  2470     0725  00A1               	movwf	(___flneg@f1+1)^(0+128)
  2471     0726  0860               	movf	sinf@y^(0+128),w
  2472     0727  00A0               	movwf	___flneg@f1^(0+128)
  2473     0728  120A  118A  2004  120A  118A  	fcall	___flneg
  2474     072D  1683               	bsf	3,5	;RP0=1, select bank1
  2475     072E  1303               	bcf	3,6	;RP1=0, select bank1
  2476     072F  0823               	movf	(?___flneg+3)^(0+128),w
  2477     0730  00E3               	movwf	(sinf@y+3)^(0+128)
  2478     0731  0822               	movf	(?___flneg+2)^(0+128),w
  2479     0732  00E2               	movwf	(sinf@y+2)^(0+128)
  2480     0733  0821               	movf	(?___flneg+1)^(0+128),w
  2481     0734  00E1               	movwf	(sinf@y+1)^(0+128)
  2482     0735  0820               	movf	?___flneg^(0+128),w
  2483     0736  00E0               	movwf	sinf@y^(0+128)
  2484     0737                     l2133:
  2485     0737  0863               	movf	(sinf@y+3)^(0+128),w
  2486     0738  1283               	bcf	3,5	;RP0=0, select bank0
  2487     0739  1303               	bcf	3,6	;RP1=0, select bank0
  2488     073A  00D7               	movwf	___sindf@x+3
  2489     073B  1683               	bsf	3,5	;RP0=1, select bank1
  2490     073C  1303               	bcf	3,6	;RP1=0, select bank1
  2491     073D  0862               	movf	(sinf@y+2)^(0+128),w
  2492     073E  1283               	bcf	3,5	;RP0=0, select bank0
  2493     073F  1303               	bcf	3,6	;RP1=0, select bank0
  2494     0740  00D6               	movwf	___sindf@x+2
  2495     0741  1683               	bsf	3,5	;RP0=1, select bank1
  2496     0742  1303               	bcf	3,6	;RP1=0, select bank1
  2497     0743  0861               	movf	(sinf@y+1)^(0+128),w
  2498     0744  1283               	bcf	3,5	;RP0=0, select bank0
  2499     0745  1303               	bcf	3,6	;RP1=0, select bank0
  2500     0746  00D5               	movwf	___sindf@x+1
  2501     0747  1683               	bsf	3,5	;RP0=1, select bank1
  2502     0748  1303               	bcf	3,6	;RP1=0, select bank1
  2503     0749  0860               	movf	sinf@y^(0+128),w
  2504     074A  1283               	bcf	3,5	;RP0=0, select bank0
  2505     074B  1303               	bcf	3,6	;RP1=0, select bank0
  2506     074C  00D4               	movwf	___sindf@x
  2507     074D  160A  118A  2302  120A  118A  	fcall	___sindf
  2508     0752  1283               	bcf	3,5	;RP0=0, select bank0
  2509     0753  1303               	bcf	3,6	;RP1=0, select bank0
  2510     0754  0857               	movf	?___sindf+3,w
  2511     0755  1683               	bsf	3,5	;RP0=1, select bank1
  2512     0756  1303               	bcf	3,6	;RP1=0, select bank1
  2513     0757  00D1               	movwf	(?_sinf+3)^(0+128)
  2514     0758  1283               	bcf	3,5	;RP0=0, select bank0
  2515     0759  1303               	bcf	3,6	;RP1=0, select bank0
  2516     075A  0856               	movf	?___sindf+2,w
  2517     075B  1683               	bsf	3,5	;RP0=1, select bank1
  2518     075C  1303               	bcf	3,6	;RP1=0, select bank1
  2519     075D  00D0               	movwf	(?_sinf+2)^(0+128)
  2520     075E  1283               	bcf	3,5	;RP0=0, select bank0
  2521     075F  1303               	bcf	3,6	;RP1=0, select bank0
  2522     0760  0855               	movf	?___sindf+1,w
  2523     0761  1683               	bsf	3,5	;RP0=1, select bank1
  2524     0762  1303               	bcf	3,6	;RP1=0, select bank1
  2525     0763  00CF               	movwf	(?_sinf+1)^(0+128)
  2526     0764  1283               	bcf	3,5	;RP0=0, select bank0
  2527     0765  1303               	bcf	3,6	;RP1=0, select bank0
  2528     0766  0854               	movf	?___sindf,w
  2529     0767  1683               	bsf	3,5	;RP0=1, select bank1
  2530     0768  1303               	bcf	3,6	;RP1=0, select bank1
  2531     0769  00CE               	movwf	?_sinf^(0+128)
  2532     076A  2FED               	goto	l597
  2533     076B                     l2137:
  2534     076B  0863               	movf	(sinf@y+3)^(0+128),w
  2535     076C  1283               	bcf	3,5	;RP0=0, select bank0
  2536     076D  1303               	bcf	3,6	;RP1=0, select bank0
  2537     076E  00D7               	movwf	___cosdf@x+3
  2538     076F  1683               	bsf	3,5	;RP0=1, select bank1
  2539     0770  1303               	bcf	3,6	;RP1=0, select bank1
  2540     0771  0862               	movf	(sinf@y+2)^(0+128),w
  2541     0772  1283               	bcf	3,5	;RP0=0, select bank0
  2542     0773  1303               	bcf	3,6	;RP1=0, select bank0
  2543     0774  00D6               	movwf	___cosdf@x+2
  2544     0775  1683               	bsf	3,5	;RP0=1, select bank1
  2545     0776  1303               	bcf	3,6	;RP1=0, select bank1
  2546     0777  0861               	movf	(sinf@y+1)^(0+128),w
  2547     0778  1283               	bcf	3,5	;RP0=0, select bank0
  2548     0779  1303               	bcf	3,6	;RP1=0, select bank0
  2549     077A  00D5               	movwf	___cosdf@x+1
  2550     077B  1683               	bsf	3,5	;RP0=1, select bank1
  2551     077C  1303               	bcf	3,6	;RP1=0, select bank1
  2552     077D  0860               	movf	sinf@y^(0+128),w
  2553     077E  1283               	bcf	3,5	;RP0=0, select bank0
  2554     077F  1303               	bcf	3,6	;RP1=0, select bank0
  2555     0780  00D4               	movwf	___cosdf@x
  2556     0781  120A  158A  203B  120A  118A  	fcall	___cosdf
  2557     0786  1283               	bcf	3,5	;RP0=0, select bank0
  2558     0787  1303               	bcf	3,6	;RP1=0, select bank0
  2559     0788  0857               	movf	?___cosdf+3,w
  2560     0789  1683               	bsf	3,5	;RP0=1, select bank1
  2561     078A  1303               	bcf	3,6	;RP1=0, select bank1
  2562     078B  00D1               	movwf	(?_sinf+3)^(0+128)
  2563     078C  1283               	bcf	3,5	;RP0=0, select bank0
  2564     078D  1303               	bcf	3,6	;RP1=0, select bank0
  2565     078E  0856               	movf	?___cosdf+2,w
  2566     078F  1683               	bsf	3,5	;RP0=1, select bank1
  2567     0790  1303               	bcf	3,6	;RP1=0, select bank1
  2568     0791  00D0               	movwf	(?_sinf+2)^(0+128)
  2569     0792  1283               	bcf	3,5	;RP0=0, select bank0
  2570     0793  1303               	bcf	3,6	;RP1=0, select bank0
  2571     0794  0855               	movf	?___cosdf+1,w
  2572     0795  1683               	bsf	3,5	;RP0=1, select bank1
  2573     0796  1303               	bcf	3,6	;RP1=0, select bank1
  2574     0797  00CF               	movwf	(?_sinf+1)^(0+128)
  2575     0798  1283               	bcf	3,5	;RP0=0, select bank0
  2576     0799  1303               	bcf	3,6	;RP1=0, select bank0
  2577     079A  0854               	movf	?___cosdf,w
  2578     079B  1683               	bsf	3,5	;RP0=1, select bank1
  2579     079C  1303               	bcf	3,6	;RP1=0, select bank1
  2580     079D  00CE               	movwf	?_sinf^(0+128)
  2581     079E  2FED               	goto	l597
  2582     079F                     l2141:
  2583     079F  0863               	movf	(sinf@y+3)^(0+128),w
  2584     07A0  1283               	bcf	3,5	;RP0=0, select bank0
  2585     07A1  1303               	bcf	3,6	;RP1=0, select bank0
  2586     07A2  00D7               	movwf	___cosdf@x+3
  2587     07A3  1683               	bsf	3,5	;RP0=1, select bank1
  2588     07A4  1303               	bcf	3,6	;RP1=0, select bank1
  2589     07A5  0862               	movf	(sinf@y+2)^(0+128),w
  2590     07A6  1283               	bcf	3,5	;RP0=0, select bank0
  2591     07A7  1303               	bcf	3,6	;RP1=0, select bank0
  2592     07A8  00D6               	movwf	___cosdf@x+2
  2593     07A9  1683               	bsf	3,5	;RP0=1, select bank1
  2594     07AA  1303               	bcf	3,6	;RP1=0, select bank1
  2595     07AB  0861               	movf	(sinf@y+1)^(0+128),w
  2596     07AC  1283               	bcf	3,5	;RP0=0, select bank0
  2597     07AD  1303               	bcf	3,6	;RP1=0, select bank0
  2598     07AE  00D5               	movwf	___cosdf@x+1
  2599     07AF  1683               	bsf	3,5	;RP0=1, select bank1
  2600     07B0  1303               	bcf	3,6	;RP1=0, select bank1
  2601     07B1  0860               	movf	sinf@y^(0+128),w
  2602     07B2  1283               	bcf	3,5	;RP0=0, select bank0
  2603     07B3  1303               	bcf	3,6	;RP1=0, select bank0
  2604     07B4  00D4               	movwf	___cosdf@x
  2605     07B5  120A  158A  203B  120A  118A  	fcall	___cosdf
  2606     07BA  1283               	bcf	3,5	;RP0=0, select bank0
  2607     07BB  1303               	bcf	3,6	;RP1=0, select bank0
  2608     07BC  0857               	movf	?___cosdf+3,w
  2609     07BD  1683               	bsf	3,5	;RP0=1, select bank1
  2610     07BE  1303               	bcf	3,6	;RP1=0, select bank1
  2611     07BF  00A3               	movwf	(___flneg@f1+3)^(0+128)
  2612     07C0  1283               	bcf	3,5	;RP0=0, select bank0
  2613     07C1  1303               	bcf	3,6	;RP1=0, select bank0
  2614     07C2  0856               	movf	?___cosdf+2,w
  2615     07C3  1683               	bsf	3,5	;RP0=1, select bank1
  2616     07C4  1303               	bcf	3,6	;RP1=0, select bank1
  2617     07C5  00A2               	movwf	(___flneg@f1+2)^(0+128)
  2618     07C6  1283               	bcf	3,5	;RP0=0, select bank0
  2619     07C7  1303               	bcf	3,6	;RP1=0, select bank0
  2620     07C8  0855               	movf	?___cosdf+1,w
  2621     07C9  1683               	bsf	3,5	;RP0=1, select bank1
  2622     07CA  1303               	bcf	3,6	;RP1=0, select bank1
  2623     07CB  00A1               	movwf	(___flneg@f1+1)^(0+128)
  2624     07CC  1283               	bcf	3,5	;RP0=0, select bank0
  2625     07CD  1303               	bcf	3,6	;RP1=0, select bank0
  2626     07CE  0854               	movf	?___cosdf,w
  2627     07CF  1683               	bsf	3,5	;RP0=1, select bank1
  2628     07D0  1303               	bcf	3,6	;RP1=0, select bank1
  2629     07D1  00A0               	movwf	___flneg@f1^(0+128)
  2630     07D2  120A  118A  2004  120A  118A  	fcall	___flneg
  2631     07D7  1683               	bsf	3,5	;RP0=1, select bank1
  2632     07D8  1303               	bcf	3,6	;RP1=0, select bank1
  2633     07D9  0823               	movf	(?___flneg+3)^(0+128),w
  2634     07DA  00D1               	movwf	(?_sinf+3)^(0+128)
  2635     07DB  0822               	movf	(?___flneg+2)^(0+128),w
  2636     07DC  00D0               	movwf	(?_sinf+2)^(0+128)
  2637     07DD  0821               	movf	(?___flneg+1)^(0+128),w
  2638     07DE  00CF               	movwf	(?_sinf+1)^(0+128)
  2639     07DF  0820               	movf	?___flneg^(0+128),w
  2640     07E0  00CE               	movwf	?_sinf^(0+128)
  2641     07E1  2FED               	goto	l597
  2642     07E2                     l2147:
  2643     07E2  085A               	movf	sinf@n^(0+128),w
  2644                           
  2645                           ; Switch size 1, requested type "simple"
  2646                           ; Number of cases is 3, Range of values is 0 to 2
  2647                           ; switch strategies available:
  2648                           ; Name         Instructions Cycles
  2649                           ; simple_byte           10     6 (average)
  2650                           ; direct_byte           17     8 (fixed)
  2651                           ; jumptable            260     6 (fixed)
  2652                           ;	Chosen strategy is simple_byte
  2653     07E3  3A00               	xorlw	0	; case 0
  2654     07E4  1903               	skipnz
  2655     07E5  2F37               	goto	l2133
  2656     07E6  3A01               	xorlw	1	; case 1
  2657     07E7  1903               	skipnz
  2658     07E8  2F6B               	goto	l2137
  2659     07E9  3A03               	xorlw	3	; case 2
  2660     07EA  1903               	skipnz
  2661     07EB  2F20               	goto	l2131
  2662     07EC  2F9F               	goto	l2141
  2663     07ED                     l597:
  2664     07ED  0008               	return
  2665     07EE                     __end_of_sinf:
  2666                           
  2667                           	psect	text2
  2668     1302                     __ptext2:	
  2669 ;; *************** function ___sindf *****************
  2670 ;; Defined at:
  2671 ;;		line 26 in file "C:\Program Files\Microchip\xc8\v2.46\pic\sources\c99\common\__sindf.c"
  2672 ;; Parameters:    Size  Location     Type
  2673 ;;  x               4   52[BANK0 ] float 
  2674 ;; Auto vars:     Size  Location     Type
  2675 ;;  z               4   24[BANK1 ] float 
  2676 ;;  s               4   20[BANK1 ] float 
  2677 ;;  w               4    4[BANK1 ] float 
  2678 ;;  r               4    0[BANK1 ] float 
  2679 ;; Return value:  Size  Location     Type
  2680 ;;                  4   52[BANK0 ] float 
  2681 ;; Registers used:
  2682 ;;		wreg, status,2, status,0, btemp+1, pclath, cstack
  2683 ;; Tracked objects:
  2684 ;;		On entry : 0/0
  2685 ;;		On exit  : 0/0
  2686 ;;		Unchanged: 0/0
  2687 ;; Data sizes:     COMMON   BANK0   BANK1   BANK3   BANK2
  2688 ;;      Params:         0       4       0       0       0
  2689 ;;      Locals:         0       0      28       0       0
  2690 ;;      Temps:          0       0       0       0       0
  2691 ;;      Totals:         0       4      28       0       0
  2692 ;;Total ram usage:       32 bytes
  2693 ;; Hardware stack levels used: 1
  2694 ;; Hardware stack levels required when called: 2
  2695 ;; This function calls:
  2696 ;;		___fladd
  2697 ;;		___flmul
  2698 ;; This function is called by:
  2699 ;;		_sinf
  2700 ;; This function uses a non-reentrant model
  2701 ;;
  2702                           
  2703     1302                     ___sindf:	
  2704                           ;psect for function ___sindf
  2705                           
  2706     1302                     l2005:	
  2707                           ;incstack = 0
  2708                           ; Regs used in ___sindf: [wreg+status,2+status,0+btemp+1+pclath+cstack]
  2709                           
  2710     1302  1283               	bcf	3,5	;RP0=0, select bank0
  2711     1303  1303               	bcf	3,6	;RP1=0, select bank0
  2712     1304  0857               	movf	___sindf@x+3,w
  2713     1305  00A9               	movwf	___flmul@b+3
  2714     1306  0856               	movf	___sindf@x+2,w
  2715     1307  00A8               	movwf	___flmul@b+2
  2716     1308  0855               	movf	___sindf@x+1,w
  2717     1309  00A7               	movwf	___flmul@b+1
  2718     130A  0854               	movf	___sindf@x,w
  2719     130B  00A6               	movwf	___flmul@b
  2720     130C  0857               	movf	___sindf@x+3,w
  2721     130D  00AD               	movwf	___flmul@a+3
  2722     130E  0856               	movf	___sindf@x+2,w
  2723     130F  00AC               	movwf	___flmul@a+2
  2724     1310  0855               	movf	___sindf@x+1,w
  2725     1311  00AB               	movwf	___flmul@a+1
  2726     1312  0854               	movf	___sindf@x,w
  2727     1313  00AA               	movwf	___flmul@a
  2728     1314  120A  158A  2173  160A  118A  	fcall	___flmul
  2729     1319  1283               	bcf	3,5	;RP0=0, select bank0
  2730     131A  1303               	bcf	3,6	;RP1=0, select bank0
  2731     131B  0829               	movf	?___flmul+3,w
  2732     131C  1683               	bsf	3,5	;RP0=1, select bank1
  2733     131D  1303               	bcf	3,6	;RP1=0, select bank1
  2734     131E  00BB               	movwf	(___sindf@z+3)^(0+128)
  2735     131F  1283               	bcf	3,5	;RP0=0, select bank0
  2736     1320  1303               	bcf	3,6	;RP1=0, select bank0
  2737     1321  0828               	movf	?___flmul+2,w
  2738     1322  1683               	bsf	3,5	;RP0=1, select bank1
  2739     1323  1303               	bcf	3,6	;RP1=0, select bank1
  2740     1324  00BA               	movwf	(___sindf@z+2)^(0+128)
  2741     1325  1283               	bcf	3,5	;RP0=0, select bank0
  2742     1326  1303               	bcf	3,6	;RP1=0, select bank0
  2743     1327  0827               	movf	?___flmul+1,w
  2744     1328  1683               	bsf	3,5	;RP0=1, select bank1
  2745     1329  1303               	bcf	3,6	;RP1=0, select bank1
  2746     132A  00B9               	movwf	(___sindf@z+1)^(0+128)
  2747     132B  1283               	bcf	3,5	;RP0=0, select bank0
  2748     132C  1303               	bcf	3,6	;RP1=0, select bank0
  2749     132D  0826               	movf	?___flmul,w
  2750     132E  1683               	bsf	3,5	;RP0=1, select bank1
  2751     132F  1303               	bcf	3,6	;RP1=0, select bank1
  2752     1330  00B8               	movwf	___sindf@z^(0+128)
  2753     1331  083B               	movf	(___sindf@z+3)^(0+128),w
  2754     1332  1283               	bcf	3,5	;RP0=0, select bank0
  2755     1333  1303               	bcf	3,6	;RP1=0, select bank0
  2756     1334  00A9               	movwf	___flmul@b+3
  2757     1335  1683               	bsf	3,5	;RP0=1, select bank1
  2758     1336  1303               	bcf	3,6	;RP1=0, select bank1
  2759     1337  083A               	movf	(___sindf@z+2)^(0+128),w
  2760     1338  1283               	bcf	3,5	;RP0=0, select bank0
  2761     1339  1303               	bcf	3,6	;RP1=0, select bank0
  2762     133A  00A8               	movwf	___flmul@b+2
  2763     133B  1683               	bsf	3,5	;RP0=1, select bank1
  2764     133C  1303               	bcf	3,6	;RP1=0, select bank1
  2765     133D  0839               	movf	(___sindf@z+1)^(0+128),w
  2766     133E  1283               	bcf	3,5	;RP0=0, select bank0
  2767     133F  1303               	bcf	3,6	;RP1=0, select bank0
  2768     1340  00A7               	movwf	___flmul@b+1
  2769     1341  1683               	bsf	3,5	;RP0=1, select bank1
  2770     1342  1303               	bcf	3,6	;RP1=0, select bank1
  2771     1343  0838               	movf	___sindf@z^(0+128),w
  2772     1344  1283               	bcf	3,5	;RP0=0, select bank0
  2773     1345  1303               	bcf	3,6	;RP1=0, select bank0
  2774     1346  00A6               	movwf	___flmul@b
  2775     1347  1683               	bsf	3,5	;RP0=1, select bank1
  2776     1348  1303               	bcf	3,6	;RP1=0, select bank1
  2777     1349  083B               	movf	(___sindf@z+3)^(0+128),w
  2778     134A  1283               	bcf	3,5	;RP0=0, select bank0
  2779     134B  1303               	bcf	3,6	;RP1=0, select bank0
  2780     134C  00AD               	movwf	___flmul@a+3
  2781     134D  1683               	bsf	3,5	;RP0=1, select bank1
  2782     134E  1303               	bcf	3,6	;RP1=0, select bank1
  2783     134F  083A               	movf	(___sindf@z+2)^(0+128),w
  2784     1350  1283               	bcf	3,5	;RP0=0, select bank0
  2785     1351  1303               	bcf	3,6	;RP1=0, select bank0
  2786     1352  00AC               	movwf	___flmul@a+2
  2787     1353  1683               	bsf	3,5	;RP0=1, select bank1
  2788     1354  1303               	bcf	3,6	;RP1=0, select bank1
  2789     1355  0839               	movf	(___sindf@z+1)^(0+128),w
  2790     1356  1283               	bcf	3,5	;RP0=0, select bank0
  2791     1357  1303               	bcf	3,6	;RP1=0, select bank0
  2792     1358  00AB               	movwf	___flmul@a+1
  2793     1359  1683               	bsf	3,5	;RP0=1, select bank1
  2794     135A  1303               	bcf	3,6	;RP1=0, select bank1
  2795     135B  0838               	movf	___sindf@z^(0+128),w
  2796     135C  1283               	bcf	3,5	;RP0=0, select bank0
  2797     135D  1303               	bcf	3,6	;RP1=0, select bank0
  2798     135E  00AA               	movwf	___flmul@a
  2799     135F  120A  158A  2173  160A  118A  	fcall	___flmul
  2800     1364  1283               	bcf	3,5	;RP0=0, select bank0
  2801     1365  1303               	bcf	3,6	;RP1=0, select bank0
  2802     1366  0829               	movf	?___flmul+3,w
  2803     1367  1683               	bsf	3,5	;RP0=1, select bank1
  2804     1368  1303               	bcf	3,6	;RP1=0, select bank1
  2805     1369  00A7               	movwf	(___sindf@w+3)^(0+128)
  2806     136A  1283               	bcf	3,5	;RP0=0, select bank0
  2807     136B  1303               	bcf	3,6	;RP1=0, select bank0
  2808     136C  0828               	movf	?___flmul+2,w
  2809     136D  1683               	bsf	3,5	;RP0=1, select bank1
  2810     136E  1303               	bcf	3,6	;RP1=0, select bank1
  2811     136F  00A6               	movwf	(___sindf@w+2)^(0+128)
  2812     1370  1283               	bcf	3,5	;RP0=0, select bank0
  2813     1371  1303               	bcf	3,6	;RP1=0, select bank0
  2814     1372  0827               	movf	?___flmul+1,w
  2815     1373  1683               	bsf	3,5	;RP0=1, select bank1
  2816     1374  1303               	bcf	3,6	;RP1=0, select bank1
  2817     1375  00A5               	movwf	(___sindf@w+1)^(0+128)
  2818     1376  1283               	bcf	3,5	;RP0=0, select bank0
  2819     1377  1303               	bcf	3,6	;RP1=0, select bank0
  2820     1378  0826               	movf	?___flmul,w
  2821     1379  1683               	bsf	3,5	;RP0=1, select bank1
  2822     137A  1303               	bcf	3,6	;RP1=0, select bank1
  2823     137B  00A4               	movwf	___sindf@w^(0+128)
  2824     137C  30B9               	movlw	185
  2825     137D  1283               	bcf	3,5	;RP0=0, select bank0
  2826     137E  1303               	bcf	3,6	;RP1=0, select bank0
  2827     137F  00C3               	movwf	___fladd@b+3
  2828     1380  3050               	movlw	80
  2829     1381  00C2               	movwf	___fladd@b+2
  2830     1382  3007               	movlw	7
  2831     1383  00C1               	movwf	___fladd@b+1
  2832     1384  30CF               	movlw	207
  2833     1385  00C0               	movwf	___fladd@b
  2834     1386  3036               	movlw	54
  2835     1387  00A9               	movwf	___flmul@b+3
  2836     1388  3036               	movlw	54
  2837     1389  00A8               	movwf	___flmul@b+2
  2838     138A  306C               	movlw	108
  2839     138B  00A7               	movwf	___flmul@b+1
  2840     138C  303C               	movlw	60
  2841     138D  00A6               	movwf	___flmul@b
  2842     138E  1683               	bsf	3,5	;RP0=1, select bank1
  2843     138F  1303               	bcf	3,6	;RP1=0, select bank1
  2844     1390  083B               	movf	(___sindf@z+3)^(0+128),w
  2845     1391  1283               	bcf	3,5	;RP0=0, select bank0
  2846     1392  1303               	bcf	3,6	;RP1=0, select bank0
  2847     1393  00AD               	movwf	___flmul@a+3
  2848     1394  1683               	bsf	3,5	;RP0=1, select bank1
  2849     1395  1303               	bcf	3,6	;RP1=0, select bank1
  2850     1396  083A               	movf	(___sindf@z+2)^(0+128),w
  2851     1397  1283               	bcf	3,5	;RP0=0, select bank0
  2852     1398  1303               	bcf	3,6	;RP1=0, select bank0
  2853     1399  00AC               	movwf	___flmul@a+2
  2854     139A  1683               	bsf	3,5	;RP0=1, select bank1
  2855     139B  1303               	bcf	3,6	;RP1=0, select bank1
  2856     139C  0839               	movf	(___sindf@z+1)^(0+128),w
  2857     139D  1283               	bcf	3,5	;RP0=0, select bank0
  2858     139E  1303               	bcf	3,6	;RP1=0, select bank0
  2859     139F  00AB               	movwf	___flmul@a+1
  2860     13A0  1683               	bsf	3,5	;RP0=1, select bank1
  2861     13A1  1303               	bcf	3,6	;RP1=0, select bank1
  2862     13A2  0838               	movf	___sindf@z^(0+128),w
  2863     13A3  1283               	bcf	3,5	;RP0=0, select bank0
  2864     13A4  1303               	bcf	3,6	;RP1=0, select bank0
  2865     13A5  00AA               	movwf	___flmul@a
  2866     13A6  120A  158A  2173  160A  118A  	fcall	___flmul
  2867     13AB  1283               	bcf	3,5	;RP0=0, select bank0
  2868     13AC  1303               	bcf	3,6	;RP1=0, select bank0
  2869     13AD  0829               	movf	?___flmul+3,w
  2870     13AE  00C7               	movwf	___fladd@a+3
  2871     13AF  0828               	movf	?___flmul+2,w
  2872     13B0  00C6               	movwf	___fladd@a+2
  2873     13B1  0827               	movf	?___flmul+1,w
  2874     13B2  00C5               	movwf	___fladd@a+1
  2875     13B3  0826               	movf	?___flmul,w
  2876     13B4  00C4               	movwf	___fladd@a
  2877     13B5  160A  118A  20AA  160A  118A  	fcall	___fladd
  2878     13BA  1283               	bcf	3,5	;RP0=0, select bank0
  2879     13BB  1303               	bcf	3,6	;RP1=0, select bank0
  2880     13BC  0843               	movf	?___fladd+3,w
  2881     13BD  1683               	bsf	3,5	;RP0=1, select bank1
  2882     13BE  1303               	bcf	3,6	;RP1=0, select bank1
  2883     13BF  00A3               	movwf	(___sindf@r+3)^(0+128)
  2884     13C0  1283               	bcf	3,5	;RP0=0, select bank0
  2885     13C1  1303               	bcf	3,6	;RP1=0, select bank0
  2886     13C2  0842               	movf	?___fladd+2,w
  2887     13C3  1683               	bsf	3,5	;RP0=1, select bank1
  2888     13C4  1303               	bcf	3,6	;RP1=0, select bank1
  2889     13C5  00A2               	movwf	(___sindf@r+2)^(0+128)
  2890     13C6  1283               	bcf	3,5	;RP0=0, select bank0
  2891     13C7  1303               	bcf	3,6	;RP1=0, select bank0
  2892     13C8  0841               	movf	?___fladd+1,w
  2893     13C9  1683               	bsf	3,5	;RP0=1, select bank1
  2894     13CA  1303               	bcf	3,6	;RP1=0, select bank1
  2895     13CB  00A1               	movwf	(___sindf@r+1)^(0+128)
  2896     13CC  1283               	bcf	3,5	;RP0=0, select bank0
  2897     13CD  1303               	bcf	3,6	;RP1=0, select bank0
  2898     13CE  0840               	movf	?___fladd,w
  2899     13CF  1683               	bsf	3,5	;RP0=1, select bank1
  2900     13D0  1303               	bcf	3,6	;RP1=0, select bank1
  2901     13D1  00A0               	movwf	___sindf@r^(0+128)
  2902     13D2  1283               	bcf	3,5	;RP0=0, select bank0
  2903     13D3  1303               	bcf	3,6	;RP1=0, select bank0
  2904     13D4  0857               	movf	___sindf@x+3,w
  2905     13D5  00A9               	movwf	___flmul@b+3
  2906     13D6  0856               	movf	___sindf@x+2,w
  2907     13D7  00A8               	movwf	___flmul@b+2
  2908     13D8  0855               	movf	___sindf@x+1,w
  2909     13D9  00A7               	movwf	___flmul@b+1
  2910     13DA  0854               	movf	___sindf@x,w
  2911     13DB  00A6               	movwf	___flmul@b
  2912     13DC  1683               	bsf	3,5	;RP0=1, select bank1
  2913     13DD  1303               	bcf	3,6	;RP1=0, select bank1
  2914     13DE  083B               	movf	(___sindf@z+3)^(0+128),w
  2915     13DF  1283               	bcf	3,5	;RP0=0, select bank0
  2916     13E0  1303               	bcf	3,6	;RP1=0, select bank0
  2917     13E1  00AD               	movwf	___flmul@a+3
  2918     13E2  1683               	bsf	3,5	;RP0=1, select bank1
  2919     13E3  1303               	bcf	3,6	;RP1=0, select bank1
  2920     13E4  083A               	movf	(___sindf@z+2)^(0+128),w
  2921     13E5  1283               	bcf	3,5	;RP0=0, select bank0
  2922     13E6  1303               	bcf	3,6	;RP1=0, select bank0
  2923     13E7  00AC               	movwf	___flmul@a+2
  2924     13E8  1683               	bsf	3,5	;RP0=1, select bank1
  2925     13E9  1303               	bcf	3,6	;RP1=0, select bank1
  2926     13EA  0839               	movf	(___sindf@z+1)^(0+128),w
  2927     13EB  1283               	bcf	3,5	;RP0=0, select bank0
  2928     13EC  1303               	bcf	3,6	;RP1=0, select bank0
  2929     13ED  00AB               	movwf	___flmul@a+1
  2930     13EE  1683               	bsf	3,5	;RP0=1, select bank1
  2931     13EF  1303               	bcf	3,6	;RP1=0, select bank1
  2932     13F0  0838               	movf	___sindf@z^(0+128),w
  2933     13F1  1283               	bcf	3,5	;RP0=0, select bank0
  2934     13F2  1303               	bcf	3,6	;RP1=0, select bank0
  2935     13F3  00AA               	movwf	___flmul@a
  2936     13F4  120A  158A  2173  160A  118A  	fcall	___flmul
  2937     13F9  1283               	bcf	3,5	;RP0=0, select bank0
  2938     13FA  1303               	bcf	3,6	;RP1=0, select bank0
  2939     13FB  0829               	movf	?___flmul+3,w
  2940     13FC  1683               	bsf	3,5	;RP0=1, select bank1
  2941     13FD  1303               	bcf	3,6	;RP1=0, select bank1
  2942     13FE  00B7               	movwf	(___sindf@s+3)^(0+128)
  2943     13FF  1283               	bcf	3,5	;RP0=0, select bank0
  2944     1400  1303               	bcf	3,6	;RP1=0, select bank0
  2945     1401  0828               	movf	?___flmul+2,w
  2946     1402  1683               	bsf	3,5	;RP0=1, select bank1
  2947     1403  1303               	bcf	3,6	;RP1=0, select bank1
  2948     1404  00B6               	movwf	(___sindf@s+2)^(0+128)
  2949     1405  1283               	bcf	3,5	;RP0=0, select bank0
  2950     1406  1303               	bcf	3,6	;RP1=0, select bank0
  2951     1407  0827               	movf	?___flmul+1,w
  2952     1408  1683               	bsf	3,5	;RP0=1, select bank1
  2953     1409  1303               	bcf	3,6	;RP1=0, select bank1
  2954     140A  00B5               	movwf	(___sindf@s+1)^(0+128)
  2955     140B  1283               	bcf	3,5	;RP0=0, select bank0
  2956     140C  1303               	bcf	3,6	;RP1=0, select bank0
  2957     140D  0826               	movf	?___flmul,w
  2958     140E  1683               	bsf	3,5	;RP0=1, select bank1
  2959     140F  1303               	bcf	3,6	;RP1=0, select bank1
  2960     1410  00B4               	movwf	___sindf@s^(0+128)
  2961     1411  0827               	movf	(___sindf@w+3)^(0+128),w
  2962     1412  1283               	bcf	3,5	;RP0=0, select bank0
  2963     1413  1303               	bcf	3,6	;RP1=0, select bank0
  2964     1414  00A9               	movwf	___flmul@b+3
  2965     1415  1683               	bsf	3,5	;RP0=1, select bank1
  2966     1416  1303               	bcf	3,6	;RP1=0, select bank1
  2967     1417  0826               	movf	(___sindf@w+2)^(0+128),w
  2968     1418  1283               	bcf	3,5	;RP0=0, select bank0
  2969     1419  1303               	bcf	3,6	;RP1=0, select bank0
  2970     141A  00A8               	movwf	___flmul@b+2
  2971     141B  1683               	bsf	3,5	;RP0=1, select bank1
  2972     141C  1303               	bcf	3,6	;RP1=0, select bank1
  2973     141D  0825               	movf	(___sindf@w+1)^(0+128),w
  2974     141E  1283               	bcf	3,5	;RP0=0, select bank0
  2975     141F  1303               	bcf	3,6	;RP1=0, select bank0
  2976     1420  00A7               	movwf	___flmul@b+1
  2977     1421  1683               	bsf	3,5	;RP0=1, select bank1
  2978     1422  1303               	bcf	3,6	;RP1=0, select bank1
  2979     1423  0824               	movf	___sindf@w^(0+128),w
  2980     1424  1283               	bcf	3,5	;RP0=0, select bank0
  2981     1425  1303               	bcf	3,6	;RP1=0, select bank0
  2982     1426  00A6               	movwf	___flmul@b
  2983     1427  1683               	bsf	3,5	;RP0=1, select bank1
  2984     1428  1303               	bcf	3,6	;RP1=0, select bank1
  2985     1429  0837               	movf	(___sindf@s+3)^(0+128),w
  2986     142A  1283               	bcf	3,5	;RP0=0, select bank0
  2987     142B  1303               	bcf	3,6	;RP1=0, select bank0
  2988     142C  00AD               	movwf	___flmul@a+3
  2989     142D  1683               	bsf	3,5	;RP0=1, select bank1
  2990     142E  1303               	bcf	3,6	;RP1=0, select bank1
  2991     142F  0836               	movf	(___sindf@s+2)^(0+128),w
  2992     1430  1283               	bcf	3,5	;RP0=0, select bank0
  2993     1431  1303               	bcf	3,6	;RP1=0, select bank0
  2994     1432  00AC               	movwf	___flmul@a+2
  2995     1433  1683               	bsf	3,5	;RP0=1, select bank1
  2996     1434  1303               	bcf	3,6	;RP1=0, select bank1
  2997     1435  0835               	movf	(___sindf@s+1)^(0+128),w
  2998     1436  1283               	bcf	3,5	;RP0=0, select bank0
  2999     1437  1303               	bcf	3,6	;RP1=0, select bank0
  3000     1438  00AB               	movwf	___flmul@a+1
  3001     1439  1683               	bsf	3,5	;RP0=1, select bank1
  3002     143A  1303               	bcf	3,6	;RP1=0, select bank1
  3003     143B  0834               	movf	___sindf@s^(0+128),w
  3004     143C  1283               	bcf	3,5	;RP0=0, select bank0
  3005     143D  1303               	bcf	3,6	;RP1=0, select bank0
  3006     143E  00AA               	movwf	___flmul@a
  3007     143F  120A  158A  2173  160A  118A  	fcall	___flmul
  3008     1444  1283               	bcf	3,5	;RP0=0, select bank0
  3009     1445  1303               	bcf	3,6	;RP1=0, select bank0
  3010     1446  0829               	movf	?___flmul+3,w
  3011     1447  1683               	bsf	3,5	;RP0=1, select bank1
  3012     1448  1303               	bcf	3,6	;RP1=0, select bank1
  3013     1449  00AB               	movwf	(___sindf$763+3)^(0+128)
  3014     144A  1283               	bcf	3,5	;RP0=0, select bank0
  3015     144B  1303               	bcf	3,6	;RP1=0, select bank0
  3016     144C  0828               	movf	?___flmul+2,w
  3017     144D  1683               	bsf	3,5	;RP0=1, select bank1
  3018     144E  1303               	bcf	3,6	;RP1=0, select bank1
  3019     144F  00AA               	movwf	(___sindf$763+2)^(0+128)
  3020     1450  1283               	bcf	3,5	;RP0=0, select bank0
  3021     1451  1303               	bcf	3,6	;RP1=0, select bank0
  3022     1452  0827               	movf	?___flmul+1,w
  3023     1453  1683               	bsf	3,5	;RP0=1, select bank1
  3024     1454  1303               	bcf	3,6	;RP1=0, select bank1
  3025     1455  00A9               	movwf	(___sindf$763+1)^(0+128)
  3026     1456  1283               	bcf	3,5	;RP0=0, select bank0
  3027     1457  1303               	bcf	3,6	;RP1=0, select bank0
  3028     1458  0826               	movf	?___flmul,w
  3029     1459  1683               	bsf	3,5	;RP0=1, select bank1
  3030     145A  1303               	bcf	3,6	;RP1=0, select bank1
  3031     145B  00A8               	movwf	___sindf$763^(0+128)
  3032     145C  30BE               	movlw	190
  3033     145D  1283               	bcf	3,5	;RP0=0, select bank0
  3034     145E  1303               	bcf	3,6	;RP1=0, select bank0
  3035     145F  00C3               	movwf	___fladd@b+3
  3036     1460  302A               	movlw	42
  3037     1461  00C2               	movwf	___fladd@b+2
  3038     1462  30AA               	movlw	170
  3039     1463  00C1               	movwf	___fladd@b+1
  3040     1464  30AB               	movlw	171
  3041     1465  00C0               	movwf	___fladd@b
  3042     1466  303C               	movlw	60
  3043     1467  00A9               	movwf	___flmul@b+3
  3044     1468  3008               	movlw	8
  3045     1469  00A8               	movwf	___flmul@b+2
  3046     146A  3088               	movlw	136
  3047     146B  00A7               	movwf	___flmul@b+1
  3048     146C  3084               	movlw	132
  3049     146D  00A6               	movwf	___flmul@b
  3050     146E  1683               	bsf	3,5	;RP0=1, select bank1
  3051     146F  1303               	bcf	3,6	;RP1=0, select bank1
  3052     1470  083B               	movf	(___sindf@z+3)^(0+128),w
  3053     1471  1283               	bcf	3,5	;RP0=0, select bank0
  3054     1472  1303               	bcf	3,6	;RP1=0, select bank0
  3055     1473  00AD               	movwf	___flmul@a+3
  3056     1474  1683               	bsf	3,5	;RP0=1, select bank1
  3057     1475  1303               	bcf	3,6	;RP1=0, select bank1
  3058     1476  083A               	movf	(___sindf@z+2)^(0+128),w
  3059     1477  1283               	bcf	3,5	;RP0=0, select bank0
  3060     1478  1303               	bcf	3,6	;RP1=0, select bank0
  3061     1479  00AC               	movwf	___flmul@a+2
  3062     147A  1683               	bsf	3,5	;RP0=1, select bank1
  3063     147B  1303               	bcf	3,6	;RP1=0, select bank1
  3064     147C  0839               	movf	(___sindf@z+1)^(0+128),w
  3065     147D  1283               	bcf	3,5	;RP0=0, select bank0
  3066     147E  1303               	bcf	3,6	;RP1=0, select bank0
  3067     147F  00AB               	movwf	___flmul@a+1
  3068     1480  1683               	bsf	3,5	;RP0=1, select bank1
  3069     1481  1303               	bcf	3,6	;RP1=0, select bank1
  3070     1482  0838               	movf	___sindf@z^(0+128),w
  3071     1483  1283               	bcf	3,5	;RP0=0, select bank0
  3072     1484  1303               	bcf	3,6	;RP1=0, select bank0
  3073     1485  00AA               	movwf	___flmul@a
  3074     1486  120A  158A  2173  160A  118A  	fcall	___flmul
  3075     148B  1283               	bcf	3,5	;RP0=0, select bank0
  3076     148C  1303               	bcf	3,6	;RP1=0, select bank0
  3077     148D  0829               	movf	?___flmul+3,w
  3078     148E  00C7               	movwf	___fladd@a+3
  3079     148F  0828               	movf	?___flmul+2,w
  3080     1490  00C6               	movwf	___fladd@a+2
  3081     1491  0827               	movf	?___flmul+1,w
  3082     1492  00C5               	movwf	___fladd@a+1
  3083     1493  0826               	movf	?___flmul,w
  3084     1494  00C4               	movwf	___fladd@a
  3085     1495  160A  118A  20AA  160A  118A  	fcall	___fladd
  3086     149A  1283               	bcf	3,5	;RP0=0, select bank0
  3087     149B  1303               	bcf	3,6	;RP1=0, select bank0
  3088     149C  0843               	movf	?___fladd+3,w
  3089     149D  1683               	bsf	3,5	;RP0=1, select bank1
  3090     149E  1303               	bcf	3,6	;RP1=0, select bank1
  3091     149F  00AF               	movwf	(___sindf$764+3)^(0+128)
  3092     14A0  1283               	bcf	3,5	;RP0=0, select bank0
  3093     14A1  1303               	bcf	3,6	;RP1=0, select bank0
  3094     14A2  0842               	movf	?___fladd+2,w
  3095     14A3  1683               	bsf	3,5	;RP0=1, select bank1
  3096     14A4  1303               	bcf	3,6	;RP1=0, select bank1
  3097     14A5  00AE               	movwf	(___sindf$764+2)^(0+128)
  3098     14A6  1283               	bcf	3,5	;RP0=0, select bank0
  3099     14A7  1303               	bcf	3,6	;RP1=0, select bank0
  3100     14A8  0841               	movf	?___fladd+1,w
  3101     14A9  1683               	bsf	3,5	;RP0=1, select bank1
  3102     14AA  1303               	bcf	3,6	;RP1=0, select bank1
  3103     14AB  00AD               	movwf	(___sindf$764+1)^(0+128)
  3104     14AC  1283               	bcf	3,5	;RP0=0, select bank0
  3105     14AD  1303               	bcf	3,6	;RP1=0, select bank0
  3106     14AE  0840               	movf	?___fladd,w
  3107     14AF  1683               	bsf	3,5	;RP0=1, select bank1
  3108     14B0  1303               	bcf	3,6	;RP1=0, select bank1
  3109     14B1  00AC               	movwf	___sindf$764^(0+128)
  3110     14B2  1283               	bcf	3,5	;RP0=0, select bank0
  3111     14B3  1303               	bcf	3,6	;RP1=0, select bank0
  3112     14B4  0857               	movf	___sindf@x+3,w
  3113     14B5  00C3               	movwf	___fladd@b+3
  3114     14B6  0856               	movf	___sindf@x+2,w
  3115     14B7  00C2               	movwf	___fladd@b+2
  3116     14B8  0855               	movf	___sindf@x+1,w
  3117     14B9  00C1               	movwf	___fladd@b+1
  3118     14BA  0854               	movf	___sindf@x,w
  3119     14BB  00C0               	movwf	___fladd@b
  3120     14BC  1683               	bsf	3,5	;RP0=1, select bank1
  3121     14BD  1303               	bcf	3,6	;RP1=0, select bank1
  3122     14BE  0837               	movf	(___sindf@s+3)^(0+128),w
  3123     14BF  1283               	bcf	3,5	;RP0=0, select bank0
  3124     14C0  1303               	bcf	3,6	;RP1=0, select bank0
  3125     14C1  00A9               	movwf	___flmul@b+3
  3126     14C2  1683               	bsf	3,5	;RP0=1, select bank1
  3127     14C3  1303               	bcf	3,6	;RP1=0, select bank1
  3128     14C4  0836               	movf	(___sindf@s+2)^(0+128),w
  3129     14C5  1283               	bcf	3,5	;RP0=0, select bank0
  3130     14C6  1303               	bcf	3,6	;RP1=0, select bank0
  3131     14C7  00A8               	movwf	___flmul@b+2
  3132     14C8  1683               	bsf	3,5	;RP0=1, select bank1
  3133     14C9  1303               	bcf	3,6	;RP1=0, select bank1
  3134     14CA  0835               	movf	(___sindf@s+1)^(0+128),w
  3135     14CB  1283               	bcf	3,5	;RP0=0, select bank0
  3136     14CC  1303               	bcf	3,6	;RP1=0, select bank0
  3137     14CD  00A7               	movwf	___flmul@b+1
  3138     14CE  1683               	bsf	3,5	;RP0=1, select bank1
  3139     14CF  1303               	bcf	3,6	;RP1=0, select bank1
  3140     14D0  0834               	movf	___sindf@s^(0+128),w
  3141     14D1  1283               	bcf	3,5	;RP0=0, select bank0
  3142     14D2  1303               	bcf	3,6	;RP1=0, select bank0
  3143     14D3  00A6               	movwf	___flmul@b
  3144     14D4  1683               	bsf	3,5	;RP0=1, select bank1
  3145     14D5  1303               	bcf	3,6	;RP1=0, select bank1
  3146     14D6  082F               	movf	(___sindf$764+3)^(0+128),w
  3147     14D7  1283               	bcf	3,5	;RP0=0, select bank0
  3148     14D8  1303               	bcf	3,6	;RP1=0, select bank0
  3149     14D9  00AD               	movwf	___flmul@a+3
  3150     14DA  1683               	bsf	3,5	;RP0=1, select bank1
  3151     14DB  1303               	bcf	3,6	;RP1=0, select bank1
  3152     14DC  082E               	movf	(___sindf$764+2)^(0+128),w
  3153     14DD  1283               	bcf	3,5	;RP0=0, select bank0
  3154     14DE  1303               	bcf	3,6	;RP1=0, select bank0
  3155     14DF  00AC               	movwf	___flmul@a+2
  3156     14E0  1683               	bsf	3,5	;RP0=1, select bank1
  3157     14E1  1303               	bcf	3,6	;RP1=0, select bank1
  3158     14E2  082D               	movf	(___sindf$764+1)^(0+128),w
  3159     14E3  1283               	bcf	3,5	;RP0=0, select bank0
  3160     14E4  1303               	bcf	3,6	;RP1=0, select bank0
  3161     14E5  00AB               	movwf	___flmul@a+1
  3162     14E6  1683               	bsf	3,5	;RP0=1, select bank1
  3163     14E7  1303               	bcf	3,6	;RP1=0, select bank1
  3164     14E8  082C               	movf	___sindf$764^(0+128),w
  3165     14E9  1283               	bcf	3,5	;RP0=0, select bank0
  3166     14EA  1303               	bcf	3,6	;RP1=0, select bank0
  3167     14EB  00AA               	movwf	___flmul@a
  3168     14EC  120A  158A  2173  160A  118A  	fcall	___flmul
  3169     14F1  1283               	bcf	3,5	;RP0=0, select bank0
  3170     14F2  1303               	bcf	3,6	;RP1=0, select bank0
  3171     14F3  0829               	movf	?___flmul+3,w
  3172     14F4  00C7               	movwf	___fladd@a+3
  3173     14F5  0828               	movf	?___flmul+2,w
  3174     14F6  00C6               	movwf	___fladd@a+2
  3175     14F7  0827               	movf	?___flmul+1,w
  3176     14F8  00C5               	movwf	___fladd@a+1
  3177     14F9  0826               	movf	?___flmul,w
  3178     14FA  00C4               	movwf	___fladd@a
  3179     14FB  160A  118A  20AA  160A  118A  	fcall	___fladd
  3180     1500  1283               	bcf	3,5	;RP0=0, select bank0
  3181     1501  1303               	bcf	3,6	;RP1=0, select bank0
  3182     1502  0843               	movf	?___fladd+3,w
  3183     1503  1683               	bsf	3,5	;RP0=1, select bank1
  3184     1504  1303               	bcf	3,6	;RP1=0, select bank1
  3185     1505  00B3               	movwf	(___sindf$765+3)^(0+128)
  3186     1506  1283               	bcf	3,5	;RP0=0, select bank0
  3187     1507  1303               	bcf	3,6	;RP1=0, select bank0
  3188     1508  0842               	movf	?___fladd+2,w
  3189     1509  1683               	bsf	3,5	;RP0=1, select bank1
  3190     150A  1303               	bcf	3,6	;RP1=0, select bank1
  3191     150B  00B2               	movwf	(___sindf$765+2)^(0+128)
  3192     150C  1283               	bcf	3,5	;RP0=0, select bank0
  3193     150D  1303               	bcf	3,6	;RP1=0, select bank0
  3194     150E  0841               	movf	?___fladd+1,w
  3195     150F  1683               	bsf	3,5	;RP0=1, select bank1
  3196     1510  1303               	bcf	3,6	;RP1=0, select bank1
  3197     1511  00B1               	movwf	(___sindf$765+1)^(0+128)
  3198     1512  1283               	bcf	3,5	;RP0=0, select bank0
  3199     1513  1303               	bcf	3,6	;RP1=0, select bank0
  3200     1514  0840               	movf	?___fladd,w
  3201     1515  1683               	bsf	3,5	;RP0=1, select bank1
  3202     1516  1303               	bcf	3,6	;RP1=0, select bank1
  3203     1517  00B0               	movwf	___sindf$765^(0+128)
  3204     1518  0823               	movf	(___sindf@r+3)^(0+128),w
  3205     1519  1283               	bcf	3,5	;RP0=0, select bank0
  3206     151A  1303               	bcf	3,6	;RP1=0, select bank0
  3207     151B  00A9               	movwf	___flmul@b+3
  3208     151C  1683               	bsf	3,5	;RP0=1, select bank1
  3209     151D  1303               	bcf	3,6	;RP1=0, select bank1
  3210     151E  0822               	movf	(___sindf@r+2)^(0+128),w
  3211     151F  1283               	bcf	3,5	;RP0=0, select bank0
  3212     1520  1303               	bcf	3,6	;RP1=0, select bank0
  3213     1521  00A8               	movwf	___flmul@b+2
  3214     1522  1683               	bsf	3,5	;RP0=1, select bank1
  3215     1523  1303               	bcf	3,6	;RP1=0, select bank1
  3216     1524  0821               	movf	(___sindf@r+1)^(0+128),w
  3217     1525  1283               	bcf	3,5	;RP0=0, select bank0
  3218     1526  1303               	bcf	3,6	;RP1=0, select bank0
  3219     1527  00A7               	movwf	___flmul@b+1
  3220     1528  1683               	bsf	3,5	;RP0=1, select bank1
  3221     1529  1303               	bcf	3,6	;RP1=0, select bank1
  3222     152A  0820               	movf	___sindf@r^(0+128),w
  3223     152B  1283               	bcf	3,5	;RP0=0, select bank0
  3224     152C  1303               	bcf	3,6	;RP1=0, select bank0
  3225     152D  00A6               	movwf	___flmul@b
  3226     152E  1683               	bsf	3,5	;RP0=1, select bank1
  3227     152F  1303               	bcf	3,6	;RP1=0, select bank1
  3228     1530  082B               	movf	(___sindf$763+3)^(0+128),w
  3229     1531  1283               	bcf	3,5	;RP0=0, select bank0
  3230     1532  1303               	bcf	3,6	;RP1=0, select bank0
  3231     1533  00AD               	movwf	___flmul@a+3
  3232     1534  1683               	bsf	3,5	;RP0=1, select bank1
  3233     1535  1303               	bcf	3,6	;RP1=0, select bank1
  3234     1536  082A               	movf	(___sindf$763+2)^(0+128),w
  3235     1537  1283               	bcf	3,5	;RP0=0, select bank0
  3236     1538  1303               	bcf	3,6	;RP1=0, select bank0
  3237     1539  00AC               	movwf	___flmul@a+2
  3238     153A  1683               	bsf	3,5	;RP0=1, select bank1
  3239     153B  1303               	bcf	3,6	;RP1=0, select bank1
  3240     153C  0829               	movf	(___sindf$763+1)^(0+128),w
  3241     153D  1283               	bcf	3,5	;RP0=0, select bank0
  3242     153E  1303               	bcf	3,6	;RP1=0, select bank0
  3243     153F  00AB               	movwf	___flmul@a+1
  3244     1540  1683               	bsf	3,5	;RP0=1, select bank1
  3245     1541  1303               	bcf	3,6	;RP1=0, select bank1
  3246     1542  0828               	movf	___sindf$763^(0+128),w
  3247     1543  1283               	bcf	3,5	;RP0=0, select bank0
  3248     1544  1303               	bcf	3,6	;RP1=0, select bank0
  3249     1545  00AA               	movwf	___flmul@a
  3250     1546  120A  158A  2173  160A  118A  	fcall	___flmul
  3251     154B  1283               	bcf	3,5	;RP0=0, select bank0
  3252     154C  1303               	bcf	3,6	;RP1=0, select bank0
  3253     154D  0829               	movf	?___flmul+3,w
  3254     154E  00C3               	movwf	___fladd@b+3
  3255     154F  0828               	movf	?___flmul+2,w
  3256     1550  00C2               	movwf	___fladd@b+2
  3257     1551  0827               	movf	?___flmul+1,w
  3258     1552  00C1               	movwf	___fladd@b+1
  3259     1553  0826               	movf	?___flmul,w
  3260     1554  00C0               	movwf	___fladd@b
  3261     1555  1683               	bsf	3,5	;RP0=1, select bank1
  3262     1556  1303               	bcf	3,6	;RP1=0, select bank1
  3263     1557  0833               	movf	(___sindf$765+3)^(0+128),w
  3264     1558  1283               	bcf	3,5	;RP0=0, select bank0
  3265     1559  1303               	bcf	3,6	;RP1=0, select bank0
  3266     155A  00C7               	movwf	___fladd@a+3
  3267     155B  1683               	bsf	3,5	;RP0=1, select bank1
  3268     155C  1303               	bcf	3,6	;RP1=0, select bank1
  3269     155D  0832               	movf	(___sindf$765+2)^(0+128),w
  3270     155E  1283               	bcf	3,5	;RP0=0, select bank0
  3271     155F  1303               	bcf	3,6	;RP1=0, select bank0
  3272     1560  00C6               	movwf	___fladd@a+2
  3273     1561  1683               	bsf	3,5	;RP0=1, select bank1
  3274     1562  1303               	bcf	3,6	;RP1=0, select bank1
  3275     1563  0831               	movf	(___sindf$765+1)^(0+128),w
  3276     1564  1283               	bcf	3,5	;RP0=0, select bank0
  3277     1565  1303               	bcf	3,6	;RP1=0, select bank0
  3278     1566  00C5               	movwf	___fladd@a+1
  3279     1567  1683               	bsf	3,5	;RP0=1, select bank1
  3280     1568  1303               	bcf	3,6	;RP1=0, select bank1
  3281     1569  0830               	movf	___sindf$765^(0+128),w
  3282     156A  1283               	bcf	3,5	;RP0=0, select bank0
  3283     156B  1303               	bcf	3,6	;RP1=0, select bank0
  3284     156C  00C4               	movwf	___fladd@a
  3285     156D  160A  118A  20AA  160A  118A  	fcall	___fladd
  3286     1572  1283               	bcf	3,5	;RP0=0, select bank0
  3287     1573  1303               	bcf	3,6	;RP1=0, select bank0
  3288     1574  0843               	movf	?___fladd+3,w
  3289     1575  00D7               	movwf	?___sindf+3
  3290     1576  0842               	movf	?___fladd+2,w
  3291     1577  00D6               	movwf	?___sindf+2
  3292     1578  0841               	movf	?___fladd+1,w
  3293     1579  00D5               	movwf	?___sindf+1
  3294     157A  0840               	movf	?___fladd,w
  3295     157B  00D4               	movwf	?___sindf
  3296     157C                     l660:
  3297     157C  0008               	return
  3298     157D                     __end_of___sindf:
  3299                           
  3300                           	psect	text3
  3301     0CB8                     __ptext3:	
  3302 ;; *************** function ___rem_pio2f *****************
  3303 ;; Defined at:
  3304 ;;		line 44 in file "C:\Program Files\Microchip\xc8\v2.46\pic\sources\c99\common\__rem_pio2f.c"
  3305 ;; Parameters:    Size  Location     Type
  3306 ;;  x               4   14[BANK1 ] float 
  3307 ;;  y               1   18[BANK1 ] PTR 
  3308 ;;		 -> sinf@y(4), 
  3309 ;; Auto vars:     Size  Location     Type
  3310 ;;  n               4   42[BANK1 ] long 
  3311 ;;  t               4   38[BANK1 ] float 
  3312 ;;  fn              4   34[BANK1 ] float 
  3313 ;;  ux              4   30[BANK1 ] struct .
  3314 ;;  ty              4   21[BANK1 ] [1]
  3315 ;;  sign            1   29[BANK1 ] _Bool 
  3316 ;; Return value:  Size  Location     Type
  3317 ;;                  2   14[BANK1 ] int 
  3318 ;; Registers used:
  3319 ;;		wreg, fsr0l, fsr0h, status,2, status,0, btemp+1, pclath, cstack
  3320 ;; Tracked objects:
  3321 ;;		On entry : 0/0
  3322 ;;		On exit  : 0/0
  3323 ;;		Unchanged: 0/0
  3324 ;; Data sizes:     COMMON   BANK0   BANK1   BANK3   BANK2
  3325 ;;      Params:         0       0       5       0       0
  3326 ;;      Locals:         0       0      25       0       0
  3327 ;;      Temps:          0       0       2       0       0
  3328 ;;      Totals:         0       0      32       0       0
  3329 ;;Total ram usage:       32 bytes
  3330 ;; Hardware stack levels used: 1
  3331 ;; Hardware stack levels required when called: 2
  3332 ;; This function calls:
  3333 ;;		___fladd
  3334 ;;		___flmul
  3335 ;;		___flneg
  3336 ;;		___flsub
  3337 ;;		___fltol
  3338 ;;		___xxtofl
  3339 ;;		_fabsf
  3340 ;; This function is called by:
  3341 ;;		_sinf
  3342 ;; This function uses a non-reentrant model
  3343 ;;
  3344                           
  3345     0CB8                     ___rem_pio2f:	
  3346                           ;psect for function ___rem_pio2f
  3347                           
  3348     0CB8                     l2013:	
  3349                           ;incstack = 0
  3350                           ; Regs used in ___rem_pio2f: [wreg-fsr0h+status,2+status,0+btemp+1+pclath+cstack]
  3351                           
  3352     0CB8  1683               	bsf	3,5	;RP0=1, select bank3
  3353     0CB9  1703               	bsf	3,6	;RP1=1, select bank3
  3354     0CBA  084B               	movf	(___rem_pio2f@F526+3)^(0+384),w
  3355     0CBB  1683               	bsf	3,5	;RP0=1, select bank1
  3356     0CBC  1303               	bcf	3,6	;RP1=0, select bank1
  3357     0CBD  00C1               	movwf	(___rem_pio2f@ux+3)^(0+128)
  3358     0CBE  1683               	bsf	3,5	;RP0=1, select bank3
  3359     0CBF  1703               	bsf	3,6	;RP1=1, select bank3
  3360     0CC0  084A               	movf	(___rem_pio2f@F526+2)^(0+384),w
  3361     0CC1  1683               	bsf	3,5	;RP0=1, select bank1
  3362     0CC2  1303               	bcf	3,6	;RP1=0, select bank1
  3363     0CC3  00C0               	movwf	(___rem_pio2f@ux+2)^(0+128)
  3364     0CC4  1683               	bsf	3,5	;RP0=1, select bank3
  3365     0CC5  1703               	bsf	3,6	;RP1=1, select bank3
  3366     0CC6  0849               	movf	(___rem_pio2f@F526+1)^(0+384),w
  3367     0CC7  1683               	bsf	3,5	;RP0=1, select bank1
  3368     0CC8  1303               	bcf	3,6	;RP1=0, select bank1
  3369     0CC9  00BF               	movwf	(___rem_pio2f@ux+1)^(0+128)
  3370     0CCA  1683               	bsf	3,5	;RP0=1, select bank3
  3371     0CCB  1703               	bsf	3,6	;RP1=1, select bank3
  3372     0CCC  0848               	movf	___rem_pio2f@F526^(0+384),w
  3373     0CCD  1683               	bsf	3,5	;RP0=1, select bank1
  3374     0CCE  1303               	bcf	3,6	;RP1=0, select bank1
  3375     0CCF  00BE               	movwf	___rem_pio2f@ux^(0+128)
  3376     0CD0  0831               	movf	(___rem_pio2f@x+3)^(0+128),w
  3377     0CD1  00C1               	movwf	(___rem_pio2f@ux+3)^(0+128)
  3378     0CD2  0830               	movf	(___rem_pio2f@x+2)^(0+128),w
  3379     0CD3  00C0               	movwf	(___rem_pio2f@ux+2)^(0+128)
  3380     0CD4  082F               	movf	(___rem_pio2f@x+1)^(0+128),w
  3381     0CD5  00BF               	movwf	(___rem_pio2f@ux+1)^(0+128)
  3382     0CD6  082E               	movf	___rem_pio2f@x^(0+128),w
  3383     0CD7  00BE               	movwf	___rem_pio2f@ux^(0+128)
  3384     0CD8  1BC1               	btfsc	(___rem_pio2f@ux+3)^(0+128),7
  3385     0CD9  2CDB               	goto	u2991
  3386     0CDA  2CDD               	goto	u2990
  3387     0CDB                     u2991:
  3388     0CDB  3001               	movlw	1
  3389     0CDC  2CDE               	goto	u3000
  3390     0CDD                     u2990:
  3391     0CDD  3000               	movlw	0
  3392     0CDE                     u3000:
  3393     0CDE  00BD               	movwf	___rem_pio2f@sign^(0+128)
  3394     0CDF  30FF               	movlw	255
  3395     0CE0  05BE               	andwf	___rem_pio2f@ux^(0+128),f
  3396     0CE1  30FF               	movlw	255
  3397     0CE2  05BF               	andwf	(___rem_pio2f@ux+1)^(0+128),f
  3398     0CE3  30FF               	movlw	255
  3399     0CE4  05C0               	andwf	(___rem_pio2f@ux+2)^(0+128),f
  3400     0CE5  307F               	movlw	127
  3401     0CE6  05C1               	andwf	(___rem_pio2f@ux+3)^(0+128),f
  3402     0CE7                     l2015:
  3403     0CE7  304D               	movlw	77
  3404     0CE8  0241               	subwf	(___rem_pio2f@ux+3)^(0+128),w
  3405     0CE9  1D03               	skipz
  3406     0CEA  2CF7               	goto	u3013
  3407     0CEB  30C9               	movlw	201
  3408     0CEC  0240               	subwf	(___rem_pio2f@ux+2)^(0+128),w
  3409     0CED  1D03               	skipz
  3410     0CEE  2CF7               	goto	u3013
  3411     0CEF  300F               	movlw	15
  3412     0CF0  023F               	subwf	(___rem_pio2f@ux+1)^(0+128),w
  3413     0CF1  1D03               	skipz
  3414     0CF2  2CF7               	goto	u3013
  3415     0CF3  30DB               	movlw	219
  3416     0CF4  023E               	subwf	___rem_pio2f@ux^(0+128),w
  3417     0CF5  1D03               	skipz
  3418     0CF6  2CF7               	goto	u3013
  3419     0CF7                     u3013:
  3420     0CF7  1803               	btfsc	3,0
  3421     0CF8  2CFA               	goto	u3011
  3422     0CF9  2CFB               	goto	u3010
  3423     0CFA                     u3011:
  3424     0CFA  2E8D               	goto	l2039
  3425     0CFB                     u3010:
  3426     0CFB                     l2017:
  3427     0CFB  1683               	bsf	3,5	;RP0=1, select bank1
  3428     0CFC  1303               	bcf	3,6	;RP1=0, select bank1
  3429     0CFD  0831               	movf	(___rem_pio2f@x+3)^(0+128),w
  3430     0CFE  00F3               	movwf	fabsf@x+3
  3431     0CFF  0830               	movf	(___rem_pio2f@x+2)^(0+128),w
  3432     0D00  00F2               	movwf	fabsf@x+2
  3433     0D01  082F               	movf	(___rem_pio2f@x+1)^(0+128),w
  3434     0D02  00F1               	movwf	fabsf@x+1
  3435     0D03  082E               	movf	___rem_pio2f@x^(0+128),w
  3436     0D04  00F0               	movwf	fabsf@x
  3437     0D05  160A  158A  24C8  120A  158A  	fcall	_fabsf
  3438     0D0A  0873               	movf	?_fabsf+3,w
  3439     0D0B  1683               	bsf	3,5	;RP0=1, select bank1
  3440     0D0C  1303               	bcf	3,6	;RP1=0, select bank1
  3441     0D0D  00C9               	movwf	(___rem_pio2f@t+3)^(0+128)
  3442     0D0E  0872               	movf	?_fabsf+2,w
  3443     0D0F  00C8               	movwf	(___rem_pio2f@t+2)^(0+128)
  3444     0D10  0871               	movf	?_fabsf+1,w
  3445     0D11  00C7               	movwf	(___rem_pio2f@t+1)^(0+128)
  3446     0D12  0870               	movf	?_fabsf,w
  3447     0D13  00C6               	movwf	___rem_pio2f@t^(0+128)
  3448     0D14                     l2019:
  3449     0D14  0849               	movf	(___rem_pio2f@t+3)^(0+128),w
  3450     0D15  1283               	bcf	3,5	;RP0=0, select bank0
  3451     0D16  1303               	bcf	3,6	;RP1=0, select bank0
  3452     0D17  00AD               	movwf	___flmul@a+3
  3453     0D18  1683               	bsf	3,5	;RP0=1, select bank1
  3454     0D19  1303               	bcf	3,6	;RP1=0, select bank1
  3455     0D1A  0848               	movf	(___rem_pio2f@t+2)^(0+128),w
  3456     0D1B  1283               	bcf	3,5	;RP0=0, select bank0
  3457     0D1C  1303               	bcf	3,6	;RP1=0, select bank0
  3458     0D1D  00AC               	movwf	___flmul@a+2
  3459     0D1E  1683               	bsf	3,5	;RP0=1, select bank1
  3460     0D1F  1303               	bcf	3,6	;RP1=0, select bank1
  3461     0D20  0847               	movf	(___rem_pio2f@t+1)^(0+128),w
  3462     0D21  1283               	bcf	3,5	;RP0=0, select bank0
  3463     0D22  1303               	bcf	3,6	;RP1=0, select bank0
  3464     0D23  00AB               	movwf	___flmul@a+1
  3465     0D24  1683               	bsf	3,5	;RP0=1, select bank1
  3466     0D25  1303               	bcf	3,6	;RP1=0, select bank1
  3467     0D26  0846               	movf	___rem_pio2f@t^(0+128),w
  3468     0D27  1283               	bcf	3,5	;RP0=0, select bank0
  3469     0D28  1303               	bcf	3,6	;RP1=0, select bank0
  3470     0D29  00AA               	movwf	___flmul@a
  3471     0D2A  303F               	movlw	63
  3472     0D2B  00A9               	movwf	___flmul@b+3
  3473     0D2C  3022               	movlw	34
  3474     0D2D  00A8               	movwf	___flmul@b+2
  3475     0D2E  30F9               	movlw	249
  3476     0D2F  00A7               	movwf	___flmul@b+1
  3477     0D30  3083               	movlw	131
  3478     0D31  00A6               	movwf	___flmul@b
  3479     0D32  120A  158A  2173  120A  158A  	fcall	___flmul
  3480     0D37  1283               	bcf	3,5	;RP0=0, select bank0
  3481     0D38  1303               	bcf	3,6	;RP1=0, select bank0
  3482     0D39  0829               	movf	?___flmul+3,w
  3483     0D3A  00C7               	movwf	___fladd@a+3
  3484     0D3B  0828               	movf	?___flmul+2,w
  3485     0D3C  00C6               	movwf	___fladd@a+2
  3486     0D3D  0827               	movf	?___flmul+1,w
  3487     0D3E  00C5               	movwf	___fladd@a+1
  3488     0D3F  0826               	movf	?___flmul,w
  3489     0D40  00C4               	movwf	___fladd@a
  3490     0D41  303F               	movlw	63
  3491     0D42  00C3               	movwf	___fladd@b+3
  3492     0D43  3000               	movlw	0
  3493     0D44  00C2               	movwf	___fladd@b+2
  3494     0D45  3000               	movlw	0
  3495     0D46  00C1               	movwf	___fladd@b+1
  3496     0D47  3000               	movlw	0
  3497     0D48  00C0               	movwf	___fladd@b
  3498     0D49  160A  118A  20AA  120A  158A  	fcall	___fladd
  3499     0D4E  1283               	bcf	3,5	;RP0=0, select bank0
  3500     0D4F  1303               	bcf	3,6	;RP1=0, select bank0
  3501     0D50  0843               	movf	?___fladd+3,w
  3502     0D51  1683               	bsf	3,5	;RP0=1, select bank1
  3503     0D52  1303               	bcf	3,6	;RP1=0, select bank1
  3504     0D53  00A7               	movwf	(___fltol@f1+3)^(0+128)
  3505     0D54  1283               	bcf	3,5	;RP0=0, select bank0
  3506     0D55  1303               	bcf	3,6	;RP1=0, select bank0
  3507     0D56  0842               	movf	?___fladd+2,w
  3508     0D57  1683               	bsf	3,5	;RP0=1, select bank1
  3509     0D58  1303               	bcf	3,6	;RP1=0, select bank1
  3510     0D59  00A6               	movwf	(___fltol@f1+2)^(0+128)
  3511     0D5A  1283               	bcf	3,5	;RP0=0, select bank0
  3512     0D5B  1303               	bcf	3,6	;RP1=0, select bank0
  3513     0D5C  0841               	movf	?___fladd+1,w
  3514     0D5D  1683               	bsf	3,5	;RP0=1, select bank1
  3515     0D5E  1303               	bcf	3,6	;RP1=0, select bank1
  3516     0D5F  00A5               	movwf	(___fltol@f1+1)^(0+128)
  3517     0D60  1283               	bcf	3,5	;RP0=0, select bank0
  3518     0D61  1303               	bcf	3,6	;RP1=0, select bank0
  3519     0D62  0840               	movf	?___fladd,w
  3520     0D63  1683               	bsf	3,5	;RP0=1, select bank1
  3521     0D64  1303               	bcf	3,6	;RP1=0, select bank1
  3522     0D65  00A4               	movwf	___fltol@f1^(0+128)
  3523     0D66  160A  158A  2534  120A  158A  	fcall	___fltol
  3524     0D6B  1683               	bsf	3,5	;RP0=1, select bank1
  3525     0D6C  1303               	bcf	3,6	;RP1=0, select bank1
  3526     0D6D  0827               	movf	(?___fltol+3)^(0+128),w
  3527     0D6E  00CD               	movwf	(___rem_pio2f@n+3)^(0+128)
  3528     0D6F  0826               	movf	(?___fltol+2)^(0+128),w
  3529     0D70  00CC               	movwf	(___rem_pio2f@n+2)^(0+128)
  3530     0D71  0825               	movf	(?___fltol+1)^(0+128),w
  3531     0D72  00CB               	movwf	(___rem_pio2f@n+1)^(0+128)
  3532     0D73  0824               	movf	?___fltol^(0+128),w
  3533     0D74  00CA               	movwf	___rem_pio2f@n^(0+128)
  3534     0D75                     l2021:
  3535     0D75  084D               	movf	(___rem_pio2f@n+3)^(0+128),w
  3536     0D76  00F9               	movwf	___xxtofl@val+3
  3537     0D77  084C               	movf	(___rem_pio2f@n+2)^(0+128),w
  3538     0D78  00F8               	movwf	___xxtofl@val+2
  3539     0D79  084B               	movf	(___rem_pio2f@n+1)^(0+128),w
  3540     0D7A  00F7               	movwf	___xxtofl@val+1
  3541     0D7B  084A               	movf	___rem_pio2f@n^(0+128),w
  3542     0D7C  00F6               	movwf	___xxtofl@val
  3543     0D7D  3001               	movlw	1
  3544     0D7E  160A  158A  25AC  120A  158A  	fcall	___xxtofl
  3545     0D83  0879               	movf	?___xxtofl+3,w
  3546     0D84  1683               	bsf	3,5	;RP0=1, select bank1
  3547     0D85  1303               	bcf	3,6	;RP1=0, select bank1
  3548     0D86  00C5               	movwf	(___rem_pio2f@fn+3)^(0+128)
  3549     0D87  0878               	movf	?___xxtofl+2,w
  3550     0D88  00C4               	movwf	(___rem_pio2f@fn+2)^(0+128)
  3551     0D89  0877               	movf	?___xxtofl+1,w
  3552     0D8A  00C3               	movwf	(___rem_pio2f@fn+1)^(0+128)
  3553     0D8B  0876               	movf	?___xxtofl,w
  3554     0D8C  00C2               	movwf	___rem_pio2f@fn^(0+128)
  3555     0D8D                     l2023:
  3556     0D8D  303F               	movlw	63
  3557     0D8E  1283               	bcf	3,5	;RP0=0, select bank0
  3558     0D8F  1303               	bcf	3,6	;RP1=0, select bank0
  3559     0D90  00A9               	movwf	___flmul@b+3
  3560     0D91  30C9               	movlw	201
  3561     0D92  00A8               	movwf	___flmul@b+2
  3562     0D93  300F               	movlw	15
  3563     0D94  00A7               	movwf	___flmul@b+1
  3564     0D95  30DA               	movlw	218
  3565     0D96  00A6               	movwf	___flmul@b
  3566     0D97  1683               	bsf	3,5	;RP0=1, select bank1
  3567     0D98  1303               	bcf	3,6	;RP1=0, select bank1
  3568     0D99  0845               	movf	(___rem_pio2f@fn+3)^(0+128),w
  3569     0D9A  1283               	bcf	3,5	;RP0=0, select bank0
  3570     0D9B  1303               	bcf	3,6	;RP1=0, select bank0
  3571     0D9C  00AD               	movwf	___flmul@a+3
  3572     0D9D  1683               	bsf	3,5	;RP0=1, select bank1
  3573     0D9E  1303               	bcf	3,6	;RP1=0, select bank1
  3574     0D9F  0844               	movf	(___rem_pio2f@fn+2)^(0+128),w
  3575     0DA0  1283               	bcf	3,5	;RP0=0, select bank0
  3576     0DA1  1303               	bcf	3,6	;RP1=0, select bank0
  3577     0DA2  00AC               	movwf	___flmul@a+2
  3578     0DA3  1683               	bsf	3,5	;RP0=1, select bank1
  3579     0DA4  1303               	bcf	3,6	;RP1=0, select bank1
  3580     0DA5  0843               	movf	(___rem_pio2f@fn+1)^(0+128),w
  3581     0DA6  1283               	bcf	3,5	;RP0=0, select bank0
  3582     0DA7  1303               	bcf	3,6	;RP1=0, select bank0
  3583     0DA8  00AB               	movwf	___flmul@a+1
  3584     0DA9  1683               	bsf	3,5	;RP0=1, select bank1
  3585     0DAA  1303               	bcf	3,6	;RP1=0, select bank1
  3586     0DAB  0842               	movf	___rem_pio2f@fn^(0+128),w
  3587     0DAC  1283               	bcf	3,5	;RP0=0, select bank0
  3588     0DAD  1303               	bcf	3,6	;RP1=0, select bank0
  3589     0DAE  00AA               	movwf	___flmul@a
  3590     0DAF  120A  158A  2173  120A  158A  	fcall	___flmul
  3591     0DB4  1283               	bcf	3,5	;RP0=0, select bank0
  3592     0DB5  1303               	bcf	3,6	;RP1=0, select bank0
  3593     0DB6  0829               	movf	?___flmul+3,w
  3594     0DB7  00D7               	movwf	___flsub@a+3
  3595     0DB8  0828               	movf	?___flmul+2,w
  3596     0DB9  00D6               	movwf	___flsub@a+2
  3597     0DBA  0827               	movf	?___flmul+1,w
  3598     0DBB  00D5               	movwf	___flsub@a+1
  3599     0DBC  0826               	movf	?___flmul,w
  3600     0DBD  00D4               	movwf	___flsub@a
  3601     0DBE  1683               	bsf	3,5	;RP0=1, select bank1
  3602     0DBF  1303               	bcf	3,6	;RP1=0, select bank1
  3603     0DC0  0849               	movf	(___rem_pio2f@t+3)^(0+128),w
  3604     0DC1  1283               	bcf	3,5	;RP0=0, select bank0
  3605     0DC2  1303               	bcf	3,6	;RP1=0, select bank0
  3606     0DC3  00DB               	movwf	___flsub@b+3
  3607     0DC4  1683               	bsf	3,5	;RP0=1, select bank1
  3608     0DC5  1303               	bcf	3,6	;RP1=0, select bank1
  3609     0DC6  0848               	movf	(___rem_pio2f@t+2)^(0+128),w
  3610     0DC7  1283               	bcf	3,5	;RP0=0, select bank0
  3611     0DC8  1303               	bcf	3,6	;RP1=0, select bank0
  3612     0DC9  00DA               	movwf	___flsub@b+2
  3613     0DCA  1683               	bsf	3,5	;RP0=1, select bank1
  3614     0DCB  1303               	bcf	3,6	;RP1=0, select bank1
  3615     0DCC  0847               	movf	(___rem_pio2f@t+1)^(0+128),w
  3616     0DCD  1283               	bcf	3,5	;RP0=0, select bank0
  3617     0DCE  1303               	bcf	3,6	;RP1=0, select bank0
  3618     0DCF  00D9               	movwf	___flsub@b+1
  3619     0DD0  1683               	bsf	3,5	;RP0=1, select bank1
  3620     0DD1  1303               	bcf	3,6	;RP1=0, select bank1
  3621     0DD2  0846               	movf	___rem_pio2f@t^(0+128),w
  3622     0DD3  1283               	bcf	3,5	;RP0=0, select bank0
  3623     0DD4  1303               	bcf	3,6	;RP1=0, select bank0
  3624     0DD5  00D8               	movwf	___flsub@b
  3625     0DD6  160A  158A  24EB  120A  158A  	fcall	___flsub
  3626     0DDB  1283               	bcf	3,5	;RP0=0, select bank0
  3627     0DDC  1303               	bcf	3,6	;RP1=0, select bank0
  3628     0DDD  0857               	movf	?___flsub+3,w
  3629     0DDE  1683               	bsf	3,5	;RP0=1, select bank1
  3630     0DDF  1303               	bcf	3,6	;RP1=0, select bank1
  3631     0DE0  00BC               	movwf	(___rem_pio2f$762+3)^(0+128)
  3632     0DE1  1283               	bcf	3,5	;RP0=0, select bank0
  3633     0DE2  1303               	bcf	3,6	;RP1=0, select bank0
  3634     0DE3  0856               	movf	?___flsub+2,w
  3635     0DE4  1683               	bsf	3,5	;RP0=1, select bank1
  3636     0DE5  1303               	bcf	3,6	;RP1=0, select bank1
  3637     0DE6  00BB               	movwf	(___rem_pio2f$762+2)^(0+128)
  3638     0DE7  1283               	bcf	3,5	;RP0=0, select bank0
  3639     0DE8  1303               	bcf	3,6	;RP1=0, select bank0
  3640     0DE9  0855               	movf	?___flsub+1,w
  3641     0DEA  1683               	bsf	3,5	;RP0=1, select bank1
  3642     0DEB  1303               	bcf	3,6	;RP1=0, select bank1
  3643     0DEC  00BA               	movwf	(___rem_pio2f$762+1)^(0+128)
  3644     0DED  1283               	bcf	3,5	;RP0=0, select bank0
  3645     0DEE  1303               	bcf	3,6	;RP1=0, select bank0
  3646     0DEF  0854               	movf	?___flsub,w
  3647     0DF0  1683               	bsf	3,5	;RP0=1, select bank1
  3648     0DF1  1303               	bcf	3,6	;RP1=0, select bank1
  3649     0DF2  00B9               	movwf	___rem_pio2f$762^(0+128)
  3650     0DF3                     l2025:
  3651     0DF3  3032               	movlw	50
  3652     0DF4  1283               	bcf	3,5	;RP0=0, select bank0
  3653     0DF5  1303               	bcf	3,6	;RP1=0, select bank0
  3654     0DF6  00A9               	movwf	___flmul@b+3
  3655     0DF7  3088               	movlw	136
  3656     0DF8  00A8               	movwf	___flmul@b+2
  3657     0DF9  3085               	movlw	133
  3658     0DFA  00A7               	movwf	___flmul@b+1
  3659     0DFB  30A3               	movlw	163
  3660     0DFC  00A6               	movwf	___flmul@b
  3661     0DFD  1683               	bsf	3,5	;RP0=1, select bank1
  3662     0DFE  1303               	bcf	3,6	;RP1=0, select bank1
  3663     0DFF  0845               	movf	(___rem_pio2f@fn+3)^(0+128),w
  3664     0E00  1283               	bcf	3,5	;RP0=0, select bank0
  3665     0E01  1303               	bcf	3,6	;RP1=0, select bank0
  3666     0E02  00AD               	movwf	___flmul@a+3
  3667     0E03  1683               	bsf	3,5	;RP0=1, select bank1
  3668     0E04  1303               	bcf	3,6	;RP1=0, select bank1
  3669     0E05  0844               	movf	(___rem_pio2f@fn+2)^(0+128),w
  3670     0E06  1283               	bcf	3,5	;RP0=0, select bank0
  3671     0E07  1303               	bcf	3,6	;RP1=0, select bank0
  3672     0E08  00AC               	movwf	___flmul@a+2
  3673     0E09  1683               	bsf	3,5	;RP0=1, select bank1
  3674     0E0A  1303               	bcf	3,6	;RP1=0, select bank1
  3675     0E0B  0843               	movf	(___rem_pio2f@fn+1)^(0+128),w
  3676     0E0C  1283               	bcf	3,5	;RP0=0, select bank0
  3677     0E0D  1303               	bcf	3,6	;RP1=0, select bank0
  3678     0E0E  00AB               	movwf	___flmul@a+1
  3679     0E0F  1683               	bsf	3,5	;RP0=1, select bank1
  3680     0E10  1303               	bcf	3,6	;RP1=0, select bank1
  3681     0E11  0842               	movf	___rem_pio2f@fn^(0+128),w
  3682     0E12  1283               	bcf	3,5	;RP0=0, select bank0
  3683     0E13  1303               	bcf	3,6	;RP1=0, select bank0
  3684     0E14  00AA               	movwf	___flmul@a
  3685     0E15  120A  158A  2173  120A  158A  	fcall	___flmul
  3686     0E1A  1283               	bcf	3,5	;RP0=0, select bank0
  3687     0E1B  1303               	bcf	3,6	;RP1=0, select bank0
  3688     0E1C  0829               	movf	?___flmul+3,w
  3689     0E1D  00D7               	movwf	___flsub@a+3
  3690     0E1E  0828               	movf	?___flmul+2,w
  3691     0E1F  00D6               	movwf	___flsub@a+2
  3692     0E20  0827               	movf	?___flmul+1,w
  3693     0E21  00D5               	movwf	___flsub@a+1
  3694     0E22  0826               	movf	?___flmul,w
  3695     0E23  00D4               	movwf	___flsub@a
  3696     0E24  1683               	bsf	3,5	;RP0=1, select bank1
  3697     0E25  1303               	bcf	3,6	;RP1=0, select bank1
  3698     0E26  083C               	movf	(___rem_pio2f$762+3)^(0+128),w
  3699     0E27  1283               	bcf	3,5	;RP0=0, select bank0
  3700     0E28  1303               	bcf	3,6	;RP1=0, select bank0
  3701     0E29  00DB               	movwf	___flsub@b+3
  3702     0E2A  1683               	bsf	3,5	;RP0=1, select bank1
  3703     0E2B  1303               	bcf	3,6	;RP1=0, select bank1
  3704     0E2C  083B               	movf	(___rem_pio2f$762+2)^(0+128),w
  3705     0E2D  1283               	bcf	3,5	;RP0=0, select bank0
  3706     0E2E  1303               	bcf	3,6	;RP1=0, select bank0
  3707     0E2F  00DA               	movwf	___flsub@b+2
  3708     0E30  1683               	bsf	3,5	;RP0=1, select bank1
  3709     0E31  1303               	bcf	3,6	;RP1=0, select bank1
  3710     0E32  083A               	movf	(___rem_pio2f$762+1)^(0+128),w
  3711     0E33  1283               	bcf	3,5	;RP0=0, select bank0
  3712     0E34  1303               	bcf	3,6	;RP1=0, select bank0
  3713     0E35  00D9               	movwf	___flsub@b+1
  3714     0E36  1683               	bsf	3,5	;RP0=1, select bank1
  3715     0E37  1303               	bcf	3,6	;RP1=0, select bank1
  3716     0E38  0839               	movf	___rem_pio2f$762^(0+128),w
  3717     0E39  1283               	bcf	3,5	;RP0=0, select bank0
  3718     0E3A  1303               	bcf	3,6	;RP1=0, select bank0
  3719     0E3B  00D8               	movwf	___flsub@b
  3720     0E3C  160A  158A  24EB  120A  158A  	fcall	___flsub
  3721     0E41  1683               	bsf	3,5	;RP0=1, select bank1
  3722     0E42  1303               	bcf	3,6	;RP1=0, select bank1
  3723     0E43  0832               	movf	___rem_pio2f@y^(0+128),w
  3724     0E44  0084               	movwf	4
  3725     0E45  1283               	bcf	3,5	;RP0=0, select bank0
  3726     0E46  1303               	bcf	3,6	;RP1=0, select bank0
  3727     0E47  0854               	movf	?___flsub,w
  3728     0E48  1383               	bcf	3,7	;select IRP bank0
  3729     0E49  0080               	movwf	0
  3730     0E4A  0A84               	incf	4,f
  3731     0E4B  0855               	movf	?___flsub+1,w
  3732     0E4C  0080               	movwf	0
  3733     0E4D  0A84               	incf	4,f
  3734     0E4E  0856               	movf	?___flsub+2,w
  3735     0E4F  0080               	movwf	0
  3736     0E50  0A84               	incf	4,f
  3737     0E51  0857               	movf	?___flsub+3,w
  3738     0E52  0080               	movwf	0
  3739     0E53                     l2027:
  3740     0E53  1683               	bsf	3,5	;RP0=1, select bank1
  3741     0E54  1303               	bcf	3,6	;RP1=0, select bank1
  3742     0E55  083D               	movf	___rem_pio2f@sign^(0+128),w
  3743     0E56  1903               	btfsc	3,2
  3744     0E57  2E59               	goto	u3021
  3745     0E58  2E5A               	goto	u3020
  3746     0E59                     u3021:
  3747     0E59  2E88               	goto	l2035
  3748     0E5A                     u3020:
  3749     0E5A                     l2029:
  3750     0E5A  0832               	movf	___rem_pio2f@y^(0+128),w
  3751     0E5B  0084               	movwf	4
  3752     0E5C  0800               	movf	0,w
  3753     0E5D  00A0               	movwf	___flneg@f1^(0+128)
  3754     0E5E  0A84               	incf	4,f
  3755     0E5F  0800               	movf	0,w
  3756     0E60  00A1               	movwf	(___flneg@f1+1)^(0+128)
  3757     0E61  0A84               	incf	4,f
  3758     0E62  0800               	movf	0,w
  3759     0E63  00A2               	movwf	(___flneg@f1+2)^(0+128)
  3760     0E64  0A84               	incf	4,f
  3761     0E65  0800               	movf	0,w
  3762     0E66  00A3               	movwf	(___flneg@f1+3)^(0+128)
  3763     0E67  120A  118A  2004  120A  158A  	fcall	___flneg
  3764     0E6C  1683               	bsf	3,5	;RP0=1, select bank1
  3765     0E6D  1303               	bcf	3,6	;RP1=0, select bank1
  3766     0E6E  0832               	movf	___rem_pio2f@y^(0+128),w
  3767     0E6F  0084               	movwf	4
  3768     0E70  0820               	movf	?___flneg^(0+128),w
  3769     0E71  1383               	bcf	3,7	;select IRP bank0
  3770     0E72  0080               	movwf	0
  3771     0E73  0A84               	incf	4,f
  3772     0E74  0821               	movf	(?___flneg+1)^(0+128),w
  3773     0E75  0080               	movwf	0
  3774     0E76  0A84               	incf	4,f
  3775     0E77  0822               	movf	(?___flneg+2)^(0+128),w
  3776     0E78  0080               	movwf	0
  3777     0E79  0A84               	incf	4,f
  3778     0E7A  0823               	movf	(?___flneg+3)^(0+128),w
  3779     0E7B  0080               	movwf	0
  3780     0E7C                     l2031:
  3781     0E7C  094A               	comf	___rem_pio2f@n^(0+128),w
  3782     0E7D  00B3               	movwf	??___rem_pio2f^(0+128)
  3783     0E7E  094B               	comf	(___rem_pio2f@n+1)^(0+128),w
  3784     0E7F  00B4               	movwf	(??___rem_pio2f^(0+128)+1)
  3785     0E80  0AB3               	incf	??___rem_pio2f^(0+128),f
  3786     0E81  1903               	skipnz
  3787     0E82  0AB4               	incf	(??___rem_pio2f^(0+128)+1),f
  3788     0E83  0833               	movf	??___rem_pio2f^(0+128),w
  3789     0E84  00AE               	movwf	?___rem_pio2f^(0+128)
  3790     0E85  0834               	movf	(??___rem_pio2f+1)^(0+128),w
  3791     0E86  00AF               	movwf	(?___rem_pio2f+1)^(0+128)
  3792     0E87  2FFF               	goto	l648
  3793     0E88                     l2035:
  3794     0E88  084B               	movf	(___rem_pio2f@n+1)^(0+128),w
  3795     0E89  00AF               	movwf	(?___rem_pio2f+1)^(0+128)
  3796     0E8A  084A               	movf	___rem_pio2f@n^(0+128),w
  3797     0E8B  00AE               	movwf	?___rem_pio2f^(0+128)
  3798     0E8C  2FFF               	goto	l648
  3799     0E8D                     l2039:
  3800     0E8D  1683               	bsf	3,5	;RP0=1, select bank1
  3801     0E8E  1303               	bcf	3,6	;RP1=0, select bank1
  3802     0E8F  0831               	movf	(___rem_pio2f@x+3)^(0+128),w
  3803     0E90  00F3               	movwf	fabsf@x+3
  3804     0E91  0830               	movf	(___rem_pio2f@x+2)^(0+128),w
  3805     0E92  00F2               	movwf	fabsf@x+2
  3806     0E93  082F               	movf	(___rem_pio2f@x+1)^(0+128),w
  3807     0E94  00F1               	movwf	fabsf@x+1
  3808     0E95  082E               	movf	___rem_pio2f@x^(0+128),w
  3809     0E96  00F0               	movwf	fabsf@x
  3810     0E97  160A  158A  24C8  120A  158A  	fcall	_fabsf
  3811     0E9C  0873               	movf	?_fabsf+3,w
  3812     0E9D  1683               	bsf	3,5	;RP0=1, select bank1
  3813     0E9E  1303               	bcf	3,6	;RP1=0, select bank1
  3814     0E9F  00C9               	movwf	(___rem_pio2f@t+3)^(0+128)
  3815     0EA0  0872               	movf	?_fabsf+2,w
  3816     0EA1  00C8               	movwf	(___rem_pio2f@t+2)^(0+128)
  3817     0EA2  0871               	movf	?_fabsf+1,w
  3818     0EA3  00C7               	movwf	(___rem_pio2f@t+1)^(0+128)
  3819     0EA4  0870               	movf	?_fabsf,w
  3820     0EA5  00C6               	movwf	___rem_pio2f@t^(0+128)
  3821     0EA6                     l2041:
  3822     0EA6  0849               	movf	(___rem_pio2f@t+3)^(0+128),w
  3823     0EA7  1283               	bcf	3,5	;RP0=0, select bank0
  3824     0EA8  1303               	bcf	3,6	;RP1=0, select bank0
  3825     0EA9  00AD               	movwf	___flmul@a+3
  3826     0EAA  1683               	bsf	3,5	;RP0=1, select bank1
  3827     0EAB  1303               	bcf	3,6	;RP1=0, select bank1
  3828     0EAC  0848               	movf	(___rem_pio2f@t+2)^(0+128),w
  3829     0EAD  1283               	bcf	3,5	;RP0=0, select bank0
  3830     0EAE  1303               	bcf	3,6	;RP1=0, select bank0
  3831     0EAF  00AC               	movwf	___flmul@a+2
  3832     0EB0  1683               	bsf	3,5	;RP0=1, select bank1
  3833     0EB1  1303               	bcf	3,6	;RP1=0, select bank1
  3834     0EB2  0847               	movf	(___rem_pio2f@t+1)^(0+128),w
  3835     0EB3  1283               	bcf	3,5	;RP0=0, select bank0
  3836     0EB4  1303               	bcf	3,6	;RP1=0, select bank0
  3837     0EB5  00AB               	movwf	___flmul@a+1
  3838     0EB6  1683               	bsf	3,5	;RP0=1, select bank1
  3839     0EB7  1303               	bcf	3,6	;RP1=0, select bank1
  3840     0EB8  0846               	movf	___rem_pio2f@t^(0+128),w
  3841     0EB9  1283               	bcf	3,5	;RP0=0, select bank0
  3842     0EBA  1303               	bcf	3,6	;RP1=0, select bank0
  3843     0EBB  00AA               	movwf	___flmul@a
  3844     0EBC  303F               	movlw	63
  3845     0EBD  00A9               	movwf	___flmul@b+3
  3846     0EBE  3022               	movlw	34
  3847     0EBF  00A8               	movwf	___flmul@b+2
  3848     0EC0  30F9               	movlw	249
  3849     0EC1  00A7               	movwf	___flmul@b+1
  3850     0EC2  3083               	movlw	131
  3851     0EC3  00A6               	movwf	___flmul@b
  3852     0EC4  120A  158A  2173  120A  158A  	fcall	___flmul
  3853     0EC9  1283               	bcf	3,5	;RP0=0, select bank0
  3854     0ECA  1303               	bcf	3,6	;RP1=0, select bank0
  3855     0ECB  0829               	movf	?___flmul+3,w
  3856     0ECC  00C7               	movwf	___fladd@a+3
  3857     0ECD  0828               	movf	?___flmul+2,w
  3858     0ECE  00C6               	movwf	___fladd@a+2
  3859     0ECF  0827               	movf	?___flmul+1,w
  3860     0ED0  00C5               	movwf	___fladd@a+1
  3861     0ED1  0826               	movf	?___flmul,w
  3862     0ED2  00C4               	movwf	___fladd@a
  3863     0ED3  303F               	movlw	63
  3864     0ED4  00C3               	movwf	___fladd@b+3
  3865     0ED5  3000               	movlw	0
  3866     0ED6  00C2               	movwf	___fladd@b+2
  3867     0ED7  3000               	movlw	0
  3868     0ED8  00C1               	movwf	___fladd@b+1
  3869     0ED9  3000               	movlw	0
  3870     0EDA  00C0               	movwf	___fladd@b
  3871     0EDB  160A  118A  20AA  120A  158A  	fcall	___fladd
  3872     0EE0  1283               	bcf	3,5	;RP0=0, select bank0
  3873     0EE1  1303               	bcf	3,6	;RP1=0, select bank0
  3874     0EE2  0843               	movf	?___fladd+3,w
  3875     0EE3  1683               	bsf	3,5	;RP0=1, select bank1
  3876     0EE4  1303               	bcf	3,6	;RP1=0, select bank1
  3877     0EE5  00A7               	movwf	(___fltol@f1+3)^(0+128)
  3878     0EE6  1283               	bcf	3,5	;RP0=0, select bank0
  3879     0EE7  1303               	bcf	3,6	;RP1=0, select bank0
  3880     0EE8  0842               	movf	?___fladd+2,w
  3881     0EE9  1683               	bsf	3,5	;RP0=1, select bank1
  3882     0EEA  1303               	bcf	3,6	;RP1=0, select bank1
  3883     0EEB  00A6               	movwf	(___fltol@f1+2)^(0+128)
  3884     0EEC  1283               	bcf	3,5	;RP0=0, select bank0
  3885     0EED  1303               	bcf	3,6	;RP1=0, select bank0
  3886     0EEE  0841               	movf	?___fladd+1,w
  3887     0EEF  1683               	bsf	3,5	;RP0=1, select bank1
  3888     0EF0  1303               	bcf	3,6	;RP1=0, select bank1
  3889     0EF1  00A5               	movwf	(___fltol@f1+1)^(0+128)
  3890     0EF2  1283               	bcf	3,5	;RP0=0, select bank0
  3891     0EF3  1303               	bcf	3,6	;RP1=0, select bank0
  3892     0EF4  0840               	movf	?___fladd,w
  3893     0EF5  1683               	bsf	3,5	;RP0=1, select bank1
  3894     0EF6  1303               	bcf	3,6	;RP1=0, select bank1
  3895     0EF7  00A4               	movwf	___fltol@f1^(0+128)
  3896     0EF8  160A  158A  2534  120A  158A  	fcall	___fltol
  3897     0EFD  1683               	bsf	3,5	;RP0=1, select bank1
  3898     0EFE  1303               	bcf	3,6	;RP1=0, select bank1
  3899     0EFF  0827               	movf	(?___fltol+3)^(0+128),w
  3900     0F00  00CD               	movwf	(___rem_pio2f@n+3)^(0+128)
  3901     0F01  0826               	movf	(?___fltol+2)^(0+128),w
  3902     0F02  00CC               	movwf	(___rem_pio2f@n+2)^(0+128)
  3903     0F03  0825               	movf	(?___fltol+1)^(0+128),w
  3904     0F04  00CB               	movwf	(___rem_pio2f@n+1)^(0+128)
  3905     0F05  0824               	movf	?___fltol^(0+128),w
  3906     0F06  00CA               	movwf	___rem_pio2f@n^(0+128)
  3907     0F07                     l2043:
  3908     0F07  084D               	movf	(___rem_pio2f@n+3)^(0+128),w
  3909     0F08  00F9               	movwf	___xxtofl@val+3
  3910     0F09  084C               	movf	(___rem_pio2f@n+2)^(0+128),w
  3911     0F0A  00F8               	movwf	___xxtofl@val+2
  3912     0F0B  084B               	movf	(___rem_pio2f@n+1)^(0+128),w
  3913     0F0C  00F7               	movwf	___xxtofl@val+1
  3914     0F0D  084A               	movf	___rem_pio2f@n^(0+128),w
  3915     0F0E  00F6               	movwf	___xxtofl@val
  3916     0F0F  3001               	movlw	1
  3917     0F10  160A  158A  25AC  120A  158A  	fcall	___xxtofl
  3918     0F15  0879               	movf	?___xxtofl+3,w
  3919     0F16  1683               	bsf	3,5	;RP0=1, select bank1
  3920     0F17  1303               	bcf	3,6	;RP1=0, select bank1
  3921     0F18  00C5               	movwf	(___rem_pio2f@fn+3)^(0+128)
  3922     0F19  0878               	movf	?___xxtofl+2,w
  3923     0F1A  00C4               	movwf	(___rem_pio2f@fn+2)^(0+128)
  3924     0F1B  0877               	movf	?___xxtofl+1,w
  3925     0F1C  00C3               	movwf	(___rem_pio2f@fn+1)^(0+128)
  3926     0F1D  0876               	movf	?___xxtofl,w
  3927     0F1E  00C2               	movwf	___rem_pio2f@fn^(0+128)
  3928     0F1F                     l2045:
  3929     0F1F  303F               	movlw	63
  3930     0F20  1283               	bcf	3,5	;RP0=0, select bank0
  3931     0F21  1303               	bcf	3,6	;RP1=0, select bank0
  3932     0F22  00A9               	movwf	___flmul@b+3
  3933     0F23  30C9               	movlw	201
  3934     0F24  00A8               	movwf	___flmul@b+2
  3935     0F25  300F               	movlw	15
  3936     0F26  00A7               	movwf	___flmul@b+1
  3937     0F27  30DA               	movlw	218
  3938     0F28  00A6               	movwf	___flmul@b
  3939     0F29  1683               	bsf	3,5	;RP0=1, select bank1
  3940     0F2A  1303               	bcf	3,6	;RP1=0, select bank1
  3941     0F2B  0845               	movf	(___rem_pio2f@fn+3)^(0+128),w
  3942     0F2C  1283               	bcf	3,5	;RP0=0, select bank0
  3943     0F2D  1303               	bcf	3,6	;RP1=0, select bank0
  3944     0F2E  00AD               	movwf	___flmul@a+3
  3945     0F2F  1683               	bsf	3,5	;RP0=1, select bank1
  3946     0F30  1303               	bcf	3,6	;RP1=0, select bank1
  3947     0F31  0844               	movf	(___rem_pio2f@fn+2)^(0+128),w
  3948     0F32  1283               	bcf	3,5	;RP0=0, select bank0
  3949     0F33  1303               	bcf	3,6	;RP1=0, select bank0
  3950     0F34  00AC               	movwf	___flmul@a+2
  3951     0F35  1683               	bsf	3,5	;RP0=1, select bank1
  3952     0F36  1303               	bcf	3,6	;RP1=0, select bank1
  3953     0F37  0843               	movf	(___rem_pio2f@fn+1)^(0+128),w
  3954     0F38  1283               	bcf	3,5	;RP0=0, select bank0
  3955     0F39  1303               	bcf	3,6	;RP1=0, select bank0
  3956     0F3A  00AB               	movwf	___flmul@a+1
  3957     0F3B  1683               	bsf	3,5	;RP0=1, select bank1
  3958     0F3C  1303               	bcf	3,6	;RP1=0, select bank1
  3959     0F3D  0842               	movf	___rem_pio2f@fn^(0+128),w
  3960     0F3E  1283               	bcf	3,5	;RP0=0, select bank0
  3961     0F3F  1303               	bcf	3,6	;RP1=0, select bank0
  3962     0F40  00AA               	movwf	___flmul@a
  3963     0F41  120A  158A  2173  120A  158A  	fcall	___flmul
  3964     0F46  1283               	bcf	3,5	;RP0=0, select bank0
  3965     0F47  1303               	bcf	3,6	;RP1=0, select bank0
  3966     0F48  0829               	movf	?___flmul+3,w
  3967     0F49  00D7               	movwf	___flsub@a+3
  3968     0F4A  0828               	movf	?___flmul+2,w
  3969     0F4B  00D6               	movwf	___flsub@a+2
  3970     0F4C  0827               	movf	?___flmul+1,w
  3971     0F4D  00D5               	movwf	___flsub@a+1
  3972     0F4E  0826               	movf	?___flmul,w
  3973     0F4F  00D4               	movwf	___flsub@a
  3974     0F50  1683               	bsf	3,5	;RP0=1, select bank1
  3975     0F51  1303               	bcf	3,6	;RP1=0, select bank1
  3976     0F52  0849               	movf	(___rem_pio2f@t+3)^(0+128),w
  3977     0F53  1283               	bcf	3,5	;RP0=0, select bank0
  3978     0F54  1303               	bcf	3,6	;RP1=0, select bank0
  3979     0F55  00DB               	movwf	___flsub@b+3
  3980     0F56  1683               	bsf	3,5	;RP0=1, select bank1
  3981     0F57  1303               	bcf	3,6	;RP1=0, select bank1
  3982     0F58  0848               	movf	(___rem_pio2f@t+2)^(0+128),w
  3983     0F59  1283               	bcf	3,5	;RP0=0, select bank0
  3984     0F5A  1303               	bcf	3,6	;RP1=0, select bank0
  3985     0F5B  00DA               	movwf	___flsub@b+2
  3986     0F5C  1683               	bsf	3,5	;RP0=1, select bank1
  3987     0F5D  1303               	bcf	3,6	;RP1=0, select bank1
  3988     0F5E  0847               	movf	(___rem_pio2f@t+1)^(0+128),w
  3989     0F5F  1283               	bcf	3,5	;RP0=0, select bank0
  3990     0F60  1303               	bcf	3,6	;RP1=0, select bank0
  3991     0F61  00D9               	movwf	___flsub@b+1
  3992     0F62  1683               	bsf	3,5	;RP0=1, select bank1
  3993     0F63  1303               	bcf	3,6	;RP1=0, select bank1
  3994     0F64  0846               	movf	___rem_pio2f@t^(0+128),w
  3995     0F65  1283               	bcf	3,5	;RP0=0, select bank0
  3996     0F66  1303               	bcf	3,6	;RP1=0, select bank0
  3997     0F67  00D8               	movwf	___flsub@b
  3998     0F68  160A  158A  24EB  120A  158A  	fcall	___flsub
  3999     0F6D  1283               	bcf	3,5	;RP0=0, select bank0
  4000     0F6E  1303               	bcf	3,6	;RP1=0, select bank0
  4001     0F6F  0857               	movf	?___flsub+3,w
  4002     0F70  1683               	bsf	3,5	;RP0=1, select bank1
  4003     0F71  1303               	bcf	3,6	;RP1=0, select bank1
  4004     0F72  00BC               	movwf	(___rem_pio2f$762+3)^(0+128)
  4005     0F73  1283               	bcf	3,5	;RP0=0, select bank0
  4006     0F74  1303               	bcf	3,6	;RP1=0, select bank0
  4007     0F75  0856               	movf	?___flsub+2,w
  4008     0F76  1683               	bsf	3,5	;RP0=1, select bank1
  4009     0F77  1303               	bcf	3,6	;RP1=0, select bank1
  4010     0F78  00BB               	movwf	(___rem_pio2f$762+2)^(0+128)
  4011     0F79  1283               	bcf	3,5	;RP0=0, select bank0
  4012     0F7A  1303               	bcf	3,6	;RP1=0, select bank0
  4013     0F7B  0855               	movf	?___flsub+1,w
  4014     0F7C  1683               	bsf	3,5	;RP0=1, select bank1
  4015     0F7D  1303               	bcf	3,6	;RP1=0, select bank1
  4016     0F7E  00BA               	movwf	(___rem_pio2f$762+1)^(0+128)
  4017     0F7F  1283               	bcf	3,5	;RP0=0, select bank0
  4018     0F80  1303               	bcf	3,6	;RP1=0, select bank0
  4019     0F81  0854               	movf	?___flsub,w
  4020     0F82  1683               	bsf	3,5	;RP0=1, select bank1
  4021     0F83  1303               	bcf	3,6	;RP1=0, select bank1
  4022     0F84  00B9               	movwf	___rem_pio2f$762^(0+128)
  4023     0F85                     l2047:
  4024     0F85  3032               	movlw	50
  4025     0F86  1283               	bcf	3,5	;RP0=0, select bank0
  4026     0F87  1303               	bcf	3,6	;RP1=0, select bank0
  4027     0F88  00A9               	movwf	___flmul@b+3
  4028     0F89  3088               	movlw	136
  4029     0F8A  00A8               	movwf	___flmul@b+2
  4030     0F8B  3085               	movlw	133
  4031     0F8C  00A7               	movwf	___flmul@b+1
  4032     0F8D  30A3               	movlw	163
  4033     0F8E  00A6               	movwf	___flmul@b
  4034     0F8F  1683               	bsf	3,5	;RP0=1, select bank1
  4035     0F90  1303               	bcf	3,6	;RP1=0, select bank1
  4036     0F91  0845               	movf	(___rem_pio2f@fn+3)^(0+128),w
  4037     0F92  1283               	bcf	3,5	;RP0=0, select bank0
  4038     0F93  1303               	bcf	3,6	;RP1=0, select bank0
  4039     0F94  00AD               	movwf	___flmul@a+3
  4040     0F95  1683               	bsf	3,5	;RP0=1, select bank1
  4041     0F96  1303               	bcf	3,6	;RP1=0, select bank1
  4042     0F97  0844               	movf	(___rem_pio2f@fn+2)^(0+128),w
  4043     0F98  1283               	bcf	3,5	;RP0=0, select bank0
  4044     0F99  1303               	bcf	3,6	;RP1=0, select bank0
  4045     0F9A  00AC               	movwf	___flmul@a+2
  4046     0F9B  1683               	bsf	3,5	;RP0=1, select bank1
  4047     0F9C  1303               	bcf	3,6	;RP1=0, select bank1
  4048     0F9D  0843               	movf	(___rem_pio2f@fn+1)^(0+128),w
  4049     0F9E  1283               	bcf	3,5	;RP0=0, select bank0
  4050     0F9F  1303               	bcf	3,6	;RP1=0, select bank0
  4051     0FA0  00AB               	movwf	___flmul@a+1
  4052     0FA1  1683               	bsf	3,5	;RP0=1, select bank1
  4053     0FA2  1303               	bcf	3,6	;RP1=0, select bank1
  4054     0FA3  0842               	movf	___rem_pio2f@fn^(0+128),w
  4055     0FA4  1283               	bcf	3,5	;RP0=0, select bank0
  4056     0FA5  1303               	bcf	3,6	;RP1=0, select bank0
  4057     0FA6  00AA               	movwf	___flmul@a
  4058     0FA7  120A  158A  2173  120A  158A  	fcall	___flmul
  4059     0FAC  1283               	bcf	3,5	;RP0=0, select bank0
  4060     0FAD  1303               	bcf	3,6	;RP1=0, select bank0
  4061     0FAE  0829               	movf	?___flmul+3,w
  4062     0FAF  00D7               	movwf	___flsub@a+3
  4063     0FB0  0828               	movf	?___flmul+2,w
  4064     0FB1  00D6               	movwf	___flsub@a+2
  4065     0FB2  0827               	movf	?___flmul+1,w
  4066     0FB3  00D5               	movwf	___flsub@a+1
  4067     0FB4  0826               	movf	?___flmul,w
  4068     0FB5  00D4               	movwf	___flsub@a
  4069     0FB6  1683               	bsf	3,5	;RP0=1, select bank1
  4070     0FB7  1303               	bcf	3,6	;RP1=0, select bank1
  4071     0FB8  083C               	movf	(___rem_pio2f$762+3)^(0+128),w
  4072     0FB9  1283               	bcf	3,5	;RP0=0, select bank0
  4073     0FBA  1303               	bcf	3,6	;RP1=0, select bank0
  4074     0FBB  00DB               	movwf	___flsub@b+3
  4075     0FBC  1683               	bsf	3,5	;RP0=1, select bank1
  4076     0FBD  1303               	bcf	3,6	;RP1=0, select bank1
  4077     0FBE  083B               	movf	(___rem_pio2f$762+2)^(0+128),w
  4078     0FBF  1283               	bcf	3,5	;RP0=0, select bank0
  4079     0FC0  1303               	bcf	3,6	;RP1=0, select bank0
  4080     0FC1  00DA               	movwf	___flsub@b+2
  4081     0FC2  1683               	bsf	3,5	;RP0=1, select bank1
  4082     0FC3  1303               	bcf	3,6	;RP1=0, select bank1
  4083     0FC4  083A               	movf	(___rem_pio2f$762+1)^(0+128),w
  4084     0FC5  1283               	bcf	3,5	;RP0=0, select bank0
  4085     0FC6  1303               	bcf	3,6	;RP1=0, select bank0
  4086     0FC7  00D9               	movwf	___flsub@b+1
  4087     0FC8  1683               	bsf	3,5	;RP0=1, select bank1
  4088     0FC9  1303               	bcf	3,6	;RP1=0, select bank1
  4089     0FCA  0839               	movf	___rem_pio2f$762^(0+128),w
  4090     0FCB  1283               	bcf	3,5	;RP0=0, select bank0
  4091     0FCC  1303               	bcf	3,6	;RP1=0, select bank0
  4092     0FCD  00D8               	movwf	___flsub@b
  4093     0FCE  160A  158A  24EB  120A  158A  	fcall	___flsub
  4094     0FD3  1283               	bcf	3,5	;RP0=0, select bank0
  4095     0FD4  1303               	bcf	3,6	;RP1=0, select bank0
  4096     0FD5  0857               	movf	?___flsub+3,w
  4097     0FD6  1683               	bsf	3,5	;RP0=1, select bank1
  4098     0FD7  1303               	bcf	3,6	;RP1=0, select bank1
  4099     0FD8  00B8               	movwf	(___rem_pio2f@ty+3)^(0+128)
  4100     0FD9  1283               	bcf	3,5	;RP0=0, select bank0
  4101     0FDA  1303               	bcf	3,6	;RP1=0, select bank0
  4102     0FDB  0856               	movf	?___flsub+2,w
  4103     0FDC  1683               	bsf	3,5	;RP0=1, select bank1
  4104     0FDD  1303               	bcf	3,6	;RP1=0, select bank1
  4105     0FDE  00B7               	movwf	(___rem_pio2f@ty+2)^(0+128)
  4106     0FDF  1283               	bcf	3,5	;RP0=0, select bank0
  4107     0FE0  1303               	bcf	3,6	;RP1=0, select bank0
  4108     0FE1  0855               	movf	?___flsub+1,w
  4109     0FE2  1683               	bsf	3,5	;RP0=1, select bank1
  4110     0FE3  1303               	bcf	3,6	;RP1=0, select bank1
  4111     0FE4  00B6               	movwf	(___rem_pio2f@ty+1)^(0+128)
  4112     0FE5  1283               	bcf	3,5	;RP0=0, select bank0
  4113     0FE6  1303               	bcf	3,6	;RP1=0, select bank0
  4114     0FE7  0854               	movf	?___flsub,w
  4115     0FE8  1683               	bsf	3,5	;RP0=1, select bank1
  4116     0FE9  1303               	bcf	3,6	;RP1=0, select bank1
  4117     0FEA  00B5               	movwf	___rem_pio2f@ty^(0+128)
  4118     0FEB                     l2049:
  4119     0FEB  0832               	movf	___rem_pio2f@y^(0+128),w
  4120     0FEC  0084               	movwf	4
  4121     0FED  0835               	movf	___rem_pio2f@ty^(0+128),w
  4122     0FEE  1383               	bcf	3,7	;select IRP bank0
  4123     0FEF  0080               	movwf	0
  4124     0FF0  0A84               	incf	4,f
  4125     0FF1  0836               	movf	(___rem_pio2f@ty+1)^(0+128),w
  4126     0FF2  0080               	movwf	0
  4127     0FF3  0A84               	incf	4,f
  4128     0FF4  0837               	movf	(___rem_pio2f@ty+2)^(0+128),w
  4129     0FF5  0080               	movwf	0
  4130     0FF6  0A84               	incf	4,f
  4131     0FF7  0838               	movf	(___rem_pio2f@ty+3)^(0+128),w
  4132     0FF8  0080               	movwf	0
  4133     0FF9                     l2051:
  4134     0FF9  083D               	movf	___rem_pio2f@sign^(0+128),w
  4135     0FFA  1903               	btfsc	3,2
  4136     0FFB  2FFD               	goto	u3031
  4137     0FFC  2FFE               	goto	u3030
  4138     0FFD                     u3031:
  4139     0FFD  2E88               	goto	l2035
  4140     0FFE                     u3030:
  4141     0FFE  2E5A               	goto	l2029
  4142     0FFF                     l648:
  4143     0FFF  0008               	return
  4144     1000                     __end_of___rem_pio2f:
  4145                           
  4146                           	psect	text4
  4147     1CC8                     __ptext4:	
  4148 ;; *************** function _fabsf *****************
  4149 ;; Defined at:
  4150 ;;		line 4 in file "C:\Program Files\Microchip\xc8\v2.46\pic\sources\c99\common\fabsf.c"
  4151 ;; Parameters:    Size  Location     Type
  4152 ;;  x               4    0[COMMON] float 
  4153 ;; Auto vars:     Size  Location     Type
  4154 ;;  u               4    4[COMMON] struct .
  4155 ;; Return value:  Size  Location     Type
  4156 ;;                  4    0[COMMON] float 
  4157 ;; Registers used:
  4158 ;;		wreg
  4159 ;; Tracked objects:
  4160 ;;		On entry : 0/0
  4161 ;;		On exit  : 0/0
  4162 ;;		Unchanged: 0/0
  4163 ;; Data sizes:     COMMON   BANK0   BANK1   BANK3   BANK2
  4164 ;;      Params:         4       0       0       0       0
  4165 ;;      Locals:         4       0       0       0       0
  4166 ;;      Temps:          0       0       0       0       0
  4167 ;;      Totals:         8       0       0       0       0
  4168 ;;Total ram usage:        8 bytes
  4169 ;; Hardware stack levels used: 1
  4170 ;; This function calls:
  4171 ;;		Nothing
  4172 ;; This function is called by:
  4173 ;;		___rem_pio2f
  4174 ;; This function uses a non-reentrant model
  4175 ;;
  4176                           
  4177     1CC8                     _fabsf:	
  4178                           ;psect for function _fabsf
  4179                           
  4180     1CC8                     l1981:	
  4181                           ;incstack = 0
  4182                           ; Regs used in _fabsf: [wreg]
  4183                           
  4184     1CC8  1683               	bsf	3,5	;RP0=1, select bank3
  4185     1CC9  1703               	bsf	3,6	;RP1=1, select bank3
  4186     1CCA  0847               	movf	(fabsf@F465+3)^(0+384),w
  4187     1CCB  00F7               	movwf	fabsf@u+3
  4188     1CCC  0846               	movf	(fabsf@F465+2)^(0+384),w
  4189     1CCD  00F6               	movwf	fabsf@u+2
  4190     1CCE  0845               	movf	(fabsf@F465+1)^(0+384),w
  4191     1CCF  00F5               	movwf	fabsf@u+1
  4192     1CD0  0844               	movf	fabsf@F465^(0+384),w
  4193     1CD1  00F4               	movwf	fabsf@u
  4194     1CD2  0873               	movf	fabsf@x+3,w
  4195     1CD3  00F7               	movwf	fabsf@u+3
  4196     1CD4  0872               	movf	fabsf@x+2,w
  4197     1CD5  00F6               	movwf	fabsf@u+2
  4198     1CD6  0871               	movf	fabsf@x+1,w
  4199     1CD7  00F5               	movwf	fabsf@u+1
  4200     1CD8  0870               	movf	fabsf@x,w
  4201     1CD9  00F4               	movwf	fabsf@u
  4202     1CDA  30FF               	movlw	255
  4203     1CDB  05F4               	andwf	fabsf@u,f
  4204     1CDC  30FF               	movlw	255
  4205     1CDD  05F5               	andwf	fabsf@u+1,f
  4206     1CDE  30FF               	movlw	255
  4207     1CDF  05F6               	andwf	fabsf@u+2,f
  4208     1CE0  307F               	movlw	127
  4209     1CE1  05F7               	andwf	fabsf@u+3,f
  4210     1CE2  0877               	movf	fabsf@u+3,w
  4211     1CE3  00F3               	movwf	?_fabsf+3
  4212     1CE4  0876               	movf	fabsf@u+2,w
  4213     1CE5  00F2               	movwf	?_fabsf+2
  4214     1CE6  0875               	movf	fabsf@u+1,w
  4215     1CE7  00F1               	movwf	?_fabsf+1
  4216     1CE8  0874               	movf	fabsf@u,w
  4217     1CE9  00F0               	movwf	?_fabsf
  4218     1CEA                     l665:
  4219     1CEA  0008               	return
  4220     1CEB                     __end_of_fabsf:
  4221                           
  4222                           	psect	text5
  4223     1DAC                     __ptext5:	
  4224 ;; *************** function ___xxtofl *****************
  4225 ;; Defined at:
  4226 ;;		line 10 in file "C:\Program Files\Microchip\xc8\v2.46\pic\sources\c99\common\xxtofl.c"
  4227 ;; Parameters:    Size  Location     Type
  4228 ;;  sign            1    wreg     unsigned char 
  4229 ;;  val             4    6[COMMON] long 
  4230 ;; Auto vars:     Size  Location     Type
  4231 ;;  sign            1    0[BANK0 ] unsigned char 
  4232 ;;  arg             4    2[BANK0 ] unsigned long 
  4233 ;;  exp             1    1[BANK0 ] unsigned char 
  4234 ;; Return value:  Size  Location     Type
  4235 ;;                  4    6[COMMON] unsigned char 
  4236 ;; Registers used:
  4237 ;;		wreg, status,2, status,0, btemp+1
  4238 ;; Tracked objects:
  4239 ;;		On entry : 0/0
  4240 ;;		On exit  : 0/0
  4241 ;;		Unchanged: 0/0
  4242 ;; Data sizes:     COMMON   BANK0   BANK1   BANK3   BANK2
  4243 ;;      Params:         4       0       0       0       0
  4244 ;;      Locals:         0       6       0       0       0
  4245 ;;      Temps:          4       0       0       0       0
  4246 ;;      Totals:         8       6       0       0       0
  4247 ;;Total ram usage:       14 bytes
  4248 ;; Hardware stack levels used: 1
  4249 ;; This function calls:
  4250 ;;		Nothing
  4251 ;; This function is called by:
  4252 ;;		_main
  4253 ;;		___rem_pio2f
  4254 ;; This function uses a non-reentrant model
  4255 ;;
  4256                           
  4257     1DAC                     ___xxtofl:	
  4258                           ;psect for function ___xxtofl
  4259                           
  4260                           
  4261                           ;incstack = 0
  4262                           ; Regs used in ___xxtofl: [wreg+status,2+status,0+btemp+1]
  4263                           ;___xxtofl@sign stored from wreg
  4264     1DAC  1283               	bcf	3,5	;RP0=0, select bank0
  4265     1DAD  1303               	bcf	3,6	;RP1=0, select bank0
  4266     1DAE  00A0               	movwf	___xxtofl@sign
  4267     1DAF                     l1933:
  4268     1DAF  0820               	movf	___xxtofl@sign,w
  4269     1DB0  1903               	btfsc	3,2
  4270     1DB1  2DB3               	goto	u2781
  4271     1DB2  2DB4               	goto	u2780
  4272     1DB3                     u2781:
  4273     1DB3  2DC8               	goto	l1939
  4274     1DB4                     u2780:
  4275     1DB4                     l1935:
  4276     1DB4  1FF9               	btfss	___xxtofl@val+3,7
  4277     1DB5  2DB7               	goto	u2791
  4278     1DB6  2DB8               	goto	u2790
  4279     1DB7                     u2791:
  4280     1DB7  2DC8               	goto	l1939
  4281     1DB8                     u2790:
  4282     1DB8                     l1937:
  4283     1DB8  0976               	comf	___xxtofl@val,w
  4284     1DB9  00A2               	movwf	___xxtofl@arg
  4285     1DBA  0977               	comf	___xxtofl@val+1,w
  4286     1DBB  00A3               	movwf	___xxtofl@arg+1
  4287     1DBC  0978               	comf	___xxtofl@val+2,w
  4288     1DBD  00A4               	movwf	___xxtofl@arg+2
  4289     1DBE  0979               	comf	___xxtofl@val+3,w
  4290     1DBF  00A5               	movwf	___xxtofl@arg+3
  4291     1DC0  0AA2               	incf	___xxtofl@arg,f
  4292     1DC1  1903               	skipnz
  4293     1DC2  0AA3               	incf	___xxtofl@arg+1,f
  4294     1DC3  1903               	skipnz
  4295     1DC4  0AA4               	incf	___xxtofl@arg+2,f
  4296     1DC5  1903               	skipnz
  4297     1DC6  0AA5               	incf	___xxtofl@arg+3,f
  4298     1DC7  2DD0               	goto	l549
  4299     1DC8                     l1939:
  4300     1DC8  0879               	movf	___xxtofl@val+3,w
  4301     1DC9  00A5               	movwf	___xxtofl@arg+3
  4302     1DCA  0878               	movf	___xxtofl@val+2,w
  4303     1DCB  00A4               	movwf	___xxtofl@arg+2
  4304     1DCC  0877               	movf	___xxtofl@val+1,w
  4305     1DCD  00A3               	movwf	___xxtofl@arg+1
  4306     1DCE  0876               	movf	___xxtofl@val,w
  4307     1DCF  00A2               	movwf	___xxtofl@arg
  4308     1DD0                     l549:
  4309     1DD0  0879               	movf	___xxtofl@val+3,w
  4310     1DD1  0478               	iorwf	___xxtofl@val+2,w
  4311     1DD2  0477               	iorwf	___xxtofl@val+1,w
  4312     1DD3  0476               	iorwf	___xxtofl@val,w
  4313     1DD4  1D03               	skipz
  4314     1DD5  2DD7               	goto	u2801
  4315     1DD6  2DD8               	goto	u2800
  4316     1DD7                     u2801:
  4317     1DD7  2DE1               	goto	l1945
  4318     1DD8                     u2800:
  4319     1DD8                     l1941:
  4320     1DD8  3000               	movlw	0
  4321     1DD9  00F9               	movwf	?___xxtofl+3
  4322     1DDA  3000               	movlw	0
  4323     1DDB  00F8               	movwf	?___xxtofl+2
  4324     1DDC  3000               	movlw	0
  4325     1DDD  00F7               	movwf	?___xxtofl+1
  4326     1DDE  3000               	movlw	0
  4327     1DDF  00F6               	movwf	?___xxtofl
  4328     1DE0  2E65               	goto	l551
  4329     1DE1                     l1945:
  4330     1DE1  3096               	movlw	150
  4331     1DE2  00A1               	movwf	___xxtofl@exp
  4332     1DE3  2DF1               	goto	l1951
  4333     1DE4                     l1947:
  4334     1DE4  3001               	movlw	1
  4335     1DE5  00FF               	movwf	btemp+1
  4336     1DE6  087F               	movf	btemp+1,w
  4337     1DE7  07A1               	addwf	___xxtofl@exp,f
  4338     1DE8                     l1949:
  4339     1DE8  3001               	movlw	1
  4340     1DE9                     u2815:
  4341     1DE9  1003               	clrc
  4342     1DEA  0CA5               	rrf	___xxtofl@arg+3,f
  4343     1DEB  0CA4               	rrf	___xxtofl@arg+2,f
  4344     1DEC  0CA3               	rrf	___xxtofl@arg+1,f
  4345     1DED  0CA2               	rrf	___xxtofl@arg,f
  4346     1DEE  3EFF               	addlw	-1
  4347     1DEF  1D03               	skipz
  4348     1DF0  2DE9               	goto	u2815
  4349     1DF1                     l1951:
  4350     1DF1  30FE               	movlw	254
  4351     1DF2  0525               	andwf	___xxtofl@arg+3,w
  4352     1DF3  1D03               	btfss	3,2
  4353     1DF4  2DF6               	goto	u2821
  4354     1DF5  2DF7               	goto	u2820
  4355     1DF6                     u2821:
  4356     1DF6  2DE4               	goto	l1947
  4357     1DF7                     u2820:
  4358     1DF7  2E13               	goto	l1959
  4359     1DF8                     l1953:
  4360     1DF8  3001               	movlw	1
  4361     1DF9  00FF               	movwf	btemp+1
  4362     1DFA  087F               	movf	btemp+1,w
  4363     1DFB  07A1               	addwf	___xxtofl@exp,f
  4364     1DFC                     l1955:
  4365     1DFC  3001               	movlw	1
  4366     1DFD  07A2               	addwf	___xxtofl@arg,f
  4367     1DFE  3000               	movlw	0
  4368     1DFF  1803               	skipnc
  4369     1E00  3001               	movlw	1
  4370     1E01  07A3               	addwf	___xxtofl@arg+1,f
  4371     1E02  3000               	movlw	0
  4372     1E03  1803               	skipnc
  4373     1E04  3001               	movlw	1
  4374     1E05  07A4               	addwf	___xxtofl@arg+2,f
  4375     1E06  3000               	movlw	0
  4376     1E07  1803               	skipnc
  4377     1E08  3001               	movlw	1
  4378     1E09  07A5               	addwf	___xxtofl@arg+3,f
  4379     1E0A                     l1957:
  4380     1E0A  3001               	movlw	1
  4381     1E0B                     u2835:
  4382     1E0B  1003               	clrc
  4383     1E0C  0CA5               	rrf	___xxtofl@arg+3,f
  4384     1E0D  0CA4               	rrf	___xxtofl@arg+2,f
  4385     1E0E  0CA3               	rrf	___xxtofl@arg+1,f
  4386     1E0F  0CA2               	rrf	___xxtofl@arg,f
  4387     1E10  3EFF               	addlw	-1
  4388     1E11  1D03               	skipz
  4389     1E12  2E0B               	goto	u2835
  4390     1E13                     l1959:
  4391     1E13  30FF               	movlw	255
  4392     1E14  0525               	andwf	___xxtofl@arg+3,w
  4393     1E15  1D03               	btfss	3,2
  4394     1E16  2E18               	goto	u2841
  4395     1E17  2E19               	goto	u2840
  4396     1E18                     u2841:
  4397     1E18  2DF8               	goto	l1953
  4398     1E19                     u2840:
  4399     1E19  2E25               	goto	l1963
  4400     1E1A                     l1961:
  4401     1E1A  3001               	movlw	1
  4402     1E1B  02A1               	subwf	___xxtofl@exp,f
  4403     1E1C  3001               	movlw	1
  4404     1E1D  00FA               	movwf	??___xxtofl
  4405     1E1E                     u2855:
  4406     1E1E  1003               	clrc
  4407     1E1F  0DA2               	rlf	___xxtofl@arg,f
  4408     1E20  0DA3               	rlf	___xxtofl@arg+1,f
  4409     1E21  0DA4               	rlf	___xxtofl@arg+2,f
  4410     1E22  0DA5               	rlf	___xxtofl@arg+3,f
  4411     1E23  0BFA               	decfsz	??___xxtofl,f
  4412     1E24  2E1E               	goto	u2855
  4413     1E25                     l1963:
  4414     1E25  1BA4               	btfsc	___xxtofl@arg+2,7
  4415     1E26  2E28               	goto	u2861
  4416     1E27  2E29               	goto	u2860
  4417     1E28                     u2861:
  4418     1E28  2E2F               	goto	l562
  4419     1E29                     u2860:
  4420     1E29                     l1965:
  4421     1E29  3002               	movlw	2
  4422     1E2A  0221               	subwf	___xxtofl@exp,w
  4423     1E2B  1803               	skipnc
  4424     1E2C  2E2E               	goto	u2871
  4425     1E2D  2E2F               	goto	u2870
  4426     1E2E                     u2871:
  4427     1E2E  2E1A               	goto	l1961
  4428     1E2F                     u2870:
  4429     1E2F                     l562:
  4430     1E2F  1821               	btfsc	___xxtofl@exp,0
  4431     1E30  2E32               	goto	u2881
  4432     1E31  2E33               	goto	u2880
  4433     1E32                     u2881:
  4434     1E32  2E3B               	goto	l563
  4435     1E33                     u2880:
  4436     1E33                     l1967:
  4437     1E33  30FF               	movlw	255
  4438     1E34  05A2               	andwf	___xxtofl@arg,f
  4439     1E35  30FF               	movlw	255
  4440     1E36  05A3               	andwf	___xxtofl@arg+1,f
  4441     1E37  307F               	movlw	127
  4442     1E38  05A4               	andwf	___xxtofl@arg+2,f
  4443     1E39  30FF               	movlw	255
  4444     1E3A  05A5               	andwf	___xxtofl@arg+3,f
  4445     1E3B                     l563:
  4446     1E3B  1003               	clrc
  4447     1E3C  0CA1               	rrf	___xxtofl@exp,f
  4448     1E3D                     l1969:
  4449     1E3D  0821               	movf	___xxtofl@exp,w
  4450     1E3E  00FA               	movwf	??___xxtofl
  4451     1E3F  01FB               	clrf	??___xxtofl+1
  4452     1E40  01FC               	clrf	??___xxtofl+2
  4453     1E41  01FD               	clrf	??___xxtofl+3
  4454     1E42  3018               	movlw	24
  4455     1E43                     u2895:
  4456     1E43  1003               	clrc
  4457     1E44  0DFA               	rlf	??___xxtofl,f
  4458     1E45  0DFB               	rlf	??___xxtofl+1,f
  4459     1E46  0DFC               	rlf	??___xxtofl+2,f
  4460     1E47  0DFD               	rlf	??___xxtofl+3,f
  4461     1E48                     u2890:
  4462     1E48  3EFF               	addlw	-1
  4463     1E49  1D03               	skipz
  4464     1E4A  2E43               	goto	u2895
  4465     1E4B  087A               	movf	??___xxtofl,w
  4466     1E4C  04A2               	iorwf	___xxtofl@arg,f
  4467     1E4D  087B               	movf	??___xxtofl+1,w
  4468     1E4E  04A3               	iorwf	___xxtofl@arg+1,f
  4469     1E4F  087C               	movf	??___xxtofl+2,w
  4470     1E50  04A4               	iorwf	___xxtofl@arg+2,f
  4471     1E51  087D               	movf	??___xxtofl+3,w
  4472     1E52  04A5               	iorwf	___xxtofl@arg+3,f
  4473     1E53                     l1971:
  4474     1E53  0820               	movf	___xxtofl@sign,w
  4475     1E54  1903               	btfsc	3,2
  4476     1E55  2E57               	goto	u2901
  4477     1E56  2E58               	goto	u2900
  4478     1E57                     u2901:
  4479     1E57  2E5D               	goto	l1977
  4480     1E58                     u2900:
  4481     1E58                     l1973:
  4482     1E58  1FF9               	btfss	___xxtofl@val+3,7
  4483     1E59  2E5B               	goto	u2911
  4484     1E5A  2E5C               	goto	u2910
  4485     1E5B                     u2911:
  4486     1E5B  2E5D               	goto	l1977
  4487     1E5C                     u2910:
  4488     1E5C                     l1975:
  4489     1E5C  17A5               	bsf	___xxtofl@arg+3,7
  4490     1E5D                     l1977:
  4491     1E5D  0825               	movf	___xxtofl@arg+3,w
  4492     1E5E  00F9               	movwf	?___xxtofl+3
  4493     1E5F  0824               	movf	___xxtofl@arg+2,w
  4494     1E60  00F8               	movwf	?___xxtofl+2
  4495     1E61  0823               	movf	___xxtofl@arg+1,w
  4496     1E62  00F7               	movwf	?___xxtofl+1
  4497     1E63  0822               	movf	___xxtofl@arg,w
  4498     1E64  00F6               	movwf	?___xxtofl
  4499     1E65                     l551:
  4500     1E65  0008               	return
  4501     1E66                     __end_of___xxtofl:
  4502                           
  4503                           	psect	text6
  4504     1D34                     __ptext6:	
  4505 ;; *************** function ___fltol *****************
  4506 ;; Defined at:
  4507 ;;		line 43 in file "C:\Program Files\Microchip\xc8\v2.46\pic\sources\c99\common\fltol.c"
  4508 ;; Parameters:    Size  Location     Type
  4509 ;;  f1              4    4[BANK1 ] unsigned char 
  4510 ;; Auto vars:     Size  Location     Type
  4511 ;;  exp1            1   13[BANK1 ] unsigned char 
  4512 ;;  sign1           1   12[BANK1 ] unsigned char 
  4513 ;; Return value:  Size  Location     Type
  4514 ;;                  4    4[BANK1 ] long 
  4515 ;; Registers used:
  4516 ;;		wreg, status,2, status,0, btemp+1
  4517 ;; Tracked objects:
  4518 ;;		On entry : 0/0
  4519 ;;		On exit  : 0/0
  4520 ;;		Unchanged: 0/0
  4521 ;; Data sizes:     COMMON   BANK0   BANK1   BANK3   BANK2
  4522 ;;      Params:         0       0       4       0       0
  4523 ;;      Locals:         0       0       2       0       0
  4524 ;;      Temps:          0       0       4       0       0
  4525 ;;      Totals:         0       0      10       0       0
  4526 ;;Total ram usage:       10 bytes
  4527 ;; Hardware stack levels used: 1
  4528 ;; This function calls:
  4529 ;;		Nothing
  4530 ;; This function is called by:
  4531 ;;		_main
  4532 ;;		___rem_pio2f
  4533 ;; This function uses a non-reentrant model
  4534 ;;
  4535                           
  4536     1D34                     ___fltol:	
  4537                           ;psect for function ___fltol
  4538                           
  4539     1D34                     l1747:	
  4540                           ;incstack = 0
  4541                           ; Regs used in ___fltol: [wreg+status,2+status,0+btemp+1]
  4542                           
  4543     1D34  1003               	clrc
  4544     1D35  1683               	bsf	3,5	;RP0=1, select bank1
  4545     1D36  1303               	bcf	3,6	;RP1=0, select bank1
  4546     1D37  0D26               	rlf	(___fltol@f1+2)^(0+128),w
  4547     1D38  0D27               	rlf	(___fltol@f1+3)^(0+128),w
  4548     1D39  00AD               	movwf	___fltol@exp1^(0+128)
  4549     1D3A  082D               	movf	___fltol@exp1^(0+128),w
  4550     1D3B  1D03               	btfss	3,2
  4551     1D3C  2D3E               	goto	u2311
  4552     1D3D  2D3F               	goto	u2310
  4553     1D3E                     u2311:
  4554     1D3E  2D48               	goto	l1753
  4555     1D3F                     u2310:
  4556     1D3F                     l1749:
  4557     1D3F  3000               	movlw	0
  4558     1D40  00A7               	movwf	(?___fltol+3)^(0+128)
  4559     1D41  3000               	movlw	0
  4560     1D42  00A6               	movwf	(?___fltol+2)^(0+128)
  4561     1D43  3000               	movlw	0
  4562     1D44  00A5               	movwf	(?___fltol+1)^(0+128)
  4563     1D45  3000               	movlw	0
  4564     1D46  00A4               	movwf	?___fltol^(0+128)
  4565     1D47  2DAB               	goto	l302
  4566     1D48                     l1753:
  4567     1D48  0824               	movf	___fltol@f1^(0+128),w
  4568     1D49  00A8               	movwf	??___fltol^(0+128)
  4569     1D4A  0825               	movf	(___fltol@f1+1)^(0+128),w
  4570     1D4B  00A9               	movwf	(??___fltol^(0+128)+1)
  4571     1D4C  0826               	movf	(___fltol@f1+2)^(0+128),w
  4572     1D4D  00AA               	movwf	(??___fltol^(0+128)+2)
  4573     1D4E  0827               	movf	(___fltol@f1+3)^(0+128),w
  4574     1D4F  00AB               	movwf	(??___fltol^(0+128)+3)
  4575     1D50  301F               	movlw	31
  4576     1D51                     u2325:
  4577     1D51  1003               	clrc
  4578     1D52  0CAB               	rrf	(??___fltol^(0+128)+3),f
  4579     1D53  0CAA               	rrf	(??___fltol^(0+128)+2),f
  4580     1D54  0CA9               	rrf	(??___fltol^(0+128)+1),f
  4581     1D55  0CA8               	rrf	??___fltol^(0+128),f
  4582     1D56                     u2320:
  4583     1D56  3EFF               	addlw	-1
  4584     1D57  1D03               	skipz
  4585     1D58  2D51               	goto	u2325
  4586     1D59  0828               	movf	??___fltol^(0+128),w
  4587     1D5A  00AC               	movwf	___fltol@sign1^(0+128)
  4588     1D5B                     l1755:
  4589     1D5B  17A6               	bsf	(___fltol@f1^(0+128)+2),7
  4590     1D5C                     l1757:
  4591     1D5C  30FF               	movlw	255
  4592     1D5D  05A4               	andwf	___fltol@f1^(0+128),f
  4593     1D5E  30FF               	movlw	255
  4594     1D5F  05A5               	andwf	(___fltol@f1+1)^(0+128),f
  4595     1D60  30FF               	movlw	255
  4596     1D61  05A6               	andwf	(___fltol@f1+2)^(0+128),f
  4597     1D62  3000               	movlw	0
  4598     1D63  05A7               	andwf	(___fltol@f1+3)^(0+128),f
  4599     1D64                     l1759:
  4600     1D64  3096               	movlw	150
  4601     1D65  02AD               	subwf	___fltol@exp1^(0+128),f
  4602     1D66                     l1761:
  4603     1D66  1FAD               	btfss	___fltol@exp1^(0+128),7
  4604     1D67  2D69               	goto	u2331
  4605     1D68  2D6A               	goto	u2330
  4606     1D69                     u2331:
  4607     1D69  2D84               	goto	l1773
  4608     1D6A                     u2330:
  4609     1D6A                     l1763:
  4610     1D6A  082D               	movf	___fltol@exp1^(0+128),w
  4611     1D6B  3A80               	xorlw	128
  4612     1D6C  3E97               	addlw	151
  4613     1D6D  1803               	skipnc
  4614     1D6E  2D70               	goto	u2341
  4615     1D6F  2D71               	goto	u2340
  4616     1D70                     u2341:
  4617     1D70  2D72               	goto	l1769
  4618     1D71                     u2340:
  4619     1D71  2D3F               	goto	l1749
  4620     1D72                     l1769:
  4621     1D72  3001               	movlw	1
  4622     1D73                     u2355:
  4623     1D73  1003               	clrc
  4624     1D74  0CA7               	rrf	(___fltol@f1+3)^(0+128),f
  4625     1D75  0CA6               	rrf	(___fltol@f1+2)^(0+128),f
  4626     1D76  0CA5               	rrf	(___fltol@f1+1)^(0+128),f
  4627     1D77  0CA4               	rrf	___fltol@f1^(0+128),f
  4628     1D78  3EFF               	addlw	-1
  4629     1D79  1D03               	skipz
  4630     1D7A  2D73               	goto	u2355
  4631     1D7B                     l1771:
  4632     1D7B  3001               	movlw	1
  4633     1D7C  00FF               	movwf	btemp+1
  4634     1D7D  087F               	movf	btemp+1,w
  4635     1D7E  07AD               	addwf	___fltol@exp1^(0+128),f
  4636     1D7F  1D03               	btfss	3,2
  4637     1D80  2D82               	goto	u2361
  4638     1D81  2D83               	goto	u2360
  4639     1D82                     u2361:
  4640     1D82  2D72               	goto	l1769
  4641     1D83                     u2360:
  4642     1D83  2D9B               	goto	l1781
  4643     1D84                     l1773:
  4644     1D84  3020               	movlw	32
  4645     1D85  022D               	subwf	___fltol@exp1^(0+128),w
  4646     1D86  1C03               	skipc
  4647     1D87  2D89               	goto	u2371
  4648     1D88  2D8A               	goto	u2370
  4649     1D89                     u2371:
  4650     1D89  2D96               	goto	l309
  4651     1D8A                     u2370:
  4652     1D8A  2D3F               	goto	l1749
  4653     1D8B                     l1779:
  4654     1D8B  3001               	movlw	1
  4655     1D8C  00A8               	movwf	??___fltol^(0+128)
  4656     1D8D                     u2385:
  4657     1D8D  1003               	clrc
  4658     1D8E  0DA4               	rlf	___fltol@f1^(0+128),f
  4659     1D8F  0DA5               	rlf	(___fltol@f1+1)^(0+128),f
  4660     1D90  0DA6               	rlf	(___fltol@f1+2)^(0+128),f
  4661     1D91  0DA7               	rlf	(___fltol@f1+3)^(0+128),f
  4662     1D92  0BA8               	decfsz	??___fltol^(0+128),f
  4663     1D93  2D8D               	goto	u2385
  4664     1D94  3001               	movlw	1
  4665     1D95  02AD               	subwf	___fltol@exp1^(0+128),f
  4666     1D96                     l309:
  4667     1D96  082D               	movf	___fltol@exp1^(0+128),w
  4668     1D97  1D03               	btfss	3,2
  4669     1D98  2D9A               	goto	u2391
  4670     1D99  2D9B               	goto	u2390
  4671     1D9A                     u2391:
  4672     1D9A  2D8B               	goto	l1779
  4673     1D9B                     u2390:
  4674     1D9B                     l1781:
  4675     1D9B  082C               	movf	___fltol@sign1^(0+128),w
  4676     1D9C  1903               	btfsc	3,2
  4677     1D9D  2D9F               	goto	u2401
  4678     1D9E  2DA0               	goto	u2400
  4679     1D9F                     u2401:
  4680     1D9F  2DAB               	goto	l312
  4681     1DA0                     u2400:
  4682     1DA0                     l1783:
  4683     1DA0  09A4               	comf	___fltol@f1^(0+128),f
  4684     1DA1  09A5               	comf	(___fltol@f1+1)^(0+128),f
  4685     1DA2  09A6               	comf	(___fltol@f1+2)^(0+128),f
  4686     1DA3  09A7               	comf	(___fltol@f1+3)^(0+128),f
  4687     1DA4  0AA4               	incf	___fltol@f1^(0+128),f
  4688     1DA5  1903               	skipnz
  4689     1DA6  0AA5               	incf	(___fltol@f1+1)^(0+128),f
  4690     1DA7  1903               	skipnz
  4691     1DA8  0AA6               	incf	(___fltol@f1+2)^(0+128),f
  4692     1DA9  1903               	skipnz
  4693     1DAA  0AA7               	incf	(___fltol@f1+3)^(0+128),f
  4694     1DAB                     l312:
  4695     1DAB                     l302:
  4696     1DAB  0008               	return
  4697     1DAC                     __end_of___fltol:
  4698                           
  4699                           	psect	text7
  4700     083B                     __ptext7:	
  4701 ;; *************** function ___cosdf *****************
  4702 ;; Defined at:
  4703 ;;		line 26 in file "C:\Program Files\Microchip\xc8\v2.46\pic\sources\c99\common\__cosdf.c"
  4704 ;; Parameters:    Size  Location     Type
  4705 ;;  x               4   52[BANK0 ] long 
  4706 ;; Auto vars:     Size  Location     Type
  4707 ;;  z               4   76[BANK0 ] long 
  4708 ;;  w               4   72[BANK0 ] long 
  4709 ;;  r               4   56[BANK0 ] long 
  4710 ;; Return value:  Size  Location     Type
  4711 ;;                  4   52[BANK0 ] float 
  4712 ;; Registers used:
  4713 ;;		wreg, status,2, status,0, btemp+1, pclath, cstack
  4714 ;; Tracked objects:
  4715 ;;		On entry : 0/0
  4716 ;;		On exit  : 0/0
  4717 ;;		Unchanged: 0/0
  4718 ;; Data sizes:     COMMON   BANK0   BANK1   BANK3   BANK2
  4719 ;;      Params:         0       4       0       0       0
  4720 ;;      Locals:         0      24       0       0       0
  4721 ;;      Temps:          0       0       0       0       0
  4722 ;;      Totals:         0      28       0       0       0
  4723 ;;Total ram usage:       28 bytes
  4724 ;; Hardware stack levels used: 1
  4725 ;; Hardware stack levels required when called: 2
  4726 ;; This function calls:
  4727 ;;		___fladd
  4728 ;;		___flmul
  4729 ;; This function is called by:
  4730 ;;		_sinf
  4731 ;; This function uses a non-reentrant model
  4732 ;;
  4733                           
  4734     083B                     ___cosdf:	
  4735                           ;psect for function ___cosdf
  4736                           
  4737     083B                     l2009:	
  4738                           ;incstack = 0
  4739                           ; Regs used in ___cosdf: [wreg+status,2+status,0+btemp+1+pclath+cstack]
  4740                           
  4741     083B  1283               	bcf	3,5	;RP0=0, select bank0
  4742     083C  1303               	bcf	3,6	;RP1=0, select bank0
  4743     083D  0857               	movf	___cosdf@x+3,w
  4744     083E  00A9               	movwf	___flmul@b+3
  4745     083F  0856               	movf	___cosdf@x+2,w
  4746     0840  00A8               	movwf	___flmul@b+2
  4747     0841  0855               	movf	___cosdf@x+1,w
  4748     0842  00A7               	movwf	___flmul@b+1
  4749     0843  0854               	movf	___cosdf@x,w
  4750     0844  00A6               	movwf	___flmul@b
  4751     0845  0857               	movf	___cosdf@x+3,w
  4752     0846  00AD               	movwf	___flmul@a+3
  4753     0847  0856               	movf	___cosdf@x+2,w
  4754     0848  00AC               	movwf	___flmul@a+2
  4755     0849  0855               	movf	___cosdf@x+1,w
  4756     084A  00AB               	movwf	___flmul@a+1
  4757     084B  0854               	movf	___cosdf@x,w
  4758     084C  00AA               	movwf	___flmul@a
  4759     084D  120A  158A  2173  120A  158A  	fcall	___flmul
  4760     0852  1283               	bcf	3,5	;RP0=0, select bank0
  4761     0853  1303               	bcf	3,6	;RP1=0, select bank0
  4762     0854  0829               	movf	?___flmul+3,w
  4763     0855  00EF               	movwf	___cosdf@z+3
  4764     0856  0828               	movf	?___flmul+2,w
  4765     0857  00EE               	movwf	___cosdf@z+2
  4766     0858  0827               	movf	?___flmul+1,w
  4767     0859  00ED               	movwf	___cosdf@z+1
  4768     085A  0826               	movf	?___flmul,w
  4769     085B  00EC               	movwf	___cosdf@z
  4770     085C  086F               	movf	___cosdf@z+3,w
  4771     085D  00A9               	movwf	___flmul@b+3
  4772     085E  086E               	movf	___cosdf@z+2,w
  4773     085F  00A8               	movwf	___flmul@b+2
  4774     0860  086D               	movf	___cosdf@z+1,w
  4775     0861  00A7               	movwf	___flmul@b+1
  4776     0862  086C               	movf	___cosdf@z,w
  4777     0863  00A6               	movwf	___flmul@b
  4778     0864  086F               	movf	___cosdf@z+3,w
  4779     0865  00AD               	movwf	___flmul@a+3
  4780     0866  086E               	movf	___cosdf@z+2,w
  4781     0867  00AC               	movwf	___flmul@a+2
  4782     0868  086D               	movf	___cosdf@z+1,w
  4783     0869  00AB               	movwf	___flmul@a+1
  4784     086A  086C               	movf	___cosdf@z,w
  4785     086B  00AA               	movwf	___flmul@a
  4786     086C  120A  158A  2173  120A  158A  	fcall	___flmul
  4787     0871  1283               	bcf	3,5	;RP0=0, select bank0
  4788     0872  1303               	bcf	3,6	;RP1=0, select bank0
  4789     0873  0829               	movf	?___flmul+3,w
  4790     0874  00EB               	movwf	___cosdf@w+3
  4791     0875  0828               	movf	?___flmul+2,w
  4792     0876  00EA               	movwf	___cosdf@w+2
  4793     0877  0827               	movf	?___flmul+1,w
  4794     0878  00E9               	movwf	___cosdf@w+1
  4795     0879  0826               	movf	?___flmul,w
  4796     087A  00E8               	movwf	___cosdf@w
  4797     087B  30BA               	movlw	186
  4798     087C  00C3               	movwf	___fladd@b+3
  4799     087D  30B6               	movlw	182
  4800     087E  00C2               	movwf	___fladd@b+2
  4801     087F  3004               	movlw	4
  4802     0880  00C1               	movwf	___fladd@b+1
  4803     0881  303F               	movlw	63
  4804     0882  00C0               	movwf	___fladd@b
  4805     0883  3037               	movlw	55
  4806     0884  00A9               	movwf	___flmul@b+3
  4807     0885  30CC               	movlw	204
  4808     0886  00A8               	movwf	___flmul@b+2
  4809     0887  309A               	movlw	154
  4810     0888  00A7               	movwf	___flmul@b+1
  4811     0889  3017               	movlw	23
  4812     088A  00A6               	movwf	___flmul@b
  4813     088B  086F               	movf	___cosdf@z+3,w
  4814     088C  00AD               	movwf	___flmul@a+3
  4815     088D  086E               	movf	___cosdf@z+2,w
  4816     088E  00AC               	movwf	___flmul@a+2
  4817     088F  086D               	movf	___cosdf@z+1,w
  4818     0890  00AB               	movwf	___flmul@a+1
  4819     0891  086C               	movf	___cosdf@z,w
  4820     0892  00AA               	movwf	___flmul@a
  4821     0893  120A  158A  2173  120A  158A  	fcall	___flmul
  4822     0898  1283               	bcf	3,5	;RP0=0, select bank0
  4823     0899  1303               	bcf	3,6	;RP1=0, select bank0
  4824     089A  0829               	movf	?___flmul+3,w
  4825     089B  00C7               	movwf	___fladd@a+3
  4826     089C  0828               	movf	?___flmul+2,w
  4827     089D  00C6               	movwf	___fladd@a+2
  4828     089E  0827               	movf	?___flmul+1,w
  4829     089F  00C5               	movwf	___fladd@a+1
  4830     08A0  0826               	movf	?___flmul,w
  4831     08A1  00C4               	movwf	___fladd@a
  4832     08A2  160A  118A  20AA  120A  158A  	fcall	___fladd
  4833     08A7  1283               	bcf	3,5	;RP0=0, select bank0
  4834     08A8  1303               	bcf	3,6	;RP1=0, select bank0
  4835     08A9  0843               	movf	?___fladd+3,w
  4836     08AA  00DB               	movwf	___cosdf@r+3
  4837     08AB  0842               	movf	?___fladd+2,w
  4838     08AC  00DA               	movwf	___cosdf@r+2
  4839     08AD  0841               	movf	?___fladd+1,w
  4840     08AE  00D9               	movwf	___cosdf@r+1
  4841     08AF  0840               	movf	?___fladd,w
  4842     08B0  00D8               	movwf	___cosdf@r
  4843     08B1  086F               	movf	___cosdf@z+3,w
  4844     08B2  00A9               	movwf	___flmul@b+3
  4845     08B3  086E               	movf	___cosdf@z+2,w
  4846     08B4  00A8               	movwf	___flmul@b+2
  4847     08B5  086D               	movf	___cosdf@z+1,w
  4848     08B6  00A7               	movwf	___flmul@b+1
  4849     08B7  086C               	movf	___cosdf@z,w
  4850     08B8  00A6               	movwf	___flmul@b
  4851     08B9  086B               	movf	___cosdf@w+3,w
  4852     08BA  00AD               	movwf	___flmul@a+3
  4853     08BB  086A               	movf	___cosdf@w+2,w
  4854     08BC  00AC               	movwf	___flmul@a+2
  4855     08BD  0869               	movf	___cosdf@w+1,w
  4856     08BE  00AB               	movwf	___flmul@a+1
  4857     08BF  0868               	movf	___cosdf@w,w
  4858     08C0  00AA               	movwf	___flmul@a
  4859     08C1  120A  158A  2173  120A  158A  	fcall	___flmul
  4860     08C6  1283               	bcf	3,5	;RP0=0, select bank0
  4861     08C7  1303               	bcf	3,6	;RP1=0, select bank0
  4862     08C8  0829               	movf	?___flmul+3,w
  4863     08C9  00DF               	movwf	___cosdf$759+3
  4864     08CA  0828               	movf	?___flmul+2,w
  4865     08CB  00DE               	movwf	___cosdf$759+2
  4866     08CC  0827               	movf	?___flmul+1,w
  4867     08CD  00DD               	movwf	___cosdf$759+1
  4868     08CE  0826               	movf	?___flmul,w
  4869     08CF  00DC               	movwf	___cosdf$759
  4870     08D0  303F               	movlw	63
  4871     08D1  00C3               	movwf	___fladd@b+3
  4872     08D2  3080               	movlw	128
  4873     08D3  00C2               	movwf	___fladd@b+2
  4874     08D4  3000               	movlw	0
  4875     08D5  00C1               	movwf	___fladd@b+1
  4876     08D6  3000               	movlw	0
  4877     08D7  00C0               	movwf	___fladd@b
  4878     08D8  30BF               	movlw	191
  4879     08D9  00A9               	movwf	___flmul@b+3
  4880     08DA  3000               	movlw	0
  4881     08DB  00A8               	movwf	___flmul@b+2
  4882     08DC  3000               	movlw	0
  4883     08DD  00A7               	movwf	___flmul@b+1
  4884     08DE  3000               	movlw	0
  4885     08DF  00A6               	movwf	___flmul@b
  4886     08E0  086F               	movf	___cosdf@z+3,w
  4887     08E1  00AD               	movwf	___flmul@a+3
  4888     08E2  086E               	movf	___cosdf@z+2,w
  4889     08E3  00AC               	movwf	___flmul@a+2
  4890     08E4  086D               	movf	___cosdf@z+1,w
  4891     08E5  00AB               	movwf	___flmul@a+1
  4892     08E6  086C               	movf	___cosdf@z,w
  4893     08E7  00AA               	movwf	___flmul@a
  4894     08E8  120A  158A  2173  120A  158A  	fcall	___flmul
  4895     08ED  1283               	bcf	3,5	;RP0=0, select bank0
  4896     08EE  1303               	bcf	3,6	;RP1=0, select bank0
  4897     08EF  0829               	movf	?___flmul+3,w
  4898     08F0  00C7               	movwf	___fladd@a+3
  4899     08F1  0828               	movf	?___flmul+2,w
  4900     08F2  00C6               	movwf	___fladd@a+2
  4901     08F3  0827               	movf	?___flmul+1,w
  4902     08F4  00C5               	movwf	___fladd@a+1
  4903     08F5  0826               	movf	?___flmul,w
  4904     08F6  00C4               	movwf	___fladd@a
  4905     08F7  160A  118A  20AA  120A  158A  	fcall	___fladd
  4906     08FC  1283               	bcf	3,5	;RP0=0, select bank0
  4907     08FD  1303               	bcf	3,6	;RP1=0, select bank0
  4908     08FE  0843               	movf	?___fladd+3,w
  4909     08FF  00E3               	movwf	___cosdf$760+3
  4910     0900  0842               	movf	?___fladd+2,w
  4911     0901  00E2               	movwf	___cosdf$760+2
  4912     0902  0841               	movf	?___fladd+1,w
  4913     0903  00E1               	movwf	___cosdf$760+1
  4914     0904  0840               	movf	?___fladd,w
  4915     0905  00E0               	movwf	___cosdf$760
  4916     0906  303D               	movlw	61
  4917     0907  00A9               	movwf	___flmul@b+3
  4918     0908  302A               	movlw	42
  4919     0909  00A8               	movwf	___flmul@b+2
  4920     090A  30AA               	movlw	170
  4921     090B  00A7               	movwf	___flmul@b+1
  4922     090C  309F               	movlw	159
  4923     090D  00A6               	movwf	___flmul@b
  4924     090E  086B               	movf	___cosdf@w+3,w
  4925     090F  00AD               	movwf	___flmul@a+3
  4926     0910  086A               	movf	___cosdf@w+2,w
  4927     0911  00AC               	movwf	___flmul@a+2
  4928     0912  0869               	movf	___cosdf@w+1,w
  4929     0913  00AB               	movwf	___flmul@a+1
  4930     0914  0868               	movf	___cosdf@w,w
  4931     0915  00AA               	movwf	___flmul@a
  4932     0916  120A  158A  2173  120A  158A  	fcall	___flmul
  4933     091B  1283               	bcf	3,5	;RP0=0, select bank0
  4934     091C  1303               	bcf	3,6	;RP1=0, select bank0
  4935     091D  0829               	movf	?___flmul+3,w
  4936     091E  00C3               	movwf	___fladd@b+3
  4937     091F  0828               	movf	?___flmul+2,w
  4938     0920  00C2               	movwf	___fladd@b+2
  4939     0921  0827               	movf	?___flmul+1,w
  4940     0922  00C1               	movwf	___fladd@b+1
  4941     0923  0826               	movf	?___flmul,w
  4942     0924  00C0               	movwf	___fladd@b
  4943     0925  0863               	movf	___cosdf$760+3,w
  4944     0926  00C7               	movwf	___fladd@a+3
  4945     0927  0862               	movf	___cosdf$760+2,w
  4946     0928  00C6               	movwf	___fladd@a+2
  4947     0929  0861               	movf	___cosdf$760+1,w
  4948     092A  00C5               	movwf	___fladd@a+1
  4949     092B  0860               	movf	___cosdf$760,w
  4950     092C  00C4               	movwf	___fladd@a
  4951     092D  160A  118A  20AA  120A  158A  	fcall	___fladd
  4952     0932  1283               	bcf	3,5	;RP0=0, select bank0
  4953     0933  1303               	bcf	3,6	;RP1=0, select bank0
  4954     0934  0843               	movf	?___fladd+3,w
  4955     0935  00E7               	movwf	___cosdf$761+3
  4956     0936  0842               	movf	?___fladd+2,w
  4957     0937  00E6               	movwf	___cosdf$761+2
  4958     0938  0841               	movf	?___fladd+1,w
  4959     0939  00E5               	movwf	___cosdf$761+1
  4960     093A  0840               	movf	?___fladd,w
  4961     093B  00E4               	movwf	___cosdf$761
  4962     093C  085B               	movf	___cosdf@r+3,w
  4963     093D  00A9               	movwf	___flmul@b+3
  4964     093E  085A               	movf	___cosdf@r+2,w
  4965     093F  00A8               	movwf	___flmul@b+2
  4966     0940  0859               	movf	___cosdf@r+1,w
  4967     0941  00A7               	movwf	___flmul@b+1
  4968     0942  0858               	movf	___cosdf@r,w
  4969     0943  00A6               	movwf	___flmul@b
  4970     0944  085F               	movf	___cosdf$759+3,w
  4971     0945  00AD               	movwf	___flmul@a+3
  4972     0946  085E               	movf	___cosdf$759+2,w
  4973     0947  00AC               	movwf	___flmul@a+2
  4974     0948  085D               	movf	___cosdf$759+1,w
  4975     0949  00AB               	movwf	___flmul@a+1
  4976     094A  085C               	movf	___cosdf$759,w
  4977     094B  00AA               	movwf	___flmul@a
  4978     094C  120A  158A  2173  120A  158A  	fcall	___flmul
  4979     0951  1283               	bcf	3,5	;RP0=0, select bank0
  4980     0952  1303               	bcf	3,6	;RP1=0, select bank0
  4981     0953  0829               	movf	?___flmul+3,w
  4982     0954  00C3               	movwf	___fladd@b+3
  4983     0955  0828               	movf	?___flmul+2,w
  4984     0956  00C2               	movwf	___fladd@b+2
  4985     0957  0827               	movf	?___flmul+1,w
  4986     0958  00C1               	movwf	___fladd@b+1
  4987     0959  0826               	movf	?___flmul,w
  4988     095A  00C0               	movwf	___fladd@b
  4989     095B  0867               	movf	___cosdf$761+3,w
  4990     095C  00C7               	movwf	___fladd@a+3
  4991     095D  0866               	movf	___cosdf$761+2,w
  4992     095E  00C6               	movwf	___fladd@a+2
  4993     095F  0865               	movf	___cosdf$761+1,w
  4994     0960  00C5               	movwf	___fladd@a+1
  4995     0961  0864               	movf	___cosdf$761,w
  4996     0962  00C4               	movwf	___fladd@a
  4997     0963  160A  118A  20AA  120A  158A  	fcall	___fladd
  4998     0968  1283               	bcf	3,5	;RP0=0, select bank0
  4999     0969  1303               	bcf	3,6	;RP1=0, select bank0
  5000     096A  0843               	movf	?___fladd+3,w
  5001     096B  00D7               	movwf	?___cosdf+3
  5002     096C  0842               	movf	?___fladd+2,w
  5003     096D  00D6               	movwf	?___cosdf+2
  5004     096E  0841               	movf	?___fladd+1,w
  5005     096F  00D5               	movwf	?___cosdf+1
  5006     0970  0840               	movf	?___fladd,w
  5007     0971  00D4               	movwf	?___cosdf
  5008     0972                     l631:
  5009     0972  0008               	return
  5010     0973                     __end_of___cosdf:
  5011                           
  5012                           	psect	text8
  5013     0973                     __ptext8:	
  5014 ;; *************** function ___flmul *****************
  5015 ;; Defined at:
  5016 ;;		line 8 in file "C:\Program Files\Microchip\xc8\v2.46\pic\sources\c99\common\sprcmul.c"
  5017 ;; Parameters:    Size  Location     Type
  5018 ;;  b               4    6[BANK0 ] float 
  5019 ;;  a               4   10[BANK0 ] float 
  5020 ;; Auto vars:     Size  Location     Type
  5021 ;;  prod            4   26[BANK0 ] struct .
  5022 ;;  grs             4   20[BANK0 ] unsigned long 
  5023 ;;  temp            2   30[BANK0 ] struct .
  5024 ;;  bexp            1   25[BANK0 ] unsigned char 
  5025 ;;  aexp            1   24[BANK0 ] unsigned char 
  5026 ;;  sign            1   19[BANK0 ] unsigned char 
  5027 ;; Return value:  Size  Location     Type
  5028 ;;                  4    6[BANK0 ] unsigned char 
  5029 ;; Registers used:
  5030 ;;		wreg, status,2, status,0, btemp+1, pclath, cstack
  5031 ;; Tracked objects:
  5032 ;;		On entry : 0/0
  5033 ;;		On exit  : 0/0
  5034 ;;		Unchanged: 0/0
  5035 ;; Data sizes:     COMMON   BANK0   BANK1   BANK3   BANK2
  5036 ;;      Params:         0       8       0       0       0
  5037 ;;      Locals:         0      13       0       0       0
  5038 ;;      Temps:          0       5       0       0       0
  5039 ;;      Totals:         0      26       0       0       0
  5040 ;;Total ram usage:       26 bytes
  5041 ;; Hardware stack levels used: 1
  5042 ;; Hardware stack levels required when called: 1
  5043 ;; This function calls:
  5044 ;;		__Umul8_16
  5045 ;; This function is called by:
  5046 ;;		_main
  5047 ;;		___cosdf
  5048 ;;		___rem_pio2f
  5049 ;;		___sindf
  5050 ;; This function uses a non-reentrant model
  5051 ;;
  5052                           
  5053     0973                     ___flmul:	
  5054                           ;psect for function ___flmul
  5055                           
  5056     0973                     l1791:	
  5057                           ;incstack = 0
  5058                           ; Regs used in ___flmul: [wreg+status,2+status,0+btemp+1+pclath+cstack]
  5059                           
  5060     0973  1283               	bcf	3,5	;RP0=0, select bank0
  5061     0974  1303               	bcf	3,6	;RP1=0, select bank0
  5062     0975  0829               	movf	___flmul@b+3,w
  5063     0976  3980               	andlw	128
  5064     0977  00B3               	movwf	___flmul@sign
  5065     0978                     l1793:
  5066     0978  0829               	movf	___flmul@b+3,w
  5067     0979  00AE               	movwf	??___flmul
  5068     097A  072E               	addwf	??___flmul,w
  5069     097B  00B9               	movwf	___flmul@bexp
  5070     097C                     l1795:
  5071     097C  1FA8               	btfss	___flmul@b+2,7
  5072     097D  297F               	goto	u2411
  5073     097E  2980               	goto	u2410
  5074     097F                     u2411:
  5075     097F  2981               	goto	l1799
  5076     0980                     u2410:
  5077     0980                     l1797:
  5078     0980  1439               	bsf	___flmul@bexp,0
  5079     0981                     l1799:
  5080     0981  0839               	movf	___flmul@bexp,w
  5081     0982  1903               	btfsc	3,2
  5082     0983  2985               	goto	u2421
  5083     0984  2986               	goto	u2420
  5084     0985                     u2421:
  5085     0985  2995               	goto	l1807
  5086     0986                     u2420:
  5087     0986                     l1801:
  5088     0986  0A39               	incf	___flmul@bexp,w
  5089     0987  1D03               	btfss	3,2
  5090     0988  298A               	goto	u2431
  5091     0989  298B               	goto	u2430
  5092     098A                     u2431:
  5093     098A  2993               	goto	l1805
  5094     098B                     u2430:
  5095     098B                     l1803:
  5096     098B  3000               	movlw	0
  5097     098C  00A9               	movwf	___flmul@b+3
  5098     098D  3000               	movlw	0
  5099     098E  00A8               	movwf	___flmul@b+2
  5100     098F  3000               	movlw	0
  5101     0990  00A7               	movwf	___flmul@b+1
  5102     0991  3000               	movlw	0
  5103     0992  00A6               	movwf	___flmul@b
  5104     0993                     l1805:
  5105     0993  17A8               	bsf	___flmul@b+2,7
  5106     0994  299D               	goto	l1809
  5107     0995                     l1807:
  5108     0995  3000               	movlw	0
  5109     0996  00A9               	movwf	___flmul@b+3
  5110     0997  3000               	movlw	0
  5111     0998  00A8               	movwf	___flmul@b+2
  5112     0999  3000               	movlw	0
  5113     099A  00A7               	movwf	___flmul@b+1
  5114     099B  3000               	movlw	0
  5115     099C  00A6               	movwf	___flmul@b
  5116     099D                     l1809:
  5117     099D  082D               	movf	___flmul@a+3,w
  5118     099E  3980               	andlw	128
  5119     099F  00FF               	movwf	btemp+1
  5120     09A0  087F               	movf	btemp+1,w
  5121     09A1  06B3               	xorwf	___flmul@sign,f
  5122     09A2                     l1811:
  5123     09A2  082D               	movf	___flmul@a+3,w
  5124     09A3  00AE               	movwf	??___flmul
  5125     09A4  072E               	addwf	??___flmul,w
  5126     09A5  00B8               	movwf	___flmul@aexp
  5127     09A6                     l1813:
  5128     09A6  1FAC               	btfss	___flmul@a+2,7
  5129     09A7  29A9               	goto	u2441
  5130     09A8  29AA               	goto	u2440
  5131     09A9                     u2441:
  5132     09A9  29AB               	goto	l1817
  5133     09AA                     u2440:
  5134     09AA                     l1815:
  5135     09AA  1438               	bsf	___flmul@aexp,0
  5136     09AB                     l1817:
  5137     09AB  0838               	movf	___flmul@aexp,w
  5138     09AC  1903               	btfsc	3,2
  5139     09AD  29AF               	goto	u2451
  5140     09AE  29B0               	goto	u2450
  5141     09AF                     u2451:
  5142     09AF  29BF               	goto	l1825
  5143     09B0                     u2450:
  5144     09B0                     l1819:
  5145     09B0  0A38               	incf	___flmul@aexp,w
  5146     09B1  1D03               	btfss	3,2
  5147     09B2  29B4               	goto	u2461
  5148     09B3  29B5               	goto	u2460
  5149     09B4                     u2461:
  5150     09B4  29BD               	goto	l1823
  5151     09B5                     u2460:
  5152     09B5                     l1821:
  5153     09B5  3000               	movlw	0
  5154     09B6  00AD               	movwf	___flmul@a+3
  5155     09B7  3000               	movlw	0
  5156     09B8  00AC               	movwf	___flmul@a+2
  5157     09B9  3000               	movlw	0
  5158     09BA  00AB               	movwf	___flmul@a+1
  5159     09BB  3000               	movlw	0
  5160     09BC  00AA               	movwf	___flmul@a
  5161     09BD                     l1823:
  5162     09BD  17AC               	bsf	___flmul@a+2,7
  5163     09BE  29C7               	goto	l1827
  5164     09BF                     l1825:
  5165     09BF  3000               	movlw	0
  5166     09C0  00AD               	movwf	___flmul@a+3
  5167     09C1  3000               	movlw	0
  5168     09C2  00AC               	movwf	___flmul@a+2
  5169     09C3  3000               	movlw	0
  5170     09C4  00AB               	movwf	___flmul@a+1
  5171     09C5  3000               	movlw	0
  5172     09C6  00AA               	movwf	___flmul@a
  5173     09C7                     l1827:
  5174     09C7  0838               	movf	___flmul@aexp,w
  5175     09C8  1903               	btfsc	3,2
  5176     09C9  29CB               	goto	u2471
  5177     09CA  29CC               	goto	u2470
  5178     09CB                     u2471:
  5179     09CB  29D1               	goto	l1831
  5180     09CC                     u2470:
  5181     09CC                     l1829:
  5182     09CC  0839               	movf	___flmul@bexp,w
  5183     09CD  1D03               	btfss	3,2
  5184     09CE  29D0               	goto	u2481
  5185     09CF  29D1               	goto	u2480
  5186     09D0                     u2481:
  5187     09D0  29DA               	goto	l1835
  5188     09D1                     u2480:
  5189     09D1                     l1831:
  5190     09D1  3000               	movlw	0
  5191     09D2  00A9               	movwf	?___flmul+3
  5192     09D3  3000               	movlw	0
  5193     09D4  00A8               	movwf	?___flmul+2
  5194     09D5  3000               	movlw	0
  5195     09D6  00A7               	movwf	?___flmul+1
  5196     09D7  3000               	movlw	0
  5197     09D8  00A6               	movwf	?___flmul
  5198     09D9  2CB7               	goto	l505
  5199     09DA                     l1835:
  5200     09DA  0826               	movf	___flmul@b,w
  5201     09DB  00F0               	movwf	__Umul8_16@multiplicand
  5202     09DC  082C               	movf	___flmul@a+2,w
  5203     09DD  120A  158A  2014  120A  158A  	fcall	__Umul8_16
  5204     09E2  0871               	movf	?__Umul8_16+1,w
  5205     09E3  1283               	bcf	3,5	;RP0=0, select bank0
  5206     09E4  1303               	bcf	3,6	;RP1=0, select bank0
  5207     09E5  00BF               	movwf	___flmul@temp+1
  5208     09E6  0870               	movf	?__Umul8_16,w
  5209     09E7  00BE               	movwf	___flmul@temp
  5210     09E8                     l1837:
  5211     09E8  083E               	movf	___flmul@temp,w
  5212     09E9  00AE               	movwf	??___flmul
  5213     09EA  01AF               	clrf	??___flmul+1
  5214     09EB  01B0               	clrf	??___flmul+2
  5215     09EC  01B1               	clrf	??___flmul+3
  5216     09ED  0831               	movf	??___flmul+3,w
  5217     09EE  00B7               	movwf	___flmul@grs+3
  5218     09EF  0830               	movf	??___flmul+2,w
  5219     09F0  00B6               	movwf	___flmul@grs+2
  5220     09F1  082F               	movf	??___flmul+1,w
  5221     09F2  00B5               	movwf	___flmul@grs+1
  5222     09F3  082E               	movf	??___flmul,w
  5223     09F4  00B4               	movwf	___flmul@grs
  5224     09F5                     l1839:
  5225     09F5  083F               	movf	___flmul@temp+1,w
  5226     09F6  00AE               	movwf	??___flmul
  5227     09F7  01AF               	clrf	??___flmul+1
  5228     09F8  01B0               	clrf	??___flmul+2
  5229     09F9  01B1               	clrf	??___flmul+3
  5230     09FA  0831               	movf	??___flmul+3,w
  5231     09FB  00BD               	movwf	___flmul@prod+3
  5232     09FC  0830               	movf	??___flmul+2,w
  5233     09FD  00BC               	movwf	___flmul@prod+2
  5234     09FE  082F               	movf	??___flmul+1,w
  5235     09FF  00BB               	movwf	___flmul@prod+1
  5236     0A00  082E               	movf	??___flmul,w
  5237     0A01  00BA               	movwf	___flmul@prod
  5238     0A02  0827               	movf	___flmul@b+1,w
  5239     0A03  00F0               	movwf	__Umul8_16@multiplicand
  5240     0A04  082B               	movf	___flmul@a+1,w
  5241     0A05  120A  158A  2014  120A  158A  	fcall	__Umul8_16
  5242     0A0A  0871               	movf	?__Umul8_16+1,w
  5243     0A0B  1283               	bcf	3,5	;RP0=0, select bank0
  5244     0A0C  1303               	bcf	3,6	;RP1=0, select bank0
  5245     0A0D  00BF               	movwf	___flmul@temp+1
  5246     0A0E  0870               	movf	?__Umul8_16,w
  5247     0A0F  00BE               	movwf	___flmul@temp
  5248     0A10                     l1841:
  5249     0A10  083E               	movf	___flmul@temp,w
  5250     0A11  00AE               	movwf	??___flmul
  5251     0A12  01AF               	clrf	??___flmul+1
  5252     0A13  01B0               	clrf	??___flmul+2
  5253     0A14  01B1               	clrf	??___flmul+3
  5254     0A15  082E               	movf	??___flmul,w
  5255     0A16  07B4               	addwf	___flmul@grs,f
  5256     0A17  082F               	movf	??___flmul+1,w
  5257     0A18  1103               	clrz
  5258     0A19  1803               	skipnc
  5259     0A1A  3E01               	addlw	1
  5260     0A1B  1903               	skipnz
  5261     0A1C  2A1E               	goto	u2491
  5262     0A1D  07B5               	addwf	___flmul@grs+1,f
  5263     0A1E                     u2491:
  5264     0A1E  0830               	movf	??___flmul+2,w
  5265     0A1F  1103               	clrz
  5266     0A20  1803               	skipnc
  5267     0A21  3E01               	addlw	1
  5268     0A22  1903               	skipnz
  5269     0A23  2A25               	goto	u2492
  5270     0A24  07B6               	addwf	___flmul@grs+2,f
  5271     0A25                     u2492:
  5272     0A25  0831               	movf	??___flmul+3,w
  5273     0A26  1103               	clrz
  5274     0A27  1803               	skipnc
  5275     0A28  3E01               	addlw	1
  5276     0A29  1903               	skipnz
  5277     0A2A  2A2C               	goto	u2493
  5278     0A2B  07B7               	addwf	___flmul@grs+3,f
  5279     0A2C                     u2493:
  5280     0A2C                     l1843:
  5281     0A2C  083F               	movf	___flmul@temp+1,w
  5282     0A2D  00AE               	movwf	??___flmul
  5283     0A2E  01AF               	clrf	??___flmul+1
  5284     0A2F  01B0               	clrf	??___flmul+2
  5285     0A30  01B1               	clrf	??___flmul+3
  5286     0A31  082E               	movf	??___flmul,w
  5287     0A32  07BA               	addwf	___flmul@prod,f
  5288     0A33  082F               	movf	??___flmul+1,w
  5289     0A34  1103               	clrz
  5290     0A35  1803               	skipnc
  5291     0A36  3E01               	addlw	1
  5292     0A37  1903               	skipnz
  5293     0A38  2A3A               	goto	u2501
  5294     0A39  07BB               	addwf	___flmul@prod+1,f
  5295     0A3A                     u2501:
  5296     0A3A  0830               	movf	??___flmul+2,w
  5297     0A3B  1103               	clrz
  5298     0A3C  1803               	skipnc
  5299     0A3D  3E01               	addlw	1
  5300     0A3E  1903               	skipnz
  5301     0A3F  2A41               	goto	u2502
  5302     0A40  07BC               	addwf	___flmul@prod+2,f
  5303     0A41                     u2502:
  5304     0A41  0831               	movf	??___flmul+3,w
  5305     0A42  1103               	clrz
  5306     0A43  1803               	skipnc
  5307     0A44  3E01               	addlw	1
  5308     0A45  1903               	skipnz
  5309     0A46  2A48               	goto	u2503
  5310     0A47  07BD               	addwf	___flmul@prod+3,f
  5311     0A48                     u2503:
  5312     0A48  0828               	movf	___flmul@b+2,w
  5313     0A49  00F0               	movwf	__Umul8_16@multiplicand
  5314     0A4A  082A               	movf	___flmul@a,w
  5315     0A4B  120A  158A  2014  120A  158A  	fcall	__Umul8_16
  5316     0A50  0871               	movf	?__Umul8_16+1,w
  5317     0A51  1283               	bcf	3,5	;RP0=0, select bank0
  5318     0A52  1303               	bcf	3,6	;RP1=0, select bank0
  5319     0A53  00BF               	movwf	___flmul@temp+1
  5320     0A54  0870               	movf	?__Umul8_16,w
  5321     0A55  00BE               	movwf	___flmul@temp
  5322     0A56                     l1845:
  5323     0A56  083E               	movf	___flmul@temp,w
  5324     0A57  00AE               	movwf	??___flmul
  5325     0A58  01AF               	clrf	??___flmul+1
  5326     0A59  01B0               	clrf	??___flmul+2
  5327     0A5A  01B1               	clrf	??___flmul+3
  5328     0A5B  082E               	movf	??___flmul,w
  5329     0A5C  07B4               	addwf	___flmul@grs,f
  5330     0A5D  082F               	movf	??___flmul+1,w
  5331     0A5E  1103               	clrz
  5332     0A5F  1803               	skipnc
  5333     0A60  3E01               	addlw	1
  5334     0A61  1903               	skipnz
  5335     0A62  2A64               	goto	u2511
  5336     0A63  07B5               	addwf	___flmul@grs+1,f
  5337     0A64                     u2511:
  5338     0A64  0830               	movf	??___flmul+2,w
  5339     0A65  1103               	clrz
  5340     0A66  1803               	skipnc
  5341     0A67  3E01               	addlw	1
  5342     0A68  1903               	skipnz
  5343     0A69  2A6B               	goto	u2512
  5344     0A6A  07B6               	addwf	___flmul@grs+2,f
  5345     0A6B                     u2512:
  5346     0A6B  0831               	movf	??___flmul+3,w
  5347     0A6C  1103               	clrz
  5348     0A6D  1803               	skipnc
  5349     0A6E  3E01               	addlw	1
  5350     0A6F  1903               	skipnz
  5351     0A70  2A72               	goto	u2513
  5352     0A71  07B7               	addwf	___flmul@grs+3,f
  5353     0A72                     u2513:
  5354     0A72                     l1847:
  5355     0A72  083F               	movf	___flmul@temp+1,w
  5356     0A73  00AE               	movwf	??___flmul
  5357     0A74  01AF               	clrf	??___flmul+1
  5358     0A75  01B0               	clrf	??___flmul+2
  5359     0A76  01B1               	clrf	??___flmul+3
  5360     0A77  082E               	movf	??___flmul,w
  5361     0A78  07BA               	addwf	___flmul@prod,f
  5362     0A79  082F               	movf	??___flmul+1,w
  5363     0A7A  1103               	clrz
  5364     0A7B  1803               	skipnc
  5365     0A7C  3E01               	addlw	1
  5366     0A7D  1903               	skipnz
  5367     0A7E  2A80               	goto	u2521
  5368     0A7F  07BB               	addwf	___flmul@prod+1,f
  5369     0A80                     u2521:
  5370     0A80  0830               	movf	??___flmul+2,w
  5371     0A81  1103               	clrz
  5372     0A82  1803               	skipnc
  5373     0A83  3E01               	addlw	1
  5374     0A84  1903               	skipnz
  5375     0A85  2A87               	goto	u2522
  5376     0A86  07BC               	addwf	___flmul@prod+2,f
  5377     0A87                     u2522:
  5378     0A87  0831               	movf	??___flmul+3,w
  5379     0A88  1103               	clrz
  5380     0A89  1803               	skipnc
  5381     0A8A  3E01               	addlw	1
  5382     0A8B  1903               	skipnz
  5383     0A8C  2A8E               	goto	u2523
  5384     0A8D  07BD               	addwf	___flmul@prod+3,f
  5385     0A8E                     u2523:
  5386     0A8E                     l1849:
  5387     0A8E  3008               	movlw	8
  5388     0A8F  00AE               	movwf	??___flmul
  5389     0A90                     u2535:
  5390     0A90  1003               	clrc
  5391     0A91  0DB4               	rlf	___flmul@grs,f
  5392     0A92  0DB5               	rlf	___flmul@grs+1,f
  5393     0A93  0DB6               	rlf	___flmul@grs+2,f
  5394     0A94  0DB7               	rlf	___flmul@grs+3,f
  5395     0A95  0BAE               	decfsz	??___flmul,f
  5396     0A96  2A90               	goto	u2535
  5397     0A97                     l1851:
  5398     0A97  0827               	movf	___flmul@b+1,w
  5399     0A98  00F0               	movwf	__Umul8_16@multiplicand
  5400     0A99  082A               	movf	___flmul@a,w
  5401     0A9A  120A  158A  2014  120A  158A  	fcall	__Umul8_16
  5402     0A9F  0871               	movf	?__Umul8_16+1,w
  5403     0AA0  1283               	bcf	3,5	;RP0=0, select bank0
  5404     0AA1  1303               	bcf	3,6	;RP1=0, select bank0
  5405     0AA2  00BF               	movwf	___flmul@temp+1
  5406     0AA3  0870               	movf	?__Umul8_16,w
  5407     0AA4  00BE               	movwf	___flmul@temp
  5408     0AA5                     l1853:
  5409     0AA5  083E               	movf	___flmul@temp,w
  5410     0AA6  00AE               	movwf	??___flmul
  5411     0AA7  083F               	movf	___flmul@temp+1,w
  5412     0AA8  00AF               	movwf	??___flmul+1
  5413     0AA9  01B0               	clrf	??___flmul+2
  5414     0AAA  01B1               	clrf	??___flmul+3
  5415     0AAB  082E               	movf	??___flmul,w
  5416     0AAC  07B4               	addwf	___flmul@grs,f
  5417     0AAD  082F               	movf	??___flmul+1,w
  5418     0AAE  1103               	clrz
  5419     0AAF  1803               	skipnc
  5420     0AB0  3E01               	addlw	1
  5421     0AB1  1903               	skipnz
  5422     0AB2  2AB4               	goto	u2541
  5423     0AB3  07B5               	addwf	___flmul@grs+1,f
  5424     0AB4                     u2541:
  5425     0AB4  0830               	movf	??___flmul+2,w
  5426     0AB5  1103               	clrz
  5427     0AB6  1803               	skipnc
  5428     0AB7  3E01               	addlw	1
  5429     0AB8  1903               	skipnz
  5430     0AB9  2ABB               	goto	u2542
  5431     0ABA  07B6               	addwf	___flmul@grs+2,f
  5432     0ABB                     u2542:
  5433     0ABB  0831               	movf	??___flmul+3,w
  5434     0ABC  1103               	clrz
  5435     0ABD  1803               	skipnc
  5436     0ABE  3E01               	addlw	1
  5437     0ABF  1903               	skipnz
  5438     0AC0  2AC2               	goto	u2543
  5439     0AC1  07B7               	addwf	___flmul@grs+3,f
  5440     0AC2                     u2543:
  5441     0AC2                     l1855:
  5442     0AC2  0826               	movf	___flmul@b,w
  5443     0AC3  00F0               	movwf	__Umul8_16@multiplicand
  5444     0AC4  082B               	movf	___flmul@a+1,w
  5445     0AC5  120A  158A  2014  120A  158A  	fcall	__Umul8_16
  5446     0ACA  0871               	movf	?__Umul8_16+1,w
  5447     0ACB  1283               	bcf	3,5	;RP0=0, select bank0
  5448     0ACC  1303               	bcf	3,6	;RP1=0, select bank0
  5449     0ACD  00BF               	movwf	___flmul@temp+1
  5450     0ACE  0870               	movf	?__Umul8_16,w
  5451     0ACF  00BE               	movwf	___flmul@temp
  5452     0AD0                     l1857:
  5453     0AD0  083E               	movf	___flmul@temp,w
  5454     0AD1  00AE               	movwf	??___flmul
  5455     0AD2  083F               	movf	___flmul@temp+1,w
  5456     0AD3  00AF               	movwf	??___flmul+1
  5457     0AD4  01B0               	clrf	??___flmul+2
  5458     0AD5  01B1               	clrf	??___flmul+3
  5459     0AD6  082E               	movf	??___flmul,w
  5460     0AD7  07B4               	addwf	___flmul@grs,f
  5461     0AD8  082F               	movf	??___flmul+1,w
  5462     0AD9  1103               	clrz
  5463     0ADA  1803               	skipnc
  5464     0ADB  3E01               	addlw	1
  5465     0ADC  1903               	skipnz
  5466     0ADD  2ADF               	goto	u2551
  5467     0ADE  07B5               	addwf	___flmul@grs+1,f
  5468     0ADF                     u2551:
  5469     0ADF  0830               	movf	??___flmul+2,w
  5470     0AE0  1103               	clrz
  5471     0AE1  1803               	skipnc
  5472     0AE2  3E01               	addlw	1
  5473     0AE3  1903               	skipnz
  5474     0AE4  2AE6               	goto	u2552
  5475     0AE5  07B6               	addwf	___flmul@grs+2,f
  5476     0AE6                     u2552:
  5477     0AE6  0831               	movf	??___flmul+3,w
  5478     0AE7  1103               	clrz
  5479     0AE8  1803               	skipnc
  5480     0AE9  3E01               	addlw	1
  5481     0AEA  1903               	skipnz
  5482     0AEB  2AED               	goto	u2553
  5483     0AEC  07B7               	addwf	___flmul@grs+3,f
  5484     0AED                     u2553:
  5485     0AED                     l1859:
  5486     0AED  3008               	movlw	8
  5487     0AEE  00AE               	movwf	??___flmul
  5488     0AEF                     u2565:
  5489     0AEF  1003               	clrc
  5490     0AF0  0DB4               	rlf	___flmul@grs,f
  5491     0AF1  0DB5               	rlf	___flmul@grs+1,f
  5492     0AF2  0DB6               	rlf	___flmul@grs+2,f
  5493     0AF3  0DB7               	rlf	___flmul@grs+3,f
  5494     0AF4  0BAE               	decfsz	??___flmul,f
  5495     0AF5  2AEF               	goto	u2565
  5496     0AF6  0826               	movf	___flmul@b,w
  5497     0AF7  00F0               	movwf	__Umul8_16@multiplicand
  5498     0AF8  082A               	movf	___flmul@a,w
  5499     0AF9  120A  158A  2014  120A  158A  	fcall	__Umul8_16
  5500     0AFE  0871               	movf	?__Umul8_16+1,w
  5501     0AFF  1283               	bcf	3,5	;RP0=0, select bank0
  5502     0B00  1303               	bcf	3,6	;RP1=0, select bank0
  5503     0B01  00BF               	movwf	___flmul@temp+1
  5504     0B02  0870               	movf	?__Umul8_16,w
  5505     0B03  00BE               	movwf	___flmul@temp
  5506     0B04                     l1861:
  5507     0B04  083E               	movf	___flmul@temp,w
  5508     0B05  00AE               	movwf	??___flmul
  5509     0B06  083F               	movf	___flmul@temp+1,w
  5510     0B07  00AF               	movwf	??___flmul+1
  5511     0B08  01B0               	clrf	??___flmul+2
  5512     0B09  01B1               	clrf	??___flmul+3
  5513     0B0A  082E               	movf	??___flmul,w
  5514     0B0B  07B4               	addwf	___flmul@grs,f
  5515     0B0C  082F               	movf	??___flmul+1,w
  5516     0B0D  1103               	clrz
  5517     0B0E  1803               	skipnc
  5518     0B0F  3E01               	addlw	1
  5519     0B10  1903               	skipnz
  5520     0B11  2B13               	goto	u2571
  5521     0B12  07B5               	addwf	___flmul@grs+1,f
  5522     0B13                     u2571:
  5523     0B13  0830               	movf	??___flmul+2,w
  5524     0B14  1103               	clrz
  5525     0B15  1803               	skipnc
  5526     0B16  3E01               	addlw	1
  5527     0B17  1903               	skipnz
  5528     0B18  2B1A               	goto	u2572
  5529     0B19  07B6               	addwf	___flmul@grs+2,f
  5530     0B1A                     u2572:
  5531     0B1A  0831               	movf	??___flmul+3,w
  5532     0B1B  1103               	clrz
  5533     0B1C  1803               	skipnc
  5534     0B1D  3E01               	addlw	1
  5535     0B1E  1903               	skipnz
  5536     0B1F  2B21               	goto	u2573
  5537     0B20  07B7               	addwf	___flmul@grs+3,f
  5538     0B21                     u2573:
  5539     0B21                     l1863:
  5540     0B21  0827               	movf	___flmul@b+1,w
  5541     0B22  00F0               	movwf	__Umul8_16@multiplicand
  5542     0B23  082C               	movf	___flmul@a+2,w
  5543     0B24  120A  158A  2014  120A  158A  	fcall	__Umul8_16
  5544     0B29  0871               	movf	?__Umul8_16+1,w
  5545     0B2A  1283               	bcf	3,5	;RP0=0, select bank0
  5546     0B2B  1303               	bcf	3,6	;RP1=0, select bank0
  5547     0B2C  00BF               	movwf	___flmul@temp+1
  5548     0B2D  0870               	movf	?__Umul8_16,w
  5549     0B2E  00BE               	movwf	___flmul@temp
  5550     0B2F  083E               	movf	___flmul@temp,w
  5551     0B30  00AE               	movwf	??___flmul
  5552     0B31  083F               	movf	___flmul@temp+1,w
  5553     0B32  00AF               	movwf	??___flmul+1
  5554     0B33  01B0               	clrf	??___flmul+2
  5555     0B34  01B1               	clrf	??___flmul+3
  5556     0B35  082E               	movf	??___flmul,w
  5557     0B36  07BA               	addwf	___flmul@prod,f
  5558     0B37  082F               	movf	??___flmul+1,w
  5559     0B38  1103               	clrz
  5560     0B39  1803               	skipnc
  5561     0B3A  3E01               	addlw	1
  5562     0B3B  1903               	skipnz
  5563     0B3C  2B3E               	goto	u2581
  5564     0B3D  07BB               	addwf	___flmul@prod+1,f
  5565     0B3E                     u2581:
  5566     0B3E  0830               	movf	??___flmul+2,w
  5567     0B3F  1103               	clrz
  5568     0B40  1803               	skipnc
  5569     0B41  3E01               	addlw	1
  5570     0B42  1903               	skipnz
  5571     0B43  2B45               	goto	u2582
  5572     0B44  07BC               	addwf	___flmul@prod+2,f
  5573     0B45                     u2582:
  5574     0B45  0831               	movf	??___flmul+3,w
  5575     0B46  1103               	clrz
  5576     0B47  1803               	skipnc
  5577     0B48  3E01               	addlw	1
  5578     0B49  1903               	skipnz
  5579     0B4A  2B4C               	goto	u2583
  5580     0B4B  07BD               	addwf	___flmul@prod+3,f
  5581     0B4C                     u2583:
  5582     0B4C                     l1865:
  5583     0B4C  0828               	movf	___flmul@b+2,w
  5584     0B4D  00F0               	movwf	__Umul8_16@multiplicand
  5585     0B4E  082B               	movf	___flmul@a+1,w
  5586     0B4F  120A  158A  2014  120A  158A  	fcall	__Umul8_16
  5587     0B54  0871               	movf	?__Umul8_16+1,w
  5588     0B55  1283               	bcf	3,5	;RP0=0, select bank0
  5589     0B56  1303               	bcf	3,6	;RP1=0, select bank0
  5590     0B57  00BF               	movwf	___flmul@temp+1
  5591     0B58  0870               	movf	?__Umul8_16,w
  5592     0B59  00BE               	movwf	___flmul@temp
  5593     0B5A                     l1867:
  5594     0B5A  083E               	movf	___flmul@temp,w
  5595     0B5B  00AE               	movwf	??___flmul
  5596     0B5C  083F               	movf	___flmul@temp+1,w
  5597     0B5D  00AF               	movwf	??___flmul+1
  5598     0B5E  01B0               	clrf	??___flmul+2
  5599     0B5F  01B1               	clrf	??___flmul+3
  5600     0B60  082E               	movf	??___flmul,w
  5601     0B61  07BA               	addwf	___flmul@prod,f
  5602     0B62  082F               	movf	??___flmul+1,w
  5603     0B63  1103               	clrz
  5604     0B64  1803               	skipnc
  5605     0B65  3E01               	addlw	1
  5606     0B66  1903               	skipnz
  5607     0B67  2B69               	goto	u2591
  5608     0B68  07BB               	addwf	___flmul@prod+1,f
  5609     0B69                     u2591:
  5610     0B69  0830               	movf	??___flmul+2,w
  5611     0B6A  1103               	clrz
  5612     0B6B  1803               	skipnc
  5613     0B6C  3E01               	addlw	1
  5614     0B6D  1903               	skipnz
  5615     0B6E  2B70               	goto	u2592
  5616     0B6F  07BC               	addwf	___flmul@prod+2,f
  5617     0B70                     u2592:
  5618     0B70  0831               	movf	??___flmul+3,w
  5619     0B71  1103               	clrz
  5620     0B72  1803               	skipnc
  5621     0B73  3E01               	addlw	1
  5622     0B74  1903               	skipnz
  5623     0B75  2B77               	goto	u2593
  5624     0B76  07BD               	addwf	___flmul@prod+3,f
  5625     0B77                     u2593:
  5626     0B77  0828               	movf	___flmul@b+2,w
  5627     0B78  00F0               	movwf	__Umul8_16@multiplicand
  5628     0B79  082C               	movf	___flmul@a+2,w
  5629     0B7A  120A  158A  2014  120A  158A  	fcall	__Umul8_16
  5630     0B7F  0871               	movf	?__Umul8_16+1,w
  5631     0B80  1283               	bcf	3,5	;RP0=0, select bank0
  5632     0B81  1303               	bcf	3,6	;RP1=0, select bank0
  5633     0B82  00BF               	movwf	___flmul@temp+1
  5634     0B83  0870               	movf	?__Umul8_16,w
  5635     0B84  00BE               	movwf	___flmul@temp
  5636     0B85                     l1869:
  5637     0B85  083E               	movf	___flmul@temp,w
  5638     0B86  00AE               	movwf	??___flmul
  5639     0B87  083F               	movf	___flmul@temp+1,w
  5640     0B88  00AF               	movwf	??___flmul+1
  5641     0B89  01B0               	clrf	??___flmul+2
  5642     0B8A  01B1               	clrf	??___flmul+3
  5643     0B8B  3008               	movlw	8
  5644     0B8C                     u2605:
  5645     0B8C  1003               	clrc
  5646     0B8D  0DAE               	rlf	??___flmul,f
  5647     0B8E  0DAF               	rlf	??___flmul+1,f
  5648     0B8F  0DB0               	rlf	??___flmul+2,f
  5649     0B90  0DB1               	rlf	??___flmul+3,f
  5650     0B91                     u2600:
  5651     0B91  3EFF               	addlw	-1
  5652     0B92  1D03               	skipz
  5653     0B93  2B8C               	goto	u2605
  5654     0B94  082E               	movf	??___flmul,w
  5655     0B95  07BA               	addwf	___flmul@prod,f
  5656     0B96  082F               	movf	??___flmul+1,w
  5657     0B97  1103               	clrz
  5658     0B98  1803               	skipnc
  5659     0B99  3E01               	addlw	1
  5660     0B9A  1903               	skipnz
  5661     0B9B  2B9D               	goto	u2611
  5662     0B9C  07BB               	addwf	___flmul@prod+1,f
  5663     0B9D                     u2611:
  5664     0B9D  0830               	movf	??___flmul+2,w
  5665     0B9E  1103               	clrz
  5666     0B9F  1803               	skipnc
  5667     0BA0  3E01               	addlw	1
  5668     0BA1  1903               	skipnz
  5669     0BA2  2BA4               	goto	u2612
  5670     0BA3  07BC               	addwf	___flmul@prod+2,f
  5671     0BA4                     u2612:
  5672     0BA4  0831               	movf	??___flmul+3,w
  5673     0BA5  1103               	clrz
  5674     0BA6  1803               	skipnc
  5675     0BA7  3E01               	addlw	1
  5676     0BA8  1903               	skipnz
  5677     0BA9  2BAB               	goto	u2613
  5678     0BAA  07BD               	addwf	___flmul@prod+3,f
  5679     0BAB                     u2613:
  5680     0BAB                     l1871:
  5681     0BAB  0834               	movf	___flmul@grs,w
  5682     0BAC  00AE               	movwf	??___flmul
  5683     0BAD  0835               	movf	___flmul@grs+1,w
  5684     0BAE  00AF               	movwf	??___flmul+1
  5685     0BAF  0836               	movf	___flmul@grs+2,w
  5686     0BB0  00B0               	movwf	??___flmul+2
  5687     0BB1  0837               	movf	___flmul@grs+3,w
  5688     0BB2  00B1               	movwf	??___flmul+3
  5689     0BB3  3018               	movlw	24
  5690     0BB4                     u2625:
  5691     0BB4  1003               	clrc
  5692     0BB5  0CB1               	rrf	??___flmul+3,f
  5693     0BB6  0CB0               	rrf	??___flmul+2,f
  5694     0BB7  0CAF               	rrf	??___flmul+1,f
  5695     0BB8  0CAE               	rrf	??___flmul,f
  5696     0BB9                     u2620:
  5697     0BB9  3EFF               	addlw	-1
  5698     0BBA  1D03               	skipz
  5699     0BBB  2BB4               	goto	u2625
  5700     0BBC  082E               	movf	??___flmul,w
  5701     0BBD  07BA               	addwf	___flmul@prod,f
  5702     0BBE  082F               	movf	??___flmul+1,w
  5703     0BBF  1103               	clrz
  5704     0BC0  1803               	skipnc
  5705     0BC1  3E01               	addlw	1
  5706     0BC2  1903               	skipnz
  5707     0BC3  2BC5               	goto	u2631
  5708     0BC4  07BB               	addwf	___flmul@prod+1,f
  5709     0BC5                     u2631:
  5710     0BC5  0830               	movf	??___flmul+2,w
  5711     0BC6  1103               	clrz
  5712     0BC7  1803               	skipnc
  5713     0BC8  3E01               	addlw	1
  5714     0BC9  1903               	skipnz
  5715     0BCA  2BCC               	goto	u2632
  5716     0BCB  07BC               	addwf	___flmul@prod+2,f
  5717     0BCC                     u2632:
  5718     0BCC  0831               	movf	??___flmul+3,w
  5719     0BCD  1103               	clrz
  5720     0BCE  1803               	skipnc
  5721     0BCF  3E01               	addlw	1
  5722     0BD0  1903               	skipnz
  5723     0BD1  2BD3               	goto	u2633
  5724     0BD2  07BD               	addwf	___flmul@prod+3,f
  5725     0BD3                     u2633:
  5726     0BD3                     l1873:
  5727     0BD3  3008               	movlw	8
  5728     0BD4  00AE               	movwf	??___flmul
  5729     0BD5                     u2645:
  5730     0BD5  1003               	clrc
  5731     0BD6  0DB4               	rlf	___flmul@grs,f
  5732     0BD7  0DB5               	rlf	___flmul@grs+1,f
  5733     0BD8  0DB6               	rlf	___flmul@grs+2,f
  5734     0BD9  0DB7               	rlf	___flmul@grs+3,f
  5735     0BDA  0BAE               	decfsz	??___flmul,f
  5736     0BDB  2BD5               	goto	u2645
  5737     0BDC                     l1875:
  5738     0BDC  0839               	movf	___flmul@bexp,w
  5739     0BDD  0738               	addwf	___flmul@aexp,w
  5740     0BDE  00AE               	movwf	??___flmul
  5741     0BDF  01AF               	clrf	??___flmul+1
  5742     0BE0  0DAF               	rlf	??___flmul+1,f
  5743     0BE1  082E               	movf	??___flmul,w
  5744     0BE2  3E82               	addlw	130
  5745     0BE3  00BE               	movwf	___flmul@temp
  5746     0BE4  082F               	movf	??___flmul+1,w
  5747     0BE5  1803               	skipnc
  5748     0BE6  3E01               	addlw	1
  5749     0BE7  3EFF               	addlw	255
  5750     0BE8  00BF               	movwf	___flmul@temp+1
  5751     0BE9  2C07               	goto	l1887
  5752     0BEA                     l1877:
  5753     0BEA  3001               	movlw	1
  5754     0BEB  00AE               	movwf	??___flmul
  5755     0BEC                     u2655:
  5756     0BEC  1003               	clrc
  5757     0BED  0DBA               	rlf	___flmul@prod,f
  5758     0BEE  0DBB               	rlf	___flmul@prod+1,f
  5759     0BEF  0DBC               	rlf	___flmul@prod+2,f
  5760     0BF0  0DBD               	rlf	___flmul@prod+3,f
  5761     0BF1  0BAE               	decfsz	??___flmul,f
  5762     0BF2  2BEC               	goto	u2655
  5763     0BF3                     l1879:
  5764     0BF3  1FB7               	btfss	___flmul@grs+3,7
  5765     0BF4  2BF6               	goto	u2661
  5766     0BF5  2BF7               	goto	u2660
  5767     0BF6                     u2661:
  5768     0BF6  2BF8               	goto	l1883
  5769     0BF7                     u2660:
  5770     0BF7                     l1881:
  5771     0BF7  143A               	bsf	___flmul@prod,0
  5772     0BF8                     l1883:
  5773     0BF8  3001               	movlw	1
  5774     0BF9  00AE               	movwf	??___flmul
  5775     0BFA                     u2675:
  5776     0BFA  1003               	clrc
  5777     0BFB  0DB4               	rlf	___flmul@grs,f
  5778     0BFC  0DB5               	rlf	___flmul@grs+1,f
  5779     0BFD  0DB6               	rlf	___flmul@grs+2,f
  5780     0BFE  0DB7               	rlf	___flmul@grs+3,f
  5781     0BFF  0BAE               	decfsz	??___flmul,f
  5782     0C00  2BFA               	goto	u2675
  5783     0C01                     l1885:
  5784     0C01  30FF               	movlw	255
  5785     0C02  07BE               	addwf	___flmul@temp,f
  5786     0C03  1803               	skipnc
  5787     0C04  0ABF               	incf	___flmul@temp+1,f
  5788     0C05  30FF               	movlw	255
  5789     0C06  07BF               	addwf	___flmul@temp+1,f
  5790     0C07                     l1887:
  5791     0C07  1FBC               	btfss	___flmul@prod+2,7
  5792     0C08  2C0A               	goto	u2681
  5793     0C09  2C0B               	goto	u2680
  5794     0C0A                     u2681:
  5795     0C0A  2BEA               	goto	l1877
  5796     0C0B                     u2680:
  5797     0C0B                     l1889:
  5798     0C0B  01B8               	clrf	___flmul@aexp
  5799     0C0C                     l1891:
  5800     0C0C  1FB7               	btfss	___flmul@grs+3,7
  5801     0C0D  2C0F               	goto	u2691
  5802     0C0E  2C10               	goto	u2690
  5803     0C0F                     u2691:
  5804     0C0F  2C2C               	goto	l1899
  5805     0C10                     u2690:
  5806     0C10                     l1893:
  5807     0C10  30FF               	movlw	255
  5808     0C11  0534               	andwf	___flmul@grs,w
  5809     0C12  00AE               	movwf	??___flmul
  5810     0C13  30FF               	movlw	255
  5811     0C14  0535               	andwf	___flmul@grs+1,w
  5812     0C15  00AF               	movwf	??___flmul+1
  5813     0C16  30FF               	movlw	255
  5814     0C17  0536               	andwf	___flmul@grs+2,w
  5815     0C18  00B0               	movwf	??___flmul+2
  5816     0C19  307F               	movlw	127
  5817     0C1A  0537               	andwf	___flmul@grs+3,w
  5818     0C1B  00B1               	movwf	??___flmul+3
  5819     0C1C  0831               	movf	??___flmul+3,w
  5820     0C1D  0430               	iorwf	??___flmul+2,w
  5821     0C1E  042F               	iorwf	??___flmul+1,w
  5822     0C1F  042E               	iorwf	??___flmul,w
  5823     0C20  1903               	skipnz
  5824     0C21  2C23               	goto	u2701
  5825     0C22  2C24               	goto	u2700
  5826     0C23                     u2701:
  5827     0C23  2C27               	goto	l511
  5828     0C24                     u2700:
  5829     0C24                     l1895:
  5830     0C24  01B8               	clrf	___flmul@aexp
  5831     0C25  0AB8               	incf	___flmul@aexp,f
  5832     0C26  2C2C               	goto	l1899
  5833     0C27                     l511:
  5834     0C27  1C3A               	btfss	___flmul@prod,0
  5835     0C28  2C2A               	goto	u2711
  5836     0C29  2C2B               	goto	u2710
  5837     0C2A                     u2711:
  5838     0C2A  2C2C               	goto	l1899
  5839     0C2B                     u2710:
  5840     0C2B  2C24               	goto	l1895
  5841     0C2C                     l1899:
  5842     0C2C  0838               	movf	___flmul@aexp,w
  5843     0C2D  1903               	btfsc	3,2
  5844     0C2E  2C30               	goto	u2721
  5845     0C2F  2C31               	goto	u2720
  5846     0C30                     u2721:
  5847     0C30  2C62               	goto	l1909
  5848     0C31                     u2720:
  5849     0C31                     l1901:
  5850     0C31  3001               	movlw	1
  5851     0C32  07BA               	addwf	___flmul@prod,f
  5852     0C33  3000               	movlw	0
  5853     0C34  1803               	skipnc
  5854     0C35  3001               	movlw	1
  5855     0C36  07BB               	addwf	___flmul@prod+1,f
  5856     0C37  3000               	movlw	0
  5857     0C38  1803               	skipnc
  5858     0C39  3001               	movlw	1
  5859     0C3A  07BC               	addwf	___flmul@prod+2,f
  5860     0C3B  3000               	movlw	0
  5861     0C3C  1803               	skipnc
  5862     0C3D  3001               	movlw	1
  5863     0C3E  07BD               	addwf	___flmul@prod+3,f
  5864     0C3F                     l1903:
  5865     0C3F  1C3D               	btfss	___flmul@prod+3,0
  5866     0C40  2C42               	goto	u2731
  5867     0C41  2C43               	goto	u2730
  5868     0C42                     u2731:
  5869     0C42  2C62               	goto	l1909
  5870     0C43                     u2730:
  5871     0C43                     l1905:
  5872     0C43  083A               	movf	___flmul@prod,w
  5873     0C44  00AE               	movwf	??___flmul
  5874     0C45  083B               	movf	___flmul@prod+1,w
  5875     0C46  00AF               	movwf	??___flmul+1
  5876     0C47  083C               	movf	___flmul@prod+2,w
  5877     0C48  00B0               	movwf	??___flmul+2
  5878     0C49  083D               	movf	___flmul@prod+3,w
  5879     0C4A  00B1               	movwf	??___flmul+3
  5880     0C4B  3001               	movlw	1
  5881     0C4C  00B2               	movwf	??___flmul+4
  5882     0C4D                     u2745:
  5883     0C4D  0D31               	rlf	??___flmul+3,w
  5884     0C4E  0CB1               	rrf	??___flmul+3,f
  5885     0C4F  0CB0               	rrf	??___flmul+2,f
  5886     0C50  0CAF               	rrf	??___flmul+1,f
  5887     0C51  0CAE               	rrf	??___flmul,f
  5888     0C52                     u2740:
  5889     0C52  0BB2               	decfsz	??___flmul+4,f
  5890     0C53  2C4D               	goto	u2745
  5891     0C54  0831               	movf	??___flmul+3,w
  5892     0C55  00BD               	movwf	___flmul@prod+3
  5893     0C56  0830               	movf	??___flmul+2,w
  5894     0C57  00BC               	movwf	___flmul@prod+2
  5895     0C58  082F               	movf	??___flmul+1,w
  5896     0C59  00BB               	movwf	___flmul@prod+1
  5897     0C5A  082E               	movf	??___flmul,w
  5898     0C5B  00BA               	movwf	___flmul@prod
  5899     0C5C                     l1907:
  5900     0C5C  3001               	movlw	1
  5901     0C5D  07BE               	addwf	___flmul@temp,f
  5902     0C5E  1803               	skipnc
  5903     0C5F  0ABF               	incf	___flmul@temp+1,f
  5904     0C60  3000               	movlw	0
  5905     0C61  07BF               	addwf	___flmul@temp+1,f
  5906     0C62                     l1909:
  5907     0C62  083F               	movf	___flmul@temp+1,w
  5908     0C63  3A80               	xorlw	128
  5909     0C64  00FF               	movwf	btemp+1
  5910     0C65  3080               	movlw	128
  5911     0C66  027F               	subwf	btemp+1,w
  5912     0C67  1D03               	skipz
  5913     0C68  2C6B               	goto	u2755
  5914     0C69  30FF               	movlw	255
  5915     0C6A  023E               	subwf	___flmul@temp,w
  5916     0C6B                     u2755:
  5917     0C6B  1C03               	skipc
  5918     0C6C  2C6E               	goto	u2751
  5919     0C6D  2C6F               	goto	u2750
  5920     0C6E                     u2751:
  5921     0C6E  2C7A               	goto	l1913
  5922     0C6F                     u2750:
  5923     0C6F                     l1911:
  5924     0C6F  307F               	movlw	127
  5925     0C70  1283               	bcf	3,5	;RP0=0, select bank0
  5926     0C71  1303               	bcf	3,6	;RP1=0, select bank0
  5927     0C72  00BD               	movwf	___flmul@prod+3
  5928     0C73  3080               	movlw	128
  5929     0C74  00BC               	movwf	___flmul@prod+2
  5930     0C75  3000               	movlw	0
  5931     0C76  00BB               	movwf	___flmul@prod+1
  5932     0C77  3000               	movlw	0
  5933     0C78  00BA               	movwf	___flmul@prod
  5934     0C79  2CAB               	goto	l1927
  5935     0C7A                     l1913:
  5936     0C7A  1283               	bcf	3,5	;RP0=0, select bank0
  5937     0C7B  1303               	bcf	3,6	;RP1=0, select bank0
  5938     0C7C  083F               	movf	___flmul@temp+1,w
  5939     0C7D  3A80               	xorlw	128
  5940     0C7E  00FF               	movwf	btemp+1
  5941     0C7F  3080               	movlw	128
  5942     0C80  027F               	subwf	btemp+1,w
  5943     0C81  1D03               	skipz
  5944     0C82  2C85               	goto	u2765
  5945     0C83  3001               	movlw	1
  5946     0C84  023E               	subwf	___flmul@temp,w
  5947     0C85                     u2765:
  5948     0C85  1803               	skipnc
  5949     0C86  2C88               	goto	u2761
  5950     0C87  2C89               	goto	u2760
  5951     0C88                     u2761:
  5952     0C88  2C95               	goto	l1919
  5953     0C89                     u2760:
  5954     0C89                     l1915:
  5955     0C89  3000               	movlw	0
  5956     0C8A  1283               	bcf	3,5	;RP0=0, select bank0
  5957     0C8B  1303               	bcf	3,6	;RP1=0, select bank0
  5958     0C8C  00BD               	movwf	___flmul@prod+3
  5959     0C8D  3000               	movlw	0
  5960     0C8E  00BC               	movwf	___flmul@prod+2
  5961     0C8F  3000               	movlw	0
  5962     0C90  00BB               	movwf	___flmul@prod+1
  5963     0C91  3000               	movlw	0
  5964     0C92  00BA               	movwf	___flmul@prod
  5965     0C93                     l1917:
  5966     0C93  01B3               	clrf	___flmul@sign
  5967     0C94  2CAB               	goto	l1927
  5968     0C95                     l1919:
  5969     0C95  1283               	bcf	3,5	;RP0=0, select bank0
  5970     0C96  1303               	bcf	3,6	;RP1=0, select bank0
  5971     0C97  083E               	movf	___flmul@temp,w
  5972     0C98  00B9               	movwf	___flmul@bexp
  5973     0C99  30FF               	movlw	255
  5974     0C9A  05BA               	andwf	___flmul@prod,f
  5975     0C9B  30FF               	movlw	255
  5976     0C9C  05BB               	andwf	___flmul@prod+1,f
  5977     0C9D  307F               	movlw	127
  5978     0C9E  05BC               	andwf	___flmul@prod+2,f
  5979     0C9F  3000               	movlw	0
  5980     0CA0  05BD               	andwf	___flmul@prod+3,f
  5981     0CA1                     l1921:
  5982     0CA1  1C39               	btfss	___flmul@bexp,0
  5983     0CA2  2CA4               	goto	u2771
  5984     0CA3  2CA5               	goto	u2770
  5985     0CA4                     u2771:
  5986     0CA4  2CA6               	goto	l1925
  5987     0CA5                     u2770:
  5988     0CA5                     l1923:
  5989     0CA5  17BC               	bsf	___flmul@prod+2,7
  5990     0CA6                     l1925:
  5991     0CA6  0839               	movf	___flmul@bexp,w
  5992     0CA7  00AE               	movwf	??___flmul
  5993     0CA8  1003               	clrc
  5994     0CA9  0C2E               	rrf	??___flmul,w
  5995     0CAA  00BD               	movwf	___flmul@prod+3
  5996     0CAB                     l1927:
  5997     0CAB  0833               	movf	___flmul@sign,w
  5998     0CAC  00FF               	movwf	btemp+1
  5999     0CAD  087F               	movf	btemp+1,w
  6000     0CAE  04BD               	iorwf	___flmul@prod+3,f
  6001     0CAF                     l1929:
  6002     0CAF  083D               	movf	___flmul@prod+3,w
  6003     0CB0  00A9               	movwf	?___flmul+3
  6004     0CB1  083C               	movf	___flmul@prod+2,w
  6005     0CB2  00A8               	movwf	?___flmul+2
  6006     0CB3  083B               	movf	___flmul@prod+1,w
  6007     0CB4  00A7               	movwf	?___flmul+1
  6008     0CB5  083A               	movf	___flmul@prod,w
  6009     0CB6  00A6               	movwf	?___flmul
  6010     0CB7                     l505:
  6011     0CB7  0008               	return
  6012     0CB8                     __end_of___flmul:
  6013                           
  6014                           	psect	text9
  6015     0814                     __ptext9:	
  6016 ;; *************** function __Umul8_16 *****************
  6017 ;; Defined at:
  6018 ;;		line 4 in file "C:\Program Files\Microchip\xc8\v2.46\pic\sources\c99\common\Umul8_16.c"
  6019 ;; Parameters:    Size  Location     Type
  6020 ;;  multiplier      1    wreg     unsigned char 
  6021 ;;  multiplicand    1    0[COMMON] unsigned char 
  6022 ;; Auto vars:     Size  Location     Type
  6023 ;;  multiplier      1    8[COMMON] unsigned char 
  6024 ;;  word_mpld       2    6[COMMON] unsigned short 
  6025 ;;  product         2    4[COMMON] unsigned short 
  6026 ;; Return value:  Size  Location     Type
  6027 ;;                  2    0[COMMON] unsigned int 
  6028 ;; Registers used:
  6029 ;;		wreg, status,2, status,0
  6030 ;; Tracked objects:
  6031 ;;		On entry : 0/0
  6032 ;;		On exit  : 0/0
  6033 ;;		Unchanged: 0/0
  6034 ;; Data sizes:     COMMON   BANK0   BANK1   BANK3   BANK2
  6035 ;;      Params:         2       0       0       0       0
  6036 ;;      Locals:         5       0       0       0       0
  6037 ;;      Temps:          2       0       0       0       0
  6038 ;;      Totals:         9       0       0       0       0
  6039 ;;Total ram usage:        9 bytes
  6040 ;; Hardware stack levels used: 1
  6041 ;; This function calls:
  6042 ;;		Nothing
  6043 ;; This function is called by:
  6044 ;;		___flmul
  6045 ;; This function uses a non-reentrant model
  6046 ;;
  6047                           
  6048     0814                     __Umul8_16:	
  6049                           ;psect for function __Umul8_16
  6050                           
  6051                           
  6052                           ;incstack = 0
  6053                           ; Regs used in __Umul8_16: [wreg+status,2+status,0]
  6054                           ;__Umul8_16@multiplier stored from wreg
  6055     0814  00F8               	movwf	__Umul8_16@multiplier
  6056     0815                     l1725:
  6057     0815  01F4               	clrf	__Umul8_16@product
  6058     0816  01F5               	clrf	__Umul8_16@product+1
  6059     0817                     l1727:
  6060     0817  0870               	movf	__Umul8_16@multiplicand,w
  6061     0818  00F2               	movwf	??__Umul8_16
  6062     0819  01F3               	clrf	??__Umul8_16+1
  6063     081A  0872               	movf	??__Umul8_16,w
  6064     081B  00F6               	movwf	__Umul8_16@word_mpld
  6065     081C  0873               	movf	??__Umul8_16+1,w
  6066     081D  00F7               	movwf	__Umul8_16@word_mpld+1
  6067     081E                     l1729:
  6068     081E  1C78               	btfss	__Umul8_16@multiplier,0
  6069     081F  2821               	goto	u2271
  6070     0820  2822               	goto	u2270
  6071     0821                     u2271:
  6072     0821  2828               	goto	l524
  6073     0822                     u2270:
  6074     0822                     l1731:
  6075     0822  0876               	movf	__Umul8_16@word_mpld,w
  6076     0823  07F4               	addwf	__Umul8_16@product,f
  6077     0824  1803               	skipnc
  6078     0825  0AF5               	incf	__Umul8_16@product+1,f
  6079     0826  0877               	movf	__Umul8_16@word_mpld+1,w
  6080     0827  07F5               	addwf	__Umul8_16@product+1,f
  6081     0828                     l524:
  6082     0828  3001               	movlw	1
  6083     0829                     u2285:
  6084     0829  1003               	clrc
  6085     082A  0DF6               	rlf	__Umul8_16@word_mpld,f
  6086     082B  0DF7               	rlf	__Umul8_16@word_mpld+1,f
  6087     082C  3EFF               	addlw	-1
  6088     082D  1D03               	skipz
  6089     082E  2829               	goto	u2285
  6090     082F  1003               	clrc
  6091     0830  0CF8               	rrf	__Umul8_16@multiplier,f
  6092     0831                     l1733:
  6093     0831  0878               	movf	__Umul8_16@multiplier,w
  6094     0832  1D03               	btfss	3,2
  6095     0833  2835               	goto	u2291
  6096     0834  2836               	goto	u2290
  6097     0835                     u2291:
  6098     0835  281E               	goto	l1729
  6099     0836                     u2290:
  6100     0836                     l1735:
  6101     0836  0875               	movf	__Umul8_16@product+1,w
  6102     0837  00F1               	movwf	?__Umul8_16+1
  6103     0838  0874               	movf	__Umul8_16@product,w
  6104     0839  00F0               	movwf	?__Umul8_16
  6105     083A                     l526:
  6106     083A  0008               	return
  6107     083B                     __end_of__Umul8_16:
  6108                           
  6109                           	psect	text10
  6110     0011                     __ptext10:	
  6111 ;; *************** function _roundf *****************
  6112 ;; Defined at:
  6113 ;;		line 13 in file "C:\Program Files\Microchip\xc8\v2.46\pic\sources\c99\common\roundf.c"
  6114 ;; Parameters:    Size  Location     Type
  6115 ;;  x               4   18[BANK3 ] float 
  6116 ;; Auto vars:     Size  Location     Type
  6117 ;;  y               4   45[BANK3 ] float 
  6118 ;;  u               4   36[BANK3 ] struct .
  6119 ;;  z               4   30[BANK3 ] float 
  6120 ;;  e               2   34[BANK3 ] int 
  6121 ;;  sign            1   44[BANK3 ] _Bool 
  6122 ;; Return value:  Size  Location     Type
  6123 ;;                  4   18[BANK3 ] float 
  6124 ;; Registers used:
  6125 ;;		wreg, status,2, status,0, btemp+1, pclath, cstack
  6126 ;; Tracked objects:
  6127 ;;		On entry : 0/0
  6128 ;;		On exit  : 0/0
  6129 ;;		Unchanged: 0/0
  6130 ;; Data sizes:     COMMON   BANK0   BANK1   BANK3   BANK2
  6131 ;;      Params:         0       0       0       4       0
  6132 ;;      Locals:         0       0       0      23       0
  6133 ;;      Temps:          0       0       0       4       0
  6134 ;;      Totals:         0       0       0      31       0
  6135 ;;Total ram usage:       31 bytes
  6136 ;; Hardware stack levels used: 1
  6137 ;; Hardware stack levels required when called: 2
  6138 ;; This function calls:
  6139 ;;		___fladd
  6140 ;;		___flge
  6141 ;;		___flneg
  6142 ;;		___flsub
  6143 ;; This function is called by:
  6144 ;;		_main
  6145 ;; This function uses a non-reentrant model
  6146 ;;
  6147                           
  6148     0011                     _roundf:	
  6149                           ;psect for function _roundf
  6150                           
  6151     0011                     l2149:	
  6152                           ;incstack = 0
  6153                           ; Regs used in _roundf: [wreg+status,2+status,0+btemp+1+pclath+cstack]
  6154                           
  6155     0011  1683               	bsf	3,5	;RP0=1, select bank3
  6156     0012  1703               	bsf	3,6	;RP1=1, select bank3
  6157     0013  084F               	movf	(roundf@F522+3)^(0+384),w
  6158     0014  00B7               	movwf	(roundf@u+3)^(0+384)
  6159     0015  084E               	movf	(roundf@F522+2)^(0+384),w
  6160     0016  00B6               	movwf	(roundf@u+2)^(0+384)
  6161     0017  084D               	movf	(roundf@F522+1)^(0+384),w
  6162     0018  00B5               	movwf	(roundf@u+1)^(0+384)
  6163     0019  084C               	movf	roundf@F522^(0+384),w
  6164     001A  00B4               	movwf	roundf@u^(0+384)
  6165     001B  0825               	movf	(roundf@x+3)^(0+384),w
  6166     001C  00B7               	movwf	(roundf@u+3)^(0+384)
  6167     001D  0824               	movf	(roundf@x+2)^(0+384),w
  6168     001E  00B6               	movwf	(roundf@u+2)^(0+384)
  6169     001F  0823               	movf	(roundf@x+1)^(0+384),w
  6170     0020  00B5               	movwf	(roundf@u+1)^(0+384)
  6171     0021  0822               	movf	roundf@x^(0+384),w
  6172     0022  00B4               	movwf	roundf@u^(0+384)
  6173     0023                     l2151:
  6174     0023  0834               	movf	roundf@u^(0+384),w
  6175     0024  00A6               	movwf	??_roundf^(0+384)
  6176     0025  0835               	movf	(roundf@u+1)^(0+384),w
  6177     0026  00A7               	movwf	(??_roundf^(0+384)+1)
  6178     0027  0836               	movf	(roundf@u+2)^(0+384),w
  6179     0028  00A8               	movwf	(??_roundf^(0+384)+2)
  6180     0029  0837               	movf	(roundf@u+3)^(0+384),w
  6181     002A  00A9               	movwf	(??_roundf^(0+384)+3)
  6182     002B  3017               	movlw	23
  6183     002C                     u3175:
  6184     002C  1003               	clrc
  6185     002D  0CA9               	rrf	(??_roundf^(0+384)+3),f
  6186     002E  0CA8               	rrf	(??_roundf^(0+384)+2),f
  6187     002F  0CA7               	rrf	(??_roundf^(0+384)+1),f
  6188     0030  0CA6               	rrf	??_roundf^(0+384),f
  6189     0031                     u3170:
  6190     0031  3EFF               	addlw	-1
  6191     0032  1D03               	skipz
  6192     0033  282C               	goto	u3175
  6193     0034  30FF               	movlw	255
  6194     0035  0526               	andwf	??_roundf^(0+384),w
  6195     0036  00B2               	movwf	roundf@e^(0+384)
  6196     0037  3000               	movlw	0
  6197     0038  0527               	andwf	(??_roundf+1)^(0+384),w
  6198     0039  00B3               	movwf	(roundf@e+1)^(0+384)
  6199     003A                     l2153:
  6200     003A  0833               	movf	(roundf@e+1)^(0+384),w
  6201     003B  3A80               	xorlw	128
  6202     003C  00FF               	movwf	btemp+1
  6203     003D  3080               	movlw	128
  6204     003E  027F               	subwf	btemp+1,w
  6205     003F  1D03               	skipz
  6206     0040  2843               	goto	u3185
  6207     0041  3096               	movlw	150
  6208     0042  0232               	subwf	roundf@e^(0+384),w
  6209     0043                     u3185:
  6210     0043  1C03               	skipc
  6211     0044  2846               	goto	u3181
  6212     0045  2847               	goto	u3180
  6213     0046                     u3181:
  6214     0046  2848               	goto	l2157
  6215     0047                     u3180:
  6216     0047                     l2155:
  6217     0047  2A93               	goto	l572
  6218     0048                     l2157:
  6219     0048  1683               	bsf	3,5	;RP0=1, select bank3
  6220     0049  1703               	bsf	3,6	;RP1=1, select bank3
  6221     004A  1BB7               	btfsc	(roundf@u+3)^(0+384),7
  6222     004B  284D               	goto	u3191
  6223     004C  284F               	goto	u3190
  6224     004D                     u3191:
  6225     004D  3001               	movlw	1
  6226     004E  2850               	goto	u3200
  6227     004F                     u3190:
  6228     004F  3000               	movlw	0
  6229     0050                     u3200:
  6230     0050  00BC               	movwf	roundf@sign^(0+384)
  6231     0051                     l2159:
  6232     0051  083C               	movf	roundf@sign^(0+384),w
  6233     0052  1903               	btfsc	3,2
  6234     0053  2855               	goto	u3211
  6235     0054  2856               	goto	u3210
  6236     0055                     u3211:
  6237     0055  2889               	goto	l2163
  6238     0056                     u3210:
  6239     0056                     l2161:
  6240     0056  0825               	movf	(roundf@x+3)^(0+384),w
  6241     0057  1683               	bsf	3,5	;RP0=1, select bank1
  6242     0058  1303               	bcf	3,6	;RP1=0, select bank1
  6243     0059  00A3               	movwf	(___flneg@f1+3)^(0+128)
  6244     005A  1683               	bsf	3,5	;RP0=1, select bank3
  6245     005B  1703               	bsf	3,6	;RP1=1, select bank3
  6246     005C  0824               	movf	(roundf@x+2)^(0+384),w
  6247     005D  1683               	bsf	3,5	;RP0=1, select bank1
  6248     005E  1303               	bcf	3,6	;RP1=0, select bank1
  6249     005F  00A2               	movwf	(___flneg@f1+2)^(0+128)
  6250     0060  1683               	bsf	3,5	;RP0=1, select bank3
  6251     0061  1703               	bsf	3,6	;RP1=1, select bank3
  6252     0062  0823               	movf	(roundf@x+1)^(0+384),w
  6253     0063  1683               	bsf	3,5	;RP0=1, select bank1
  6254     0064  1303               	bcf	3,6	;RP1=0, select bank1
  6255     0065  00A1               	movwf	(___flneg@f1+1)^(0+128)
  6256     0066  1683               	bsf	3,5	;RP0=1, select bank3
  6257     0067  1703               	bsf	3,6	;RP1=1, select bank3
  6258     0068  0822               	movf	roundf@x^(0+384),w
  6259     0069  1683               	bsf	3,5	;RP0=1, select bank1
  6260     006A  1303               	bcf	3,6	;RP1=0, select bank1
  6261     006B  00A0               	movwf	___flneg@f1^(0+128)
  6262     006C  120A  118A  2004  120A  118A  	fcall	___flneg
  6263     0071  1683               	bsf	3,5	;RP0=1, select bank1
  6264     0072  1303               	bcf	3,6	;RP1=0, select bank1
  6265     0073  0823               	movf	(?___flneg+3)^(0+128),w
  6266     0074  1683               	bsf	3,5	;RP0=1, select bank3
  6267     0075  1703               	bsf	3,6	;RP1=1, select bank3
  6268     0076  00A5               	movwf	(roundf@x+3)^(0+384)
  6269     0077  1683               	bsf	3,5	;RP0=1, select bank1
  6270     0078  1303               	bcf	3,6	;RP1=0, select bank1
  6271     0079  0822               	movf	(?___flneg+2)^(0+128),w
  6272     007A  1683               	bsf	3,5	;RP0=1, select bank3
  6273     007B  1703               	bsf	3,6	;RP1=1, select bank3
  6274     007C  00A4               	movwf	(roundf@x+2)^(0+384)
  6275     007D  1683               	bsf	3,5	;RP0=1, select bank1
  6276     007E  1303               	bcf	3,6	;RP1=0, select bank1
  6277     007F  0821               	movf	(?___flneg+1)^(0+128),w
  6278     0080  1683               	bsf	3,5	;RP0=1, select bank3
  6279     0081  1703               	bsf	3,6	;RP1=1, select bank3
  6280     0082  00A3               	movwf	(roundf@x+1)^(0+384)
  6281     0083  1683               	bsf	3,5	;RP0=1, select bank1
  6282     0084  1303               	bcf	3,6	;RP1=0, select bank1
  6283     0085  0820               	movf	?___flneg^(0+128),w
  6284     0086  1683               	bsf	3,5	;RP0=1, select bank3
  6285     0087  1703               	bsf	3,6	;RP1=1, select bank3
  6286     0088  00A2               	movwf	roundf@x^(0+384)
  6287     0089                     l2163:
  6288     0089  0833               	movf	(roundf@e+1)^(0+384),w
  6289     008A  3A80               	xorlw	128
  6290     008B  00FF               	movwf	btemp+1
  6291     008C  3080               	movlw	128
  6292     008D  027F               	subwf	btemp+1,w
  6293     008E  1D03               	skipz
  6294     008F  2892               	goto	u3225
  6295     0090  307E               	movlw	126
  6296     0091  0232               	subwf	roundf@e^(0+384),w
  6297     0092                     u3225:
  6298     0092  1803               	skipnc
  6299     0093  2895               	goto	u3221
  6300     0094  2896               	goto	u3220
  6301     0095                     u3221:
  6302     0095  28A1               	goto	l2169
  6303     0096                     u3220:
  6304     0096                     l2165:
  6305     0096  3000               	movlw	0
  6306     0097  1683               	bsf	3,5	;RP0=1, select bank3
  6307     0098  1703               	bsf	3,6	;RP1=1, select bank3
  6308     0099  00A5               	movwf	(?_roundf+3)^(0+384)
  6309     009A  3000               	movlw	0
  6310     009B  00A4               	movwf	(?_roundf+2)^(0+384)
  6311     009C  3000               	movlw	0
  6312     009D  00A3               	movwf	(?_roundf+1)^(0+384)
  6313     009E  3000               	movlw	0
  6314     009F  00A2               	movwf	?_roundf^(0+384)
  6315     00A0  2A93               	goto	l572
  6316     00A1                     l2169:
  6317     00A1  304B               	movlw	75
  6318     00A2  1283               	bcf	3,5	;RP0=0, select bank0
  6319     00A3  1303               	bcf	3,6	;RP1=0, select bank0
  6320     00A4  00C3               	movwf	___fladd@b+3
  6321     00A5  3000               	movlw	0
  6322     00A6  00C2               	movwf	___fladd@b+2
  6323     00A7  3000               	movlw	0
  6324     00A8  00C1               	movwf	___fladd@b+1
  6325     00A9  3000               	movlw	0
  6326     00AA  00C0               	movwf	___fladd@b
  6327     00AB  1683               	bsf	3,5	;RP0=1, select bank3
  6328     00AC  1703               	bsf	3,6	;RP1=1, select bank3
  6329     00AD  0825               	movf	(roundf@x+3)^(0+384),w
  6330     00AE  1283               	bcf	3,5	;RP0=0, select bank0
  6331     00AF  1303               	bcf	3,6	;RP1=0, select bank0
  6332     00B0  00C7               	movwf	___fladd@a+3
  6333     00B1  1683               	bsf	3,5	;RP0=1, select bank3
  6334     00B2  1703               	bsf	3,6	;RP1=1, select bank3
  6335     00B3  0824               	movf	(roundf@x+2)^(0+384),w
  6336     00B4  1283               	bcf	3,5	;RP0=0, select bank0
  6337     00B5  1303               	bcf	3,6	;RP1=0, select bank0
  6338     00B6  00C6               	movwf	___fladd@a+2
  6339     00B7  1683               	bsf	3,5	;RP0=1, select bank3
  6340     00B8  1703               	bsf	3,6	;RP1=1, select bank3
  6341     00B9  0823               	movf	(roundf@x+1)^(0+384),w
  6342     00BA  1283               	bcf	3,5	;RP0=0, select bank0
  6343     00BB  1303               	bcf	3,6	;RP1=0, select bank0
  6344     00BC  00C5               	movwf	___fladd@a+1
  6345     00BD  1683               	bsf	3,5	;RP0=1, select bank3
  6346     00BE  1703               	bsf	3,6	;RP1=1, select bank3
  6347     00BF  0822               	movf	roundf@x^(0+384),w
  6348     00C0  1283               	bcf	3,5	;RP0=0, select bank0
  6349     00C1  1303               	bcf	3,6	;RP1=0, select bank0
  6350     00C2  00C4               	movwf	___fladd@a
  6351     00C3  160A  118A  20AA  120A  118A  	fcall	___fladd
  6352     00C8  1283               	bcf	3,5	;RP0=0, select bank0
  6353     00C9  1303               	bcf	3,6	;RP1=0, select bank0
  6354     00CA  0843               	movf	?___fladd+3,w
  6355     00CB  1683               	bsf	3,5	;RP0=1, select bank3
  6356     00CC  1703               	bsf	3,6	;RP1=1, select bank3
  6357     00CD  00BB               	movwf	(_roundf$756+3)^(0+384)
  6358     00CE  1283               	bcf	3,5	;RP0=0, select bank0
  6359     00CF  1303               	bcf	3,6	;RP1=0, select bank0
  6360     00D0  0842               	movf	?___fladd+2,w
  6361     00D1  1683               	bsf	3,5	;RP0=1, select bank3
  6362     00D2  1703               	bsf	3,6	;RP1=1, select bank3
  6363     00D3  00BA               	movwf	(_roundf$756+2)^(0+384)
  6364     00D4  1283               	bcf	3,5	;RP0=0, select bank0
  6365     00D5  1303               	bcf	3,6	;RP1=0, select bank0
  6366     00D6  0841               	movf	?___fladd+1,w
  6367     00D7  1683               	bsf	3,5	;RP0=1, select bank3
  6368     00D8  1703               	bsf	3,6	;RP1=1, select bank3
  6369     00D9  00B9               	movwf	(_roundf$756+1)^(0+384)
  6370     00DA  1283               	bcf	3,5	;RP0=0, select bank0
  6371     00DB  1303               	bcf	3,6	;RP1=0, select bank0
  6372     00DC  0840               	movf	?___fladd,w
  6373     00DD  1683               	bsf	3,5	;RP0=1, select bank3
  6374     00DE  1703               	bsf	3,6	;RP1=1, select bank3
  6375     00DF  00B8               	movwf	_roundf$756^(0+384)
  6376     00E0  30CB               	movlw	203
  6377     00E1  1283               	bcf	3,5	;RP0=0, select bank0
  6378     00E2  1303               	bcf	3,6	;RP1=0, select bank0
  6379     00E3  00C3               	movwf	___fladd@b+3
  6380     00E4  3000               	movlw	0
  6381     00E5  00C2               	movwf	___fladd@b+2
  6382     00E6  3000               	movlw	0
  6383     00E7  00C1               	movwf	___fladd@b+1
  6384     00E8  3000               	movlw	0
  6385     00E9  00C0               	movwf	___fladd@b
  6386     00EA  1683               	bsf	3,5	;RP0=1, select bank3
  6387     00EB  1703               	bsf	3,6	;RP1=1, select bank3
  6388     00EC  083B               	movf	(_roundf$756+3)^(0+384),w
  6389     00ED  1283               	bcf	3,5	;RP0=0, select bank0
  6390     00EE  1303               	bcf	3,6	;RP1=0, select bank0
  6391     00EF  00C7               	movwf	___fladd@a+3
  6392     00F0  1683               	bsf	3,5	;RP0=1, select bank3
  6393     00F1  1703               	bsf	3,6	;RP1=1, select bank3
  6394     00F2  083A               	movf	(_roundf$756+2)^(0+384),w
  6395     00F3  1283               	bcf	3,5	;RP0=0, select bank0
  6396     00F4  1303               	bcf	3,6	;RP1=0, select bank0
  6397     00F5  00C6               	movwf	___fladd@a+2
  6398     00F6  1683               	bsf	3,5	;RP0=1, select bank3
  6399     00F7  1703               	bsf	3,6	;RP1=1, select bank3
  6400     00F8  0839               	movf	(_roundf$756+1)^(0+384),w
  6401     00F9  1283               	bcf	3,5	;RP0=0, select bank0
  6402     00FA  1303               	bcf	3,6	;RP1=0, select bank0
  6403     00FB  00C5               	movwf	___fladd@a+1
  6404     00FC  1683               	bsf	3,5	;RP0=1, select bank3
  6405     00FD  1703               	bsf	3,6	;RP1=1, select bank3
  6406     00FE  0838               	movf	_roundf$756^(0+384),w
  6407     00FF  1283               	bcf	3,5	;RP0=0, select bank0
  6408     0100  1303               	bcf	3,6	;RP1=0, select bank0
  6409     0101  00C4               	movwf	___fladd@a
  6410     0102  160A  118A  20AA  120A  118A  	fcall	___fladd
  6411     0107  1283               	bcf	3,5	;RP0=0, select bank0
  6412     0108  1303               	bcf	3,6	;RP1=0, select bank0
  6413     0109  0843               	movf	?___fladd+3,w
  6414     010A  1683               	bsf	3,5	;RP0=1, select bank3
  6415     010B  1703               	bsf	3,6	;RP1=1, select bank3
  6416     010C  00AD               	movwf	(_roundf$757+3)^(0+384)
  6417     010D  1283               	bcf	3,5	;RP0=0, select bank0
  6418     010E  1303               	bcf	3,6	;RP1=0, select bank0
  6419     010F  0842               	movf	?___fladd+2,w
  6420     0110  1683               	bsf	3,5	;RP0=1, select bank3
  6421     0111  1703               	bsf	3,6	;RP1=1, select bank3
  6422     0112  00AC               	movwf	(_roundf$757+2)^(0+384)
  6423     0113  1283               	bcf	3,5	;RP0=0, select bank0
  6424     0114  1303               	bcf	3,6	;RP1=0, select bank0
  6425     0115  0841               	movf	?___fladd+1,w
  6426     0116  1683               	bsf	3,5	;RP0=1, select bank3
  6427     0117  1703               	bsf	3,6	;RP1=1, select bank3
  6428     0118  00AB               	movwf	(_roundf$757+1)^(0+384)
  6429     0119  1283               	bcf	3,5	;RP0=0, select bank0
  6430     011A  1303               	bcf	3,6	;RP1=0, select bank0
  6431     011B  0840               	movf	?___fladd,w
  6432     011C  1683               	bsf	3,5	;RP0=1, select bank3
  6433     011D  1703               	bsf	3,6	;RP1=1, select bank3
  6434     011E  00AA               	movwf	_roundf$757^(0+384)
  6435     011F  0825               	movf	(roundf@x+3)^(0+384),w
  6436     0120  1283               	bcf	3,5	;RP0=0, select bank0
  6437     0121  1303               	bcf	3,6	;RP1=0, select bank0
  6438     0122  00D7               	movwf	___flsub@a+3
  6439     0123  1683               	bsf	3,5	;RP0=1, select bank3
  6440     0124  1703               	bsf	3,6	;RP1=1, select bank3
  6441     0125  0824               	movf	(roundf@x+2)^(0+384),w
  6442     0126  1283               	bcf	3,5	;RP0=0, select bank0
  6443     0127  1303               	bcf	3,6	;RP1=0, select bank0
  6444     0128  00D6               	movwf	___flsub@a+2
  6445     0129  1683               	bsf	3,5	;RP0=1, select bank3
  6446     012A  1703               	bsf	3,6	;RP1=1, select bank3
  6447     012B  0823               	movf	(roundf@x+1)^(0+384),w
  6448     012C  1283               	bcf	3,5	;RP0=0, select bank0
  6449     012D  1303               	bcf	3,6	;RP1=0, select bank0
  6450     012E  00D5               	movwf	___flsub@a+1
  6451     012F  1683               	bsf	3,5	;RP0=1, select bank3
  6452     0130  1703               	bsf	3,6	;RP1=1, select bank3
  6453     0131  0822               	movf	roundf@x^(0+384),w
  6454     0132  1283               	bcf	3,5	;RP0=0, select bank0
  6455     0133  1303               	bcf	3,6	;RP1=0, select bank0
  6456     0134  00D4               	movwf	___flsub@a
  6457     0135  1683               	bsf	3,5	;RP0=1, select bank3
  6458     0136  1703               	bsf	3,6	;RP1=1, select bank3
  6459     0137  082D               	movf	(_roundf$757+3)^(0+384),w
  6460     0138  1283               	bcf	3,5	;RP0=0, select bank0
  6461     0139  1303               	bcf	3,6	;RP1=0, select bank0
  6462     013A  00DB               	movwf	___flsub@b+3
  6463     013B  1683               	bsf	3,5	;RP0=1, select bank3
  6464     013C  1703               	bsf	3,6	;RP1=1, select bank3
  6465     013D  082C               	movf	(_roundf$757+2)^(0+384),w
  6466     013E  1283               	bcf	3,5	;RP0=0, select bank0
  6467     013F  1303               	bcf	3,6	;RP1=0, select bank0
  6468     0140  00DA               	movwf	___flsub@b+2
  6469     0141  1683               	bsf	3,5	;RP0=1, select bank3
  6470     0142  1703               	bsf	3,6	;RP1=1, select bank3
  6471     0143  082B               	movf	(_roundf$757+1)^(0+384),w
  6472     0144  1283               	bcf	3,5	;RP0=0, select bank0
  6473     0145  1303               	bcf	3,6	;RP1=0, select bank0
  6474     0146  00D9               	movwf	___flsub@b+1
  6475     0147  1683               	bsf	3,5	;RP0=1, select bank3
  6476     0148  1703               	bsf	3,6	;RP1=1, select bank3
  6477     0149  082A               	movf	_roundf$757^(0+384),w
  6478     014A  1283               	bcf	3,5	;RP0=0, select bank0
  6479     014B  1303               	bcf	3,6	;RP1=0, select bank0
  6480     014C  00D8               	movwf	___flsub@b
  6481     014D  160A  158A  24EB  120A  118A  	fcall	___flsub
  6482     0152  1283               	bcf	3,5	;RP0=0, select bank0
  6483     0153  1303               	bcf	3,6	;RP1=0, select bank0
  6484     0154  0857               	movf	?___flsub+3,w
  6485     0155  1683               	bsf	3,5	;RP0=1, select bank3
  6486     0156  1703               	bsf	3,6	;RP1=1, select bank3
  6487     0157  00C0               	movwf	(roundf@y+3)^(0+384)
  6488     0158  1283               	bcf	3,5	;RP0=0, select bank0
  6489     0159  1303               	bcf	3,6	;RP1=0, select bank0
  6490     015A  0856               	movf	?___flsub+2,w
  6491     015B  1683               	bsf	3,5	;RP0=1, select bank3
  6492     015C  1703               	bsf	3,6	;RP1=1, select bank3
  6493     015D  00BF               	movwf	(roundf@y+2)^(0+384)
  6494     015E  1283               	bcf	3,5	;RP0=0, select bank0
  6495     015F  1303               	bcf	3,6	;RP1=0, select bank0
  6496     0160  0855               	movf	?___flsub+1,w
  6497     0161  1683               	bsf	3,5	;RP0=1, select bank3
  6498     0162  1703               	bsf	3,6	;RP1=1, select bank3
  6499     0163  00BE               	movwf	(roundf@y+1)^(0+384)
  6500     0164  1283               	bcf	3,5	;RP0=0, select bank0
  6501     0165  1303               	bcf	3,6	;RP1=0, select bank0
  6502     0166  0854               	movf	?___flsub,w
  6503     0167  1683               	bsf	3,5	;RP0=1, select bank3
  6504     0168  1703               	bsf	3,6	;RP1=1, select bank3
  6505     0169  00BD               	movwf	roundf@y^(0+384)
  6506     016A                     l2171:
  6507     016A  3000               	movlw	0
  6508     016B  00B1               	movwf	(roundf@z+3)^(0+384)
  6509     016C  3000               	movlw	0
  6510     016D  00B0               	movwf	(roundf@z+2)^(0+384)
  6511     016E  3000               	movlw	0
  6512     016F  00AF               	movwf	(roundf@z+1)^(0+384)
  6513     0170  3000               	movlw	0
  6514     0171  00AE               	movwf	roundf@z^(0+384)
  6515     0172                     l2173:
  6516     0172  303F               	movlw	63
  6517     0173  00F3               	movwf	___flge@ff1+3
  6518     0174  3000               	movlw	0
  6519     0175  00F2               	movwf	___flge@ff1+2
  6520     0176  3000               	movlw	0
  6521     0177  00F1               	movwf	___flge@ff1+1
  6522     0178  3000               	movlw	0
  6523     0179  00F0               	movwf	___flge@ff1
  6524     017A  0840               	movf	(roundf@y+3)^(0+384),w
  6525     017B  00F7               	movwf	___flge@ff2+3
  6526     017C  083F               	movf	(roundf@y+2)^(0+384),w
  6527     017D  00F6               	movwf	___flge@ff2+2
  6528     017E  083E               	movf	(roundf@y+1)^(0+384),w
  6529     017F  00F5               	movwf	___flge@ff2+1
  6530     0180  083D               	movf	roundf@y^(0+384),w
  6531     0181  00F4               	movwf	___flge@ff2
  6532     0182  160A  118A  2008  120A  118A  	fcall	___flge
  6533     0187  1803               	btfsc	3,0
  6534     0188  298A               	goto	u3231
  6535     0189  298B               	goto	u3230
  6536     018A                     u3231:
  6537     018A  2996               	goto	l2177
  6538     018B                     u3230:
  6539     018B                     l2175:
  6540     018B  30BF               	movlw	191
  6541     018C  1683               	bsf	3,5	;RP0=1, select bank3
  6542     018D  1703               	bsf	3,6	;RP1=1, select bank3
  6543     018E  00B1               	movwf	(roundf@z+3)^(0+384)
  6544     018F  3080               	movlw	128
  6545     0190  00B0               	movwf	(roundf@z+2)^(0+384)
  6546     0191  3000               	movlw	0
  6547     0192  00AF               	movwf	(roundf@z+1)^(0+384)
  6548     0193  3000               	movlw	0
  6549     0194  00AE               	movwf	roundf@z^(0+384)
  6550     0195  29BB               	goto	l2181
  6551     0196                     l2177:
  6552     0196  30BF               	movlw	191
  6553     0197  00F3               	movwf	___flge@ff1+3
  6554     0198  3000               	movlw	0
  6555     0199  00F2               	movwf	___flge@ff1+2
  6556     019A  3000               	movlw	0
  6557     019B  00F1               	movwf	___flge@ff1+1
  6558     019C  3000               	movlw	0
  6559     019D  00F0               	movwf	___flge@ff1
  6560     019E  1683               	bsf	3,5	;RP0=1, select bank3
  6561     019F  1703               	bsf	3,6	;RP1=1, select bank3
  6562     01A0  0840               	movf	(roundf@y+3)^(0+384),w
  6563     01A1  00F7               	movwf	___flge@ff2+3
  6564     01A2  083F               	movf	(roundf@y+2)^(0+384),w
  6565     01A3  00F6               	movwf	___flge@ff2+2
  6566     01A4  083E               	movf	(roundf@y+1)^(0+384),w
  6567     01A5  00F5               	movwf	___flge@ff2+1
  6568     01A6  083D               	movf	roundf@y^(0+384),w
  6569     01A7  00F4               	movwf	___flge@ff2
  6570     01A8  160A  118A  2008  120A  118A  	fcall	___flge
  6571     01AD  1C03               	btfss	3,0
  6572     01AE  29B0               	goto	u3241
  6573     01AF  29B1               	goto	u3240
  6574     01B0                     u3241:
  6575     01B0  29BB               	goto	l2181
  6576     01B1                     u3240:
  6577     01B1                     l2179:
  6578     01B1  303F               	movlw	63
  6579     01B2  1683               	bsf	3,5	;RP0=1, select bank3
  6580     01B3  1703               	bsf	3,6	;RP1=1, select bank3
  6581     01B4  00B1               	movwf	(roundf@z+3)^(0+384)
  6582     01B5  3080               	movlw	128
  6583     01B6  00B0               	movwf	(roundf@z+2)^(0+384)
  6584     01B7  3000               	movlw	0
  6585     01B8  00AF               	movwf	(roundf@z+1)^(0+384)
  6586     01B9  3000               	movlw	0
  6587     01BA  00AE               	movwf	roundf@z^(0+384)
  6588     01BB                     l2181:
  6589     01BB  1683               	bsf	3,5	;RP0=1, select bank3
  6590     01BC  1703               	bsf	3,6	;RP1=1, select bank3
  6591     01BD  0825               	movf	(roundf@x+3)^(0+384),w
  6592     01BE  1283               	bcf	3,5	;RP0=0, select bank0
  6593     01BF  1303               	bcf	3,6	;RP1=0, select bank0
  6594     01C0  00C3               	movwf	___fladd@b+3
  6595     01C1  1683               	bsf	3,5	;RP0=1, select bank3
  6596     01C2  1703               	bsf	3,6	;RP1=1, select bank3
  6597     01C3  0824               	movf	(roundf@x+2)^(0+384),w
  6598     01C4  1283               	bcf	3,5	;RP0=0, select bank0
  6599     01C5  1303               	bcf	3,6	;RP1=0, select bank0
  6600     01C6  00C2               	movwf	___fladd@b+2
  6601     01C7  1683               	bsf	3,5	;RP0=1, select bank3
  6602     01C8  1703               	bsf	3,6	;RP1=1, select bank3
  6603     01C9  0823               	movf	(roundf@x+1)^(0+384),w
  6604     01CA  1283               	bcf	3,5	;RP0=0, select bank0
  6605     01CB  1303               	bcf	3,6	;RP1=0, select bank0
  6606     01CC  00C1               	movwf	___fladd@b+1
  6607     01CD  1683               	bsf	3,5	;RP0=1, select bank3
  6608     01CE  1703               	bsf	3,6	;RP1=1, select bank3
  6609     01CF  0822               	movf	roundf@x^(0+384),w
  6610     01D0  1283               	bcf	3,5	;RP0=0, select bank0
  6611     01D1  1303               	bcf	3,6	;RP1=0, select bank0
  6612     01D2  00C0               	movwf	___fladd@b
  6613     01D3  1683               	bsf	3,5	;RP0=1, select bank3
  6614     01D4  1703               	bsf	3,6	;RP1=1, select bank3
  6615     01D5  0840               	movf	(roundf@y+3)^(0+384),w
  6616     01D6  1283               	bcf	3,5	;RP0=0, select bank0
  6617     01D7  1303               	bcf	3,6	;RP1=0, select bank0
  6618     01D8  00C7               	movwf	___fladd@a+3
  6619     01D9  1683               	bsf	3,5	;RP0=1, select bank3
  6620     01DA  1703               	bsf	3,6	;RP1=1, select bank3
  6621     01DB  083F               	movf	(roundf@y+2)^(0+384),w
  6622     01DC  1283               	bcf	3,5	;RP0=0, select bank0
  6623     01DD  1303               	bcf	3,6	;RP1=0, select bank0
  6624     01DE  00C6               	movwf	___fladd@a+2
  6625     01DF  1683               	bsf	3,5	;RP0=1, select bank3
  6626     01E0  1703               	bsf	3,6	;RP1=1, select bank3
  6627     01E1  083E               	movf	(roundf@y+1)^(0+384),w
  6628     01E2  1283               	bcf	3,5	;RP0=0, select bank0
  6629     01E3  1303               	bcf	3,6	;RP1=0, select bank0
  6630     01E4  00C5               	movwf	___fladd@a+1
  6631     01E5  1683               	bsf	3,5	;RP0=1, select bank3
  6632     01E6  1703               	bsf	3,6	;RP1=1, select bank3
  6633     01E7  083D               	movf	roundf@y^(0+384),w
  6634     01E8  1283               	bcf	3,5	;RP0=0, select bank0
  6635     01E9  1303               	bcf	3,6	;RP1=0, select bank0
  6636     01EA  00C4               	movwf	___fladd@a
  6637     01EB  160A  118A  20AA  120A  118A  	fcall	___fladd
  6638     01F0  1283               	bcf	3,5	;RP0=0, select bank0
  6639     01F1  1303               	bcf	3,6	;RP1=0, select bank0
  6640     01F2  0843               	movf	?___fladd+3,w
  6641     01F3  1683               	bsf	3,5	;RP0=1, select bank3
  6642     01F4  1703               	bsf	3,6	;RP1=1, select bank3
  6643     01F5  00BB               	movwf	(_roundf$756+3)^(0+384)
  6644     01F6  1283               	bcf	3,5	;RP0=0, select bank0
  6645     01F7  1303               	bcf	3,6	;RP1=0, select bank0
  6646     01F8  0842               	movf	?___fladd+2,w
  6647     01F9  1683               	bsf	3,5	;RP0=1, select bank3
  6648     01FA  1703               	bsf	3,6	;RP1=1, select bank3
  6649     01FB  00BA               	movwf	(_roundf$756+2)^(0+384)
  6650     01FC  1283               	bcf	3,5	;RP0=0, select bank0
  6651     01FD  1303               	bcf	3,6	;RP1=0, select bank0
  6652     01FE  0841               	movf	?___fladd+1,w
  6653     01FF  1683               	bsf	3,5	;RP0=1, select bank3
  6654     0200  1703               	bsf	3,6	;RP1=1, select bank3
  6655     0201  00B9               	movwf	(_roundf$756+1)^(0+384)
  6656     0202  1283               	bcf	3,5	;RP0=0, select bank0
  6657     0203  1303               	bcf	3,6	;RP1=0, select bank0
  6658     0204  0840               	movf	?___fladd,w
  6659     0205  1683               	bsf	3,5	;RP0=1, select bank3
  6660     0206  1703               	bsf	3,6	;RP1=1, select bank3
  6661     0207  00B8               	movwf	_roundf$756^(0+384)
  6662     0208                     l2183:
  6663     0208  0831               	movf	(roundf@z+3)^(0+384),w
  6664     0209  1283               	bcf	3,5	;RP0=0, select bank0
  6665     020A  1303               	bcf	3,6	;RP1=0, select bank0
  6666     020B  00C3               	movwf	___fladd@b+3
  6667     020C  1683               	bsf	3,5	;RP0=1, select bank3
  6668     020D  1703               	bsf	3,6	;RP1=1, select bank3
  6669     020E  0830               	movf	(roundf@z+2)^(0+384),w
  6670     020F  1283               	bcf	3,5	;RP0=0, select bank0
  6671     0210  1303               	bcf	3,6	;RP1=0, select bank0
  6672     0211  00C2               	movwf	___fladd@b+2
  6673     0212  1683               	bsf	3,5	;RP0=1, select bank3
  6674     0213  1703               	bsf	3,6	;RP1=1, select bank3
  6675     0214  082F               	movf	(roundf@z+1)^(0+384),w
  6676     0215  1283               	bcf	3,5	;RP0=0, select bank0
  6677     0216  1303               	bcf	3,6	;RP1=0, select bank0
  6678     0217  00C1               	movwf	___fladd@b+1
  6679     0218  1683               	bsf	3,5	;RP0=1, select bank3
  6680     0219  1703               	bsf	3,6	;RP1=1, select bank3
  6681     021A  082E               	movf	roundf@z^(0+384),w
  6682     021B  1283               	bcf	3,5	;RP0=0, select bank0
  6683     021C  1303               	bcf	3,6	;RP1=0, select bank0
  6684     021D  00C0               	movwf	___fladd@b
  6685     021E  1683               	bsf	3,5	;RP0=1, select bank3
  6686     021F  1703               	bsf	3,6	;RP1=1, select bank3
  6687     0220  083B               	movf	(_roundf$756+3)^(0+384),w
  6688     0221  1283               	bcf	3,5	;RP0=0, select bank0
  6689     0222  1303               	bcf	3,6	;RP1=0, select bank0
  6690     0223  00C7               	movwf	___fladd@a+3
  6691     0224  1683               	bsf	3,5	;RP0=1, select bank3
  6692     0225  1703               	bsf	3,6	;RP1=1, select bank3
  6693     0226  083A               	movf	(_roundf$756+2)^(0+384),w
  6694     0227  1283               	bcf	3,5	;RP0=0, select bank0
  6695     0228  1303               	bcf	3,6	;RP1=0, select bank0
  6696     0229  00C6               	movwf	___fladd@a+2
  6697     022A  1683               	bsf	3,5	;RP0=1, select bank3
  6698     022B  1703               	bsf	3,6	;RP1=1, select bank3
  6699     022C  0839               	movf	(_roundf$756+1)^(0+384),w
  6700     022D  1283               	bcf	3,5	;RP0=0, select bank0
  6701     022E  1303               	bcf	3,6	;RP1=0, select bank0
  6702     022F  00C5               	movwf	___fladd@a+1
  6703     0230  1683               	bsf	3,5	;RP0=1, select bank3
  6704     0231  1703               	bsf	3,6	;RP1=1, select bank3
  6705     0232  0838               	movf	_roundf$756^(0+384),w
  6706     0233  1283               	bcf	3,5	;RP0=0, select bank0
  6707     0234  1303               	bcf	3,6	;RP1=0, select bank0
  6708     0235  00C4               	movwf	___fladd@a
  6709     0236  160A  118A  20AA  120A  118A  	fcall	___fladd
  6710     023B  1283               	bcf	3,5	;RP0=0, select bank0
  6711     023C  1303               	bcf	3,6	;RP1=0, select bank0
  6712     023D  0843               	movf	?___fladd+3,w
  6713     023E  1683               	bsf	3,5	;RP0=1, select bank3
  6714     023F  1703               	bsf	3,6	;RP1=1, select bank3
  6715     0240  00C0               	movwf	(roundf@y+3)^(0+384)
  6716     0241  1283               	bcf	3,5	;RP0=0, select bank0
  6717     0242  1303               	bcf	3,6	;RP1=0, select bank0
  6718     0243  0842               	movf	?___fladd+2,w
  6719     0244  1683               	bsf	3,5	;RP0=1, select bank3
  6720     0245  1703               	bsf	3,6	;RP1=1, select bank3
  6721     0246  00BF               	movwf	(roundf@y+2)^(0+384)
  6722     0247  1283               	bcf	3,5	;RP0=0, select bank0
  6723     0248  1303               	bcf	3,6	;RP1=0, select bank0
  6724     0249  0841               	movf	?___fladd+1,w
  6725     024A  1683               	bsf	3,5	;RP0=1, select bank3
  6726     024B  1703               	bsf	3,6	;RP1=1, select bank3
  6727     024C  00BE               	movwf	(roundf@y+1)^(0+384)
  6728     024D  1283               	bcf	3,5	;RP0=0, select bank0
  6729     024E  1303               	bcf	3,6	;RP1=0, select bank0
  6730     024F  0840               	movf	?___fladd,w
  6731     0250  1683               	bsf	3,5	;RP0=1, select bank3
  6732     0251  1703               	bsf	3,6	;RP1=1, select bank3
  6733     0252  00BD               	movwf	roundf@y^(0+384)
  6734     0253                     l2185:
  6735     0253  083C               	movf	roundf@sign^(0+384),w
  6736     0254  1903               	btfsc	3,2
  6737     0255  2A57               	goto	u3251
  6738     0256  2A58               	goto	u3250
  6739     0257                     u3251:
  6740     0257  2A8B               	goto	l2189
  6741     0258                     u3250:
  6742     0258                     l2187:
  6743     0258  0840               	movf	(roundf@y+3)^(0+384),w
  6744     0259  1683               	bsf	3,5	;RP0=1, select bank1
  6745     025A  1303               	bcf	3,6	;RP1=0, select bank1
  6746     025B  00A3               	movwf	(___flneg@f1+3)^(0+128)
  6747     025C  1683               	bsf	3,5	;RP0=1, select bank3
  6748     025D  1703               	bsf	3,6	;RP1=1, select bank3
  6749     025E  083F               	movf	(roundf@y+2)^(0+384),w
  6750     025F  1683               	bsf	3,5	;RP0=1, select bank1
  6751     0260  1303               	bcf	3,6	;RP1=0, select bank1
  6752     0261  00A2               	movwf	(___flneg@f1+2)^(0+128)
  6753     0262  1683               	bsf	3,5	;RP0=1, select bank3
  6754     0263  1703               	bsf	3,6	;RP1=1, select bank3
  6755     0264  083E               	movf	(roundf@y+1)^(0+384),w
  6756     0265  1683               	bsf	3,5	;RP0=1, select bank1
  6757     0266  1303               	bcf	3,6	;RP1=0, select bank1
  6758     0267  00A1               	movwf	(___flneg@f1+1)^(0+128)
  6759     0268  1683               	bsf	3,5	;RP0=1, select bank3
  6760     0269  1703               	bsf	3,6	;RP1=1, select bank3
  6761     026A  083D               	movf	roundf@y^(0+384),w
  6762     026B  1683               	bsf	3,5	;RP0=1, select bank1
  6763     026C  1303               	bcf	3,6	;RP1=0, select bank1
  6764     026D  00A0               	movwf	___flneg@f1^(0+128)
  6765     026E  120A  118A  2004  120A  118A  	fcall	___flneg
  6766     0273  1683               	bsf	3,5	;RP0=1, select bank1
  6767     0274  1303               	bcf	3,6	;RP1=0, select bank1
  6768     0275  0823               	movf	(?___flneg+3)^(0+128),w
  6769     0276  1683               	bsf	3,5	;RP0=1, select bank3
  6770     0277  1703               	bsf	3,6	;RP1=1, select bank3
  6771     0278  00C0               	movwf	(roundf@y+3)^(0+384)
  6772     0279  1683               	bsf	3,5	;RP0=1, select bank1
  6773     027A  1303               	bcf	3,6	;RP1=0, select bank1
  6774     027B  0822               	movf	(?___flneg+2)^(0+128),w
  6775     027C  1683               	bsf	3,5	;RP0=1, select bank3
  6776     027D  1703               	bsf	3,6	;RP1=1, select bank3
  6777     027E  00BF               	movwf	(roundf@y+2)^(0+384)
  6778     027F  1683               	bsf	3,5	;RP0=1, select bank1
  6779     0280  1303               	bcf	3,6	;RP1=0, select bank1
  6780     0281  0821               	movf	(?___flneg+1)^(0+128),w
  6781     0282  1683               	bsf	3,5	;RP0=1, select bank3
  6782     0283  1703               	bsf	3,6	;RP1=1, select bank3
  6783     0284  00BE               	movwf	(roundf@y+1)^(0+384)
  6784     0285  1683               	bsf	3,5	;RP0=1, select bank1
  6785     0286  1303               	bcf	3,6	;RP1=0, select bank1
  6786     0287  0820               	movf	?___flneg^(0+128),w
  6787     0288  1683               	bsf	3,5	;RP0=1, select bank3
  6788     0289  1703               	bsf	3,6	;RP1=1, select bank3
  6789     028A  00BD               	movwf	roundf@y^(0+384)
  6790     028B                     l2189:
  6791     028B  0840               	movf	(roundf@y+3)^(0+384),w
  6792     028C  00A5               	movwf	(?_roundf+3)^(0+384)
  6793     028D  083F               	movf	(roundf@y+2)^(0+384),w
  6794     028E  00A4               	movwf	(?_roundf+2)^(0+384)
  6795     028F  083E               	movf	(roundf@y+1)^(0+384),w
  6796     0290  00A3               	movwf	(?_roundf+1)^(0+384)
  6797     0291  083D               	movf	roundf@y^(0+384),w
  6798     0292  00A2               	movwf	?_roundf^(0+384)
  6799     0293                     l572:
  6800     0293  0008               	return
  6801     0294                     __end_of_roundf:
  6802                           
  6803                           	psect	text11
  6804     1CEB                     __ptext11:	
  6805 ;; *************** function ___flsub *****************
  6806 ;; Defined at:
  6807 ;;		line 242 in file "C:\Program Files\Microchip\xc8\v2.46\pic\sources\c99\common\sprcadd.c"
  6808 ;; Parameters:    Size  Location     Type
  6809 ;;  a               4   52[BANK0 ] float 
  6810 ;;  b               4   56[BANK0 ] float 
  6811 ;; Auto vars:     Size  Location     Type
  6812 ;;		None
  6813 ;; Return value:  Size  Location     Type
  6814 ;;                  4   52[BANK0 ] float 
  6815 ;; Registers used:
  6816 ;;		wreg, status,2, status,0, btemp+1, pclath, cstack
  6817 ;; Tracked objects:
  6818 ;;		On entry : 0/0
  6819 ;;		On exit  : 0/0
  6820 ;;		Unchanged: 0/0
  6821 ;; Data sizes:     COMMON   BANK0   BANK1   BANK3   BANK2
  6822 ;;      Params:         0       8       0       0       0
  6823 ;;      Locals:         0       0       0       0       0
  6824 ;;      Temps:          0       0       0       0       0
  6825 ;;      Totals:         0       8       0       0       0
  6826 ;;Total ram usage:        8 bytes
  6827 ;; Hardware stack levels used: 1
  6828 ;; Hardware stack levels required when called: 1
  6829 ;; This function calls:
  6830 ;;		___fladd
  6831 ;; This function is called by:
  6832 ;;		_roundf
  6833 ;;		___rem_pio2f
  6834 ;; This function uses a non-reentrant model
  6835 ;;
  6836                           
  6837     1CEB                     ___flsub:	
  6838                           ;psect for function ___flsub
  6839                           
  6840     1CEB                     l1785:	
  6841                           ;incstack = 0
  6842                           ; Regs used in ___flsub: [wreg+status,2+status,0+btemp+1+pclath+cstack]
  6843                           
  6844     1CEB  3080               	movlw	128
  6845     1CEC  1283               	bcf	3,5	;RP0=0, select bank0
  6846     1CED  1303               	bcf	3,6	;RP1=0, select bank0
  6847     1CEE  06D7               	xorwf	___flsub@a+3,f
  6848     1CEF                     l1787:
  6849     1CEF  085B               	movf	___flsub@b+3,w
  6850     1CF0  00C3               	movwf	___fladd@b+3
  6851     1CF1  085A               	movf	___flsub@b+2,w
  6852     1CF2  00C2               	movwf	___fladd@b+2
  6853     1CF3  0859               	movf	___flsub@b+1,w
  6854     1CF4  00C1               	movwf	___fladd@b+1
  6855     1CF5  0858               	movf	___flsub@b,w
  6856     1CF6  00C0               	movwf	___fladd@b
  6857     1CF7  0857               	movf	___flsub@a+3,w
  6858     1CF8  00C7               	movwf	___fladd@a+3
  6859     1CF9  0856               	movf	___flsub@a+2,w
  6860     1CFA  00C6               	movwf	___fladd@a+2
  6861     1CFB  0855               	movf	___flsub@a+1,w
  6862     1CFC  00C5               	movwf	___fladd@a+1
  6863     1CFD  0854               	movf	___flsub@a,w
  6864     1CFE  00C4               	movwf	___fladd@a
  6865     1CFF  160A  118A  20AA  160A  158A  	fcall	___fladd
  6866     1D04  1283               	bcf	3,5	;RP0=0, select bank0
  6867     1D05  1303               	bcf	3,6	;RP1=0, select bank0
  6868     1D06  0843               	movf	?___fladd+3,w
  6869     1D07  00D7               	movwf	?___flsub+3
  6870     1D08  0842               	movf	?___fladd+2,w
  6871     1D09  00D6               	movwf	?___flsub+2
  6872     1D0A  0841               	movf	?___fladd+1,w
  6873     1D0B  00D5               	movwf	?___flsub+1
  6874     1D0C  0840               	movf	?___fladd,w
  6875     1D0D  00D4               	movwf	?___flsub
  6876     1D0E                     l455:
  6877     1D0E  0008               	return
  6878     1D0F                     __end_of___flsub:
  6879                           
  6880                           	psect	text12
  6881     10AA                     __ptext12:	
  6882 ;; *************** function ___fladd *****************
  6883 ;; Defined at:
  6884 ;;		line 10 in file "C:\Program Files\Microchip\xc8\v2.46\pic\sources\c99\common\sprcadd.c"
  6885 ;; Parameters:    Size  Location     Type
  6886 ;;  b               4   32[BANK0 ] float 
  6887 ;;  a               4   36[BANK0 ] float 
  6888 ;; Auto vars:     Size  Location     Type
  6889 ;;  grs             1   51[BANK0 ] unsigned char 
  6890 ;;  bexp            1   50[BANK0 ] unsigned char 
  6891 ;;  aexp            1   49[BANK0 ] unsigned char 
  6892 ;;  signs           1   48[BANK0 ] unsigned char 
  6893 ;; Return value:  Size  Location     Type
  6894 ;;                  4   32[BANK0 ] unsigned char 
  6895 ;; Registers used:
  6896 ;;		wreg, status,2, status,0, btemp+1
  6897 ;; Tracked objects:
  6898 ;;		On entry : 0/0
  6899 ;;		On exit  : 0/0
  6900 ;;		Unchanged: 0/0
  6901 ;; Data sizes:     COMMON   BANK0   BANK1   BANK3   BANK2
  6902 ;;      Params:         0       8       0       0       0
  6903 ;;      Locals:         0       4       0       0       0
  6904 ;;      Temps:          0       8       0       0       0
  6905 ;;      Totals:         0      20       0       0       0
  6906 ;;Total ram usage:       20 bytes
  6907 ;; Hardware stack levels used: 1
  6908 ;; This function calls:
  6909 ;;		Nothing
  6910 ;; This function is called by:
  6911 ;;		_main
  6912 ;;		___flsub
  6913 ;;		_roundf
  6914 ;;		_sinf
  6915 ;;		___cosdf
  6916 ;;		___rem_pio2f
  6917 ;;		___sindf
  6918 ;; This function uses a non-reentrant model
  6919 ;;
  6920                           
  6921     10AA                     ___fladd:	
  6922                           ;psect for function ___fladd
  6923                           
  6924     10AA                     l1525:	
  6925                           ;incstack = 0
  6926                           ; Regs used in ___fladd: [wreg+status,2+status,0+btemp+1]
  6927                           
  6928     10AA  1283               	bcf	3,5	;RP0=0, select bank0
  6929     10AB  1303               	bcf	3,6	;RP1=0, select bank0
  6930     10AC  0843               	movf	___fladd@b+3,w
  6931     10AD  3980               	andlw	128
  6932     10AE  00D0               	movwf	___fladd@signs
  6933     10AF                     l1527:
  6934     10AF  0843               	movf	___fladd@b+3,w
  6935     10B0  00C8               	movwf	??___fladd
  6936     10B1  0748               	addwf	??___fladd,w
  6937     10B2  00D2               	movwf	___fladd@bexp
  6938     10B3                     l1529:
  6939     10B3  1FC2               	btfss	___fladd@b+2,7
  6940     10B4  28B6               	goto	u1811
  6941     10B5  28B7               	goto	u1810
  6942     10B6                     u1811:
  6943     10B6  28B8               	goto	l1533
  6944     10B7                     u1810:
  6945     10B7                     l1531:
  6946     10B7  1452               	bsf	___fladd@bexp,0
  6947     10B8                     l1533:
  6948     10B8  0852               	movf	___fladd@bexp,w
  6949     10B9  1903               	btfsc	3,2
  6950     10BA  28BC               	goto	u1821
  6951     10BB  28BD               	goto	u1820
  6952     10BC                     u1821:
  6953     10BC  28CD               	goto	l1543
  6954     10BD                     u1820:
  6955     10BD                     l1535:
  6956     10BD  0A52               	incf	___fladd@bexp,w
  6957     10BE  1D03               	btfss	3,2
  6958     10BF  28C1               	goto	u1831
  6959     10C0  28C2               	goto	u1830
  6960     10C1                     u1831:
  6961     10C1  28CA               	goto	l1539
  6962     10C2                     u1830:
  6963     10C2                     l1537:
  6964     10C2  3000               	movlw	0
  6965     10C3  00C3               	movwf	___fladd@b+3
  6966     10C4  3000               	movlw	0
  6967     10C5  00C2               	movwf	___fladd@b+2
  6968     10C6  3000               	movlw	0
  6969     10C7  00C1               	movwf	___fladd@b+1
  6970     10C8  3000               	movlw	0
  6971     10C9  00C0               	movwf	___fladd@b
  6972     10CA                     l1539:
  6973     10CA  17C2               	bsf	___fladd@b+2,7
  6974     10CB                     l1541:
  6975     10CB  01C3               	clrf	___fladd@b+3
  6976     10CC  28D5               	goto	l1545
  6977     10CD                     l1543:
  6978     10CD  3000               	movlw	0
  6979     10CE  00C3               	movwf	___fladd@b+3
  6980     10CF  3000               	movlw	0
  6981     10D0  00C2               	movwf	___fladd@b+2
  6982     10D1  3000               	movlw	0
  6983     10D2  00C1               	movwf	___fladd@b+1
  6984     10D3  3000               	movlw	0
  6985     10D4  00C0               	movwf	___fladd@b
  6986     10D5                     l1545:
  6987     10D5  0847               	movf	___fladd@a+3,w
  6988     10D6  3980               	andlw	128
  6989     10D7  00D1               	movwf	___fladd@aexp
  6990     10D8                     l1547:
  6991     10D8  0851               	movf	___fladd@aexp,w
  6992     10D9  0650               	xorwf	___fladd@signs,w
  6993     10DA  1903               	skipnz
  6994     10DB  28DD               	goto	u1841
  6995     10DC  28DE               	goto	u1840
  6996     10DD                     u1841:
  6997     10DD  28DF               	goto	l1551
  6998     10DE                     u1840:
  6999     10DE                     l1549:
  7000     10DE  1750               	bsf	___fladd@signs,6
  7001     10DF                     l1551:
  7002     10DF  0847               	movf	___fladd@a+3,w
  7003     10E0  00C8               	movwf	??___fladd
  7004     10E1  0748               	addwf	??___fladd,w
  7005     10E2  00D1               	movwf	___fladd@aexp
  7006     10E3                     l1553:
  7007     10E3  1FC6               	btfss	___fladd@a+2,7
  7008     10E4  28E6               	goto	u1851
  7009     10E5  28E7               	goto	u1850
  7010     10E6                     u1851:
  7011     10E6  28E8               	goto	l1557
  7012     10E7                     u1850:
  7013     10E7                     l1555:
  7014     10E7  1451               	bsf	___fladd@aexp,0
  7015     10E8                     l1557:
  7016     10E8  0851               	movf	___fladd@aexp,w
  7017     10E9  1903               	btfsc	3,2
  7018     10EA  28EC               	goto	u1861
  7019     10EB  28ED               	goto	u1860
  7020     10EC                     u1861:
  7021     10EC  28FD               	goto	l1567
  7022     10ED                     u1860:
  7023     10ED                     l1559:
  7024     10ED  0A51               	incf	___fladd@aexp,w
  7025     10EE  1D03               	btfss	3,2
  7026     10EF  28F1               	goto	u1871
  7027     10F0  28F2               	goto	u1870
  7028     10F1                     u1871:
  7029     10F1  28FA               	goto	l1563
  7030     10F2                     u1870:
  7031     10F2                     l1561:
  7032     10F2  3000               	movlw	0
  7033     10F3  00C7               	movwf	___fladd@a+3
  7034     10F4  3000               	movlw	0
  7035     10F5  00C6               	movwf	___fladd@a+2
  7036     10F6  3000               	movlw	0
  7037     10F7  00C5               	movwf	___fladd@a+1
  7038     10F8  3000               	movlw	0
  7039     10F9  00C4               	movwf	___fladd@a
  7040     10FA                     l1563:
  7041     10FA  17C6               	bsf	___fladd@a+2,7
  7042     10FB                     l1565:
  7043     10FB  01C7               	clrf	___fladd@a+3
  7044     10FC  2905               	goto	l409
  7045     10FD                     l1567:
  7046     10FD  3000               	movlw	0
  7047     10FE  00C7               	movwf	___fladd@a+3
  7048     10FF  3000               	movlw	0
  7049     1100  00C6               	movwf	___fladd@a+2
  7050     1101  3000               	movlw	0
  7051     1102  00C5               	movwf	___fladd@a+1
  7052     1103  3000               	movlw	0
  7053     1104  00C4               	movwf	___fladd@a
  7054     1105                     l409:
  7055     1105  0852               	movf	___fladd@bexp,w
  7056     1106  0251               	subwf	___fladd@aexp,w
  7057     1107  1803               	skipnc
  7058     1108  290A               	goto	u1881
  7059     1109  290B               	goto	u1880
  7060     110A                     u1881:
  7061     110A  2931               	goto	l1603
  7062     110B                     u1880:
  7063     110B                     l1569:
  7064     110B  1F50               	btfss	___fladd@signs,6
  7065     110C  290E               	goto	u1891
  7066     110D  290F               	goto	u1890
  7067     110E                     u1891:
  7068     110E  2913               	goto	l1573
  7069     110F                     u1890:
  7070     110F                     l1571:
  7071     110F  3080               	movlw	128
  7072     1110  00FF               	movwf	btemp+1
  7073     1111  087F               	movf	btemp+1,w
  7074     1112  06D0               	xorwf	___fladd@signs,f
  7075     1113                     l1573:
  7076     1113  0852               	movf	___fladd@bexp,w
  7077     1114  00D3               	movwf	___fladd@grs
  7078     1115                     l1575:
  7079     1115  0851               	movf	___fladd@aexp,w
  7080     1116  00D2               	movwf	___fladd@bexp
  7081     1117                     l1577:
  7082     1117  0853               	movf	___fladd@grs,w
  7083     1118  00D1               	movwf	___fladd@aexp
  7084     1119                     l1579:
  7085     1119  0840               	movf	___fladd@b,w
  7086     111A  00D3               	movwf	___fladd@grs
  7087     111B                     l1581:
  7088     111B  0844               	movf	___fladd@a,w
  7089     111C  00C0               	movwf	___fladd@b
  7090     111D                     l1583:
  7091     111D  0853               	movf	___fladd@grs,w
  7092     111E  00C4               	movwf	___fladd@a
  7093     111F                     l1585:
  7094     111F  0841               	movf	___fladd@b+1,w
  7095     1120  00D3               	movwf	___fladd@grs
  7096     1121                     l1587:
  7097     1121  0845               	movf	___fladd@a+1,w
  7098     1122  00C1               	movwf	___fladd@b+1
  7099     1123                     l1589:
  7100     1123  0853               	movf	___fladd@grs,w
  7101     1124  00C5               	movwf	___fladd@a+1
  7102     1125                     l1591:
  7103     1125  0842               	movf	___fladd@b+2,w
  7104     1126  00D3               	movwf	___fladd@grs
  7105     1127                     l1593:
  7106     1127  0846               	movf	___fladd@a+2,w
  7107     1128  00C2               	movwf	___fladd@b+2
  7108     1129                     l1595:
  7109     1129  0853               	movf	___fladd@grs,w
  7110     112A  00C6               	movwf	___fladd@a+2
  7111     112B                     l1597:
  7112     112B  0843               	movf	___fladd@b+3,w
  7113     112C  00D3               	movwf	___fladd@grs
  7114     112D                     l1599:
  7115     112D  0847               	movf	___fladd@a+3,w
  7116     112E  00C3               	movwf	___fladd@b+3
  7117     112F                     l1601:
  7118     112F  0853               	movf	___fladd@grs,w
  7119     1130  00C7               	movwf	___fladd@a+3
  7120     1131                     l1603:
  7121     1131  01D3               	clrf	___fladd@grs
  7122     1132                     l1605:
  7123     1132  0851               	movf	___fladd@aexp,w
  7124     1133  00C8               	movwf	??___fladd
  7125     1134  01C9               	clrf	??___fladd+1
  7126     1135  0849               	movf	??___fladd+1,w
  7127     1136  00CB               	movwf	??___fladd+3
  7128     1137  0852               	movf	___fladd@bexp,w
  7129     1138  0248               	subwf	??___fladd,w
  7130     1139  00CA               	movwf	??___fladd+2
  7131     113A  1C03               	skipc
  7132     113B  03CB               	decf	??___fladd+3,f
  7133     113C  084B               	movf	??___fladd+3,w
  7134     113D  3A80               	xorlw	128
  7135     113E  00FF               	movwf	btemp+1
  7136     113F  3080               	movlw	128
  7137     1140  027F               	subwf	btemp+1,w
  7138     1141  1D03               	skipz
  7139     1142  2945               	goto	u1905
  7140     1143  301A               	movlw	26
  7141     1144  024A               	subwf	??___fladd+2,w
  7142     1145                     u1905:
  7143     1145  1C03               	skipc
  7144     1146  2948               	goto	u1901
  7145     1147  2949               	goto	u1900
  7146     1148                     u1901:
  7147     1148  2980               	goto	l1621
  7148     1149                     u1900:
  7149     1149                     l1607:
  7150     1149  1283               	bcf	3,5	;RP0=0, select bank0
  7151     114A  1303               	bcf	3,6	;RP1=0, select bank0
  7152     114B  0843               	movf	___fladd@b+3,w
  7153     114C  0442               	iorwf	___fladd@b+2,w
  7154     114D  0441               	iorwf	___fladd@b+1,w
  7155     114E  0440               	iorwf	___fladd@b,w
  7156     114F  1D03               	skipz
  7157     1150  2952               	goto	u1911
  7158     1151  2954               	goto	u1910
  7159     1152                     u1911:
  7160     1152  3001               	movlw	1
  7161     1153  2955               	goto	u1920
  7162     1154                     u1910:
  7163     1154  3000               	movlw	0
  7164     1155                     u1920:
  7165     1155  00D3               	movwf	___fladd@grs
  7166     1156  3000               	movlw	0
  7167     1157  00C3               	movwf	___fladd@b+3
  7168     1158  3000               	movlw	0
  7169     1159  00C2               	movwf	___fladd@b+2
  7170     115A  3000               	movlw	0
  7171     115B  00C1               	movwf	___fladd@b+1
  7172     115C  3000               	movlw	0
  7173     115D  00C0               	movwf	___fladd@b
  7174     115E  0851               	movf	___fladd@aexp,w
  7175     115F  00D2               	movwf	___fladd@bexp
  7176     1160  2988               	goto	l413
  7177     1161                     l415:
  7178     1161  1C53               	btfss	___fladd@grs,0
  7179     1162  2964               	goto	u1931
  7180     1163  2965               	goto	u1930
  7181     1164                     u1931:
  7182     1164  296C               	goto	l1611
  7183     1165                     u1930:
  7184     1165                     l1609:
  7185     1165  0853               	movf	___fladd@grs,w
  7186     1166  00C8               	movwf	??___fladd
  7187     1167  1003               	clrc
  7188     1168  0C48               	rrf	??___fladd,w
  7189     1169  3801               	iorlw	1
  7190     116A  00D3               	movwf	___fladd@grs
  7191     116B  296E               	goto	l1613
  7192     116C                     l1611:
  7193     116C  1003               	clrc
  7194     116D  0CD3               	rrf	___fladd@grs,f
  7195     116E                     l1613:
  7196     116E  1C40               	btfss	___fladd@b,0
  7197     116F  2971               	goto	u1941
  7198     1170  2972               	goto	u1940
  7199     1171                     u1941:
  7200     1171  2973               	goto	l1617
  7201     1172                     u1940:
  7202     1172                     l1615:
  7203     1172  17D3               	bsf	___fladd@grs,7
  7204     1173                     l1617:
  7205     1173  3001               	movlw	1
  7206     1174  00C8               	movwf	??___fladd
  7207     1175                     u1955:
  7208     1175  0D43               	rlf	___fladd@b+3,w
  7209     1176  0CC3               	rrf	___fladd@b+3,f
  7210     1177  0CC2               	rrf	___fladd@b+2,f
  7211     1178  0CC1               	rrf	___fladd@b+1,f
  7212     1179  0CC0               	rrf	___fladd@b,f
  7213     117A  0BC8               	decfsz	??___fladd& (0+127),f
  7214     117B  2975               	goto	u1955
  7215     117C                     l1619:
  7216     117C  3001               	movlw	1
  7217     117D  00FF               	movwf	btemp+1
  7218     117E  087F               	movf	btemp+1,w
  7219     117F  07D2               	addwf	___fladd@bexp,f
  7220     1180                     l1621:
  7221     1180  1283               	bcf	3,5	;RP0=0, select bank0
  7222     1181  1303               	bcf	3,6	;RP1=0, select bank0
  7223     1182  0851               	movf	___fladd@aexp,w
  7224     1183  0252               	subwf	___fladd@bexp,w
  7225     1184  1C03               	skipc
  7226     1185  2987               	goto	u1961
  7227     1186  2988               	goto	u1960
  7228     1187                     u1961:
  7229     1187  2961               	goto	l415
  7230     1188                     u1960:
  7231     1188                     l413:
  7232     1188  1B50               	btfsc	___fladd@signs,6
  7233     1189  298B               	goto	u1971
  7234     118A  298C               	goto	u1970
  7235     118B                     u1971:
  7236     118B  29D5               	goto	l1647
  7237     118C                     u1970:
  7238     118C                     l1623:
  7239     118C  0852               	movf	___fladd@bexp,w
  7240     118D  1D03               	btfss	3,2
  7241     118E  2990               	goto	u1981
  7242     118F  2991               	goto	u1980
  7243     1190                     u1981:
  7244     1190  299A               	goto	l1629
  7245     1191                     u1980:
  7246     1191                     l1625:
  7247     1191  3000               	movlw	0
  7248     1192  00C3               	movwf	?___fladd+3
  7249     1193  3000               	movlw	0
  7250     1194  00C2               	movwf	?___fladd+2
  7251     1195  3000               	movlw	0
  7252     1196  00C1               	movwf	?___fladd+1
  7253     1197  3000               	movlw	0
  7254     1198  00C0               	movwf	?___fladd
  7255     1199  2B01               	goto	l422
  7256     119A                     l1629:
  7257     119A  0844               	movf	___fladd@a,w
  7258     119B  07C0               	addwf	___fladd@b,f
  7259     119C  0845               	movf	___fladd@a+1,w
  7260     119D  1103               	clrz
  7261     119E  1803               	skipnc
  7262     119F  3E01               	addlw	1
  7263     11A0  1903               	skipnz
  7264     11A1  29A3               	goto	u1991
  7265     11A2  07C1               	addwf	___fladd@b+1,f
  7266     11A3                     u1991:
  7267     11A3  0846               	movf	___fladd@a+2,w
  7268     11A4  1103               	clrz
  7269     11A5  1803               	skipnc
  7270     11A6  3E01               	addlw	1
  7271     11A7  1903               	skipnz
  7272     11A8  29AA               	goto	u1992
  7273     11A9  07C2               	addwf	___fladd@b+2,f
  7274     11AA                     u1992:
  7275     11AA  0847               	movf	___fladd@a+3,w
  7276     11AB  1103               	clrz
  7277     11AC  1803               	skipnc
  7278     11AD  3E01               	addlw	1
  7279     11AE  1903               	skipnz
  7280     11AF  29B1               	goto	u1993
  7281     11B0  07C3               	addwf	___fladd@b+3,f
  7282     11B1                     u1993:
  7283     11B1                     l1631:
  7284     11B1  1C43               	btfss	___fladd@b+3,0
  7285     11B2  29B4               	goto	u2001
  7286     11B3  29B5               	goto	u2000
  7287     11B4                     u2001:
  7288     11B4  2A89               	goto	l1683
  7289     11B5                     u2000:
  7290     11B5                     l1633:
  7291     11B5  1C53               	btfss	___fladd@grs,0
  7292     11B6  29B8               	goto	u2011
  7293     11B7  29B9               	goto	u2010
  7294     11B8                     u2011:
  7295     11B8  29C0               	goto	l1637
  7296     11B9                     u2010:
  7297     11B9                     l1635:
  7298     11B9  0853               	movf	___fladd@grs,w
  7299     11BA  00C8               	movwf	??___fladd
  7300     11BB  1003               	clrc
  7301     11BC  0C48               	rrf	??___fladd,w
  7302     11BD  3801               	iorlw	1
  7303     11BE  00D3               	movwf	___fladd@grs
  7304     11BF  29C2               	goto	l1639
  7305     11C0                     l1637:
  7306     11C0  1003               	clrc
  7307     11C1  0CD3               	rrf	___fladd@grs,f
  7308     11C2                     l1639:
  7309     11C2  1C40               	btfss	___fladd@b,0
  7310     11C3  29C5               	goto	u2021
  7311     11C4  29C6               	goto	u2020
  7312     11C5                     u2021:
  7313     11C5  29C7               	goto	l1643
  7314     11C6                     u2020:
  7315     11C6                     l1641:
  7316     11C6  17D3               	bsf	___fladd@grs,7
  7317     11C7                     l1643:
  7318     11C7  3001               	movlw	1
  7319     11C8  00C8               	movwf	??___fladd
  7320     11C9                     u2035:
  7321     11C9  0D43               	rlf	___fladd@b+3,w
  7322     11CA  0CC3               	rrf	___fladd@b+3,f
  7323     11CB  0CC2               	rrf	___fladd@b+2,f
  7324     11CC  0CC1               	rrf	___fladd@b+1,f
  7325     11CD  0CC0               	rrf	___fladd@b,f
  7326     11CE  0BC8               	decfsz	??___fladd& (0+127),f
  7327     11CF  29C9               	goto	u2035
  7328     11D0                     l1645:
  7329     11D0  3001               	movlw	1
  7330     11D1  00FF               	movwf	btemp+1
  7331     11D2  087F               	movf	btemp+1,w
  7332     11D3  07D2               	addwf	___fladd@bexp,f
  7333     11D4  2A89               	goto	l1683
  7334     11D5                     l1647:
  7335     11D5  0843               	movf	___fladd@b+3,w
  7336     11D6  3A80               	xorlw	128
  7337     11D7  00FF               	movwf	btemp+1
  7338     11D8  0847               	movf	___fladd@a+3,w
  7339     11D9  3A80               	xorlw	128
  7340     11DA  027F               	subwf	btemp+1,w
  7341     11DB  1D03               	skipz
  7342     11DC  29E7               	goto	u2043
  7343     11DD  0846               	movf	___fladd@a+2,w
  7344     11DE  0242               	subwf	___fladd@b+2,w
  7345     11DF  1D03               	skipz
  7346     11E0  29E7               	goto	u2043
  7347     11E1  0845               	movf	___fladd@a+1,w
  7348     11E2  0241               	subwf	___fladd@b+1,w
  7349     11E3  1D03               	skipz
  7350     11E4  29E7               	goto	u2043
  7351     11E5  0844               	movf	___fladd@a,w
  7352     11E6  0240               	subwf	___fladd@b,w
  7353     11E7                     u2043:
  7354     11E7  1803               	skipnc
  7355     11E8  29EA               	goto	u2041
  7356     11E9  29EB               	goto	u2040
  7357     11EA                     u2041:
  7358     11EA  2A43               	goto	l1659
  7359     11EB                     u2040:
  7360     11EB                     l1649:
  7361     11EB  30FF               	movlw	255
  7362     11EC  00C8               	movwf	??___fladd
  7363     11ED  30FF               	movlw	255
  7364     11EE  00C9               	movwf	??___fladd+1
  7365     11EF  30FF               	movlw	255
  7366     11F0  00CA               	movwf	??___fladd+2
  7367     11F1  30FF               	movlw	255
  7368     11F2  00CB               	movwf	??___fladd+3
  7369     11F3  0844               	movf	___fladd@a,w
  7370     11F4  00CC               	movwf	??___fladd+4
  7371     11F5  0845               	movf	___fladd@a+1,w
  7372     11F6  00CD               	movwf	??___fladd+5
  7373     11F7  0846               	movf	___fladd@a+2,w
  7374     11F8  00CE               	movwf	??___fladd+6
  7375     11F9  0847               	movf	___fladd@a+3,w
  7376     11FA  00CF               	movwf	??___fladd+7
  7377     11FB  0840               	movf	___fladd@b,w
  7378     11FC  02CC               	subwf	??___fladd+4,f
  7379     11FD  0841               	movf	___fladd@b+1,w
  7380     11FE  1C03               	skipc
  7381     11FF  0F41               	incfsz	___fladd@b+1,w
  7382     1200  2A02               	goto	u2051
  7383     1201  2A03               	goto	u2052
  7384     1202                     u2051:
  7385     1202  02CD               	subwf	??___fladd+5,f
  7386     1203                     u2052:
  7387     1203  0842               	movf	___fladd@b+2,w
  7388     1204  1C03               	skipc
  7389     1205  0F42               	incfsz	___fladd@b+2,w
  7390     1206  2A08               	goto	u2053
  7391     1207  2A09               	goto	u2054
  7392     1208                     u2053:
  7393     1208  02CE               	subwf	??___fladd+6,f
  7394     1209                     u2054:
  7395     1209  0843               	movf	___fladd@b+3,w
  7396     120A  1C03               	skipc
  7397     120B  0F43               	incfsz	___fladd@b+3,w
  7398     120C  2A0E               	goto	u2055
  7399     120D  2A0F               	goto	u2056
  7400     120E                     u2055:
  7401     120E  02CF               	subwf	??___fladd+7,f
  7402     120F                     u2056:
  7403     120F  084C               	movf	??___fladd+4,w
  7404     1210  07C8               	addwf	??___fladd,f
  7405     1211  084D               	movf	??___fladd+5,w
  7406     1212  1803               	skipnc
  7407     1213  0F4D               	incfsz	??___fladd+5,w
  7408     1214  2A16               	goto	u2060
  7409     1215  2A17               	goto	u2061
  7410     1216                     u2060:
  7411     1216  07C9               	addwf	??___fladd+1,f
  7412     1217                     u2061:
  7413     1217  084E               	movf	??___fladd+6,w
  7414     1218  1803               	skipnc
  7415     1219  0F4E               	incfsz	??___fladd+6,w
  7416     121A  2A1C               	goto	u2062
  7417     121B  2A1D               	goto	u2063
  7418     121C                     u2062:
  7419     121C  07CA               	addwf	??___fladd+2,f
  7420     121D                     u2063:
  7421     121D  084F               	movf	??___fladd+7,w
  7422     121E  1803               	skipnc
  7423     121F  0A4F               	incf	??___fladd+7,w
  7424     1220  07CB               	addwf	??___fladd+3,f
  7425     1221  084B               	movf	??___fladd+3,w
  7426     1222  00C3               	movwf	___fladd@b+3
  7427     1223  084A               	movf	??___fladd+2,w
  7428     1224  00C2               	movwf	___fladd@b+2
  7429     1225  0849               	movf	??___fladd+1,w
  7430     1226  00C1               	movwf	___fladd@b+1
  7431     1227  0848               	movf	??___fladd,w
  7432     1228  00C0               	movwf	___fladd@b
  7433     1229                     l1651:
  7434     1229  3080               	movlw	128
  7435     122A  00FF               	movwf	btemp+1
  7436     122B  087F               	movf	btemp+1,w
  7437     122C  06D0               	xorwf	___fladd@signs,f
  7438     122D                     l1653:
  7439     122D  09D3               	comf	___fladd@grs,f
  7440     122E  0AD3               	incf	___fladd@grs,f
  7441     122F                     l1655:
  7442     122F  0853               	movf	___fladd@grs,w
  7443     1230  1D03               	btfss	3,2
  7444     1231  2A33               	goto	u2071
  7445     1232  2A34               	goto	u2070
  7446     1233                     u2071:
  7447     1233  2A51               	goto	l430
  7448     1234                     u2070:
  7449     1234                     l1657:
  7450     1234  3001               	movlw	1
  7451     1235  07C0               	addwf	___fladd@b,f
  7452     1236  3000               	movlw	0
  7453     1237  1803               	skipnc
  7454     1238  3001               	movlw	1
  7455     1239  07C1               	addwf	___fladd@b+1,f
  7456     123A  3000               	movlw	0
  7457     123B  1803               	skipnc
  7458     123C  3001               	movlw	1
  7459     123D  07C2               	addwf	___fladd@b+2,f
  7460     123E  3000               	movlw	0
  7461     123F  1803               	skipnc
  7462     1240  3001               	movlw	1
  7463     1241  07C3               	addwf	___fladd@b+3,f
  7464     1242  2A51               	goto	l430
  7465     1243                     l1659:
  7466     1243  0844               	movf	___fladd@a,w
  7467     1244  02C0               	subwf	___fladd@b,f
  7468     1245  0845               	movf	___fladd@a+1,w
  7469     1246  1C03               	skipc
  7470     1247  0F45               	incfsz	___fladd@a+1,w
  7471     1248  02C1               	subwf	___fladd@b+1,f
  7472     1249  0846               	movf	___fladd@a+2,w
  7473     124A  1C03               	skipc
  7474     124B  0F46               	incfsz	___fladd@a+2,w
  7475     124C  02C2               	subwf	___fladd@b+2,f
  7476     124D  0847               	movf	___fladd@a+3,w
  7477     124E  1C03               	skipc
  7478     124F  0F47               	incfsz	___fladd@a+3,w
  7479     1250  02C3               	subwf	___fladd@b+3,f
  7480     1251                     l430:
  7481     1251  0843               	movf	___fladd@b+3,w
  7482     1252  0442               	iorwf	___fladd@b+2,w
  7483     1253  0441               	iorwf	___fladd@b+1,w
  7484     1254  0440               	iorwf	___fladd@b,w
  7485     1255  1D03               	skipz
  7486     1256  2A58               	goto	u2081
  7487     1257  2A59               	goto	u2080
  7488     1258                     u2081:
  7489     1258  2A85               	goto	l1681
  7490     1259                     u2080:
  7491     1259                     l1661:
  7492     1259  0853               	movf	___fladd@grs,w
  7493     125A  1D03               	btfss	3,2
  7494     125B  2A5D               	goto	u2091
  7495     125C  2A5E               	goto	u2090
  7496     125D                     u2091:
  7497     125D  2A85               	goto	l1681
  7498     125E                     u2090:
  7499     125E                     l1663:
  7500     125E  3000               	movlw	0
  7501     125F  00C3               	movwf	?___fladd+3
  7502     1260  3000               	movlw	0
  7503     1261  00C2               	movwf	?___fladd+2
  7504     1262  3000               	movlw	0
  7505     1263  00C1               	movwf	?___fladd+1
  7506     1264  3000               	movlw	0
  7507     1265  00C0               	movwf	?___fladd
  7508     1266  2B01               	goto	l422
  7509     1267                     l1667:
  7510     1267  3001               	movlw	1
  7511     1268  00C8               	movwf	??___fladd
  7512     1269                     u2105:
  7513     1269  1003               	clrc
  7514     126A  0DC0               	rlf	___fladd@b,f
  7515     126B  0DC1               	rlf	___fladd@b+1,f
  7516     126C  0DC2               	rlf	___fladd@b+2,f
  7517     126D  0DC3               	rlf	___fladd@b+3,f
  7518     126E  0BC8               	decfsz	??___fladd,f
  7519     126F  2A69               	goto	u2105
  7520     1270                     l1669:
  7521     1270  1FD3               	btfss	___fladd@grs,7
  7522     1271  2A73               	goto	u2111
  7523     1272  2A74               	goto	u2110
  7524     1273                     u2111:
  7525     1273  2A75               	goto	l434
  7526     1274                     u2110:
  7527     1274                     l1671:
  7528     1274  1440               	bsf	___fladd@b,0
  7529     1275                     l434:
  7530     1275  1C53               	btfss	___fladd@grs,0
  7531     1276  2A78               	goto	u2121
  7532     1277  2A79               	goto	u2120
  7533     1278                     u2121:
  7534     1278  2A7C               	goto	l1675
  7535     1279                     u2120:
  7536     1279                     l1673:
  7537     1279  1403               	setc
  7538     127A  0DD3               	rlf	___fladd@grs,f
  7539     127B  2A7E               	goto	l1677
  7540     127C                     l1675:
  7541     127C  1003               	clrc
  7542     127D  0DD3               	rlf	___fladd@grs,f
  7543     127E                     l1677:
  7544     127E  0852               	movf	___fladd@bexp,w
  7545     127F  1903               	btfsc	3,2
  7546     1280  2A82               	goto	u2131
  7547     1281  2A83               	goto	u2130
  7548     1282                     u2131:
  7549     1282  2A85               	goto	l1681
  7550     1283                     u2130:
  7551     1283                     l1679:
  7552     1283  3001               	movlw	1
  7553     1284  02D2               	subwf	___fladd@bexp,f
  7554     1285                     l1681:
  7555     1285  1FC2               	btfss	___fladd@b+2,7
  7556     1286  2A88               	goto	u2141
  7557     1287  2A89               	goto	u2140
  7558     1288                     u2141:
  7559     1288  2A67               	goto	l1667
  7560     1289                     u2140:
  7561     1289                     l1683:
  7562     1289  01D1               	clrf	___fladd@aexp
  7563     128A                     l1685:
  7564     128A  1FD3               	btfss	___fladd@grs,7
  7565     128B  2A8D               	goto	u2151
  7566     128C  2A8E               	goto	u2150
  7567     128D                     u2151:
  7568     128D  2A9C               	goto	l1693
  7569     128E                     u2150:
  7570     128E                     l1687:
  7571     128E  0853               	movf	___fladd@grs,w
  7572     128F  397F               	andlw	127
  7573     1290  1903               	btfsc	3,2
  7574     1291  2A93               	goto	u2161
  7575     1292  2A94               	goto	u2160
  7576     1293                     u2161:
  7577     1293  2A97               	goto	l440
  7578     1294                     u2160:
  7579     1294                     l1689:
  7580     1294  01D1               	clrf	___fladd@aexp
  7581     1295  0AD1               	incf	___fladd@aexp,f
  7582     1296  2A9C               	goto	l1693
  7583     1297                     l440:
  7584     1297  1C40               	btfss	___fladd@b,0
  7585     1298  2A9A               	goto	u2171
  7586     1299  2A9B               	goto	u2170
  7587     129A                     u2171:
  7588     129A  2A9C               	goto	l1693
  7589     129B                     u2170:
  7590     129B  2A94               	goto	l1689
  7591     129C                     l1693:
  7592     129C  0851               	movf	___fladd@aexp,w
  7593     129D  1903               	btfsc	3,2
  7594     129E  2AA0               	goto	u2181
  7595     129F  2AA1               	goto	u2180
  7596     12A0                     u2181:
  7597     12A0  2AD5               	goto	l1703
  7598     12A1                     u2180:
  7599     12A1                     l1695:
  7600     12A1  3001               	movlw	1
  7601     12A2  07C0               	addwf	___fladd@b,f
  7602     12A3  3000               	movlw	0
  7603     12A4  1803               	skipnc
  7604     12A5  3001               	movlw	1
  7605     12A6  07C1               	addwf	___fladd@b+1,f
  7606     12A7  3000               	movlw	0
  7607     12A8  1803               	skipnc
  7608     12A9  3001               	movlw	1
  7609     12AA  07C2               	addwf	___fladd@b+2,f
  7610     12AB  3000               	movlw	0
  7611     12AC  1803               	skipnc
  7612     12AD  3001               	movlw	1
  7613     12AE  07C3               	addwf	___fladd@b+3,f
  7614     12AF                     l1697:
  7615     12AF  1C43               	btfss	___fladd@b+3,0
  7616     12B0  2AB2               	goto	u2191
  7617     12B1  2AB3               	goto	u2190
  7618     12B2                     u2191:
  7619     12B2  2AD5               	goto	l1703
  7620     12B3                     u2190:
  7621     12B3                     l1699:
  7622     12B3  0840               	movf	___fladd@b,w
  7623     12B4  00C8               	movwf	??___fladd
  7624     12B5  0841               	movf	___fladd@b+1,w
  7625     12B6  00C9               	movwf	??___fladd+1
  7626     12B7  0842               	movf	___fladd@b+2,w
  7627     12B8  00CA               	movwf	??___fladd+2
  7628     12B9  0843               	movf	___fladd@b+3,w
  7629     12BA  00CB               	movwf	??___fladd+3
  7630     12BB  3001               	movlw	1
  7631     12BC  00CC               	movwf	??___fladd+4
  7632     12BD                     u2205:
  7633     12BD  0D4B               	rlf	??___fladd+3,w
  7634     12BE  0CCB               	rrf	??___fladd+3,f
  7635     12BF  0CCA               	rrf	??___fladd+2,f
  7636     12C0  0CC9               	rrf	??___fladd+1,f
  7637     12C1  0CC8               	rrf	??___fladd,f
  7638     12C2                     u2200:
  7639     12C2  0BCC               	decfsz	??___fladd+4,f
  7640     12C3  2ABD               	goto	u2205
  7641     12C4  084B               	movf	??___fladd+3,w
  7642     12C5  00C3               	movwf	___fladd@b+3
  7643     12C6  084A               	movf	??___fladd+2,w
  7644     12C7  00C2               	movwf	___fladd@b+2
  7645     12C8  0849               	movf	??___fladd+1,w
  7646     12C9  00C1               	movwf	___fladd@b+1
  7647     12CA  0848               	movf	??___fladd,w
  7648     12CB  00C0               	movwf	___fladd@b
  7649     12CC  0A52               	incf	___fladd@bexp,w
  7650     12CD  1903               	btfsc	3,2
  7651     12CE  2AD0               	goto	u2211
  7652     12CF  2AD1               	goto	u2210
  7653     12D0                     u2211:
  7654     12D0  2AD5               	goto	l1703
  7655     12D1                     u2210:
  7656     12D1                     l1701:
  7657     12D1  3001               	movlw	1
  7658     12D2  00FF               	movwf	btemp+1
  7659     12D3  087F               	movf	btemp+1,w
  7660     12D4  07D2               	addwf	___fladd@bexp,f
  7661     12D5                     l1703:
  7662     12D5  0A52               	incf	___fladd@bexp,w
  7663     12D6  1903               	btfsc	3,2
  7664     12D7  2AD9               	goto	u2221
  7665     12D8  2ADA               	goto	u2220
  7666     12D9                     u2221:
  7667     12D9  2ADF               	goto	l1707
  7668     12DA                     u2220:
  7669     12DA                     l1705:
  7670     12DA  0852               	movf	___fladd@bexp,w
  7671     12DB  1D03               	btfss	3,2
  7672     12DC  2ADE               	goto	u2231
  7673     12DD  2ADF               	goto	u2230
  7674     12DE                     u2231:
  7675     12DE  2AED               	goto	l1713
  7676     12DF                     u2230:
  7677     12DF                     l1707:
  7678     12DF  3000               	movlw	0
  7679     12E0  00C3               	movwf	___fladd@b+3
  7680     12E1  3000               	movlw	0
  7681     12E2  00C2               	movwf	___fladd@b+2
  7682     12E3  3000               	movlw	0
  7683     12E4  00C1               	movwf	___fladd@b+1
  7684     12E5  3000               	movlw	0
  7685     12E6  00C0               	movwf	___fladd@b
  7686     12E7                     l1709:
  7687     12E7  0852               	movf	___fladd@bexp,w
  7688     12E8  1D03               	btfss	3,2
  7689     12E9  2AEB               	goto	u2241
  7690     12EA  2AEC               	goto	u2240
  7691     12EB                     u2241:
  7692     12EB  2AED               	goto	l1713
  7693     12EC                     u2240:
  7694     12EC                     l1711:
  7695     12EC  01D0               	clrf	___fladd@signs
  7696     12ED                     l1713:
  7697     12ED  1C52               	btfss	___fladd@bexp,0
  7698     12EE  2AF0               	goto	u2251
  7699     12EF  2AF1               	goto	u2250
  7700     12F0                     u2251:
  7701     12F0  2AF3               	goto	l1717
  7702     12F1                     u2250:
  7703     12F1                     l1715:
  7704     12F1  17C2               	bsf	___fladd@b+2,7
  7705     12F2  2AF7               	goto	l1719
  7706     12F3                     l1717:
  7707     12F3  307F               	movlw	127
  7708     12F4  00FF               	movwf	btemp+1
  7709     12F5  087F               	movf	btemp+1,w
  7710     12F6  05C2               	andwf	___fladd@b+2,f
  7711     12F7                     l1719:
  7712     12F7  0852               	movf	___fladd@bexp,w
  7713     12F8  00C8               	movwf	??___fladd
  7714     12F9  1003               	clrc
  7715     12FA  0C48               	rrf	??___fladd,w
  7716     12FB  00C3               	movwf	___fladd@b+3
  7717     12FC                     l1721:
  7718     12FC  1FD0               	btfss	___fladd@signs,7
  7719     12FD  2AFF               	goto	u2261
  7720     12FE  2B00               	goto	u2260
  7721     12FF                     u2261:
  7722     12FF  2B01               	goto	l452
  7723     1300                     u2260:
  7724     1300                     l1723:
  7725     1300  17C3               	bsf	___fladd@b+3,7
  7726     1301                     l452:
  7727     1301                     l422:
  7728     1301  0008               	return
  7729     1302                     __end_of___fladd:
  7730                           
  7731                           	psect	text13
  7732     0004                     __ptext13:	
  7733 ;; *************** function ___flneg *****************
  7734 ;; Defined at:
  7735 ;;		line 15 in file "C:\Program Files\Microchip\xc8\v2.46\pic\sources\c99\common\flneg.c"
  7736 ;; Parameters:    Size  Location     Type
  7737 ;;  f1              4    0[BANK1 ] unsigned char 
  7738 ;; Auto vars:     Size  Location     Type
  7739 ;;		None
  7740 ;; Return value:  Size  Location     Type
  7741 ;;                  4    0[BANK1 ] unsigned char 
  7742 ;; Registers used:
  7743 ;;		wreg
  7744 ;; Tracked objects:
  7745 ;;		On entry : 0/0
  7746 ;;		On exit  : 0/0
  7747 ;;		Unchanged: 0/0
  7748 ;; Data sizes:     COMMON   BANK0   BANK1   BANK3   BANK2
  7749 ;;      Params:         0       0       4       0       0
  7750 ;;      Locals:         0       0       0       0       0
  7751 ;;      Temps:          0       0       0       0       0
  7752 ;;      Totals:         0       0       4       0       0
  7753 ;;Total ram usage:        4 bytes
  7754 ;; Hardware stack levels used: 1
  7755 ;; This function calls:
  7756 ;;		Nothing
  7757 ;; This function is called by:
  7758 ;;		_roundf
  7759 ;;		_sinf
  7760 ;;		___rem_pio2f
  7761 ;; This function uses a non-reentrant model
  7762 ;;
  7763                           
  7764     0004                     ___flneg:	
  7765                           ;psect for function ___flneg
  7766                           
  7767     0004                     l1739:	
  7768                           ;incstack = 0
  7769                           ; Regs used in ___flneg: [wreg]
  7770                           
  7771     0004  1683               	bsf	3,5	;RP0=1, select bank1
  7772     0005  1303               	bcf	3,6	;RP1=0, select bank1
  7773     0006  0823               	movf	(___flneg@f1+3)^(0+128),w
  7774     0007  0422               	iorwf	(___flneg@f1+2)^(0+128),w
  7775     0008  0421               	iorwf	(___flneg@f1+1)^(0+128),w
  7776     0009  0420               	iorwf	___flneg@f1^(0+128),w
  7777     000A  1903               	skipnz
  7778     000B  280D               	goto	u2301
  7779     000C  280E               	goto	u2300
  7780     000D                     u2301:
  7781     000D  2810               	goto	l1743
  7782     000E                     u2300:
  7783     000E                     l1741:
  7784     000E  3080               	movlw	128
  7785     000F  06A3               	xorwf	(___flneg@f1+3)^(0+128),f
  7786     0010                     l1743:
  7787     0010                     l298:
  7788     0010  0008               	return
  7789     0011                     __end_of___flneg:
  7790                           
  7791                           	psect	text14
  7792     1008                     __ptext14:	
  7793 ;; *************** function ___flge *****************
  7794 ;; Defined at:
  7795 ;;		line 4 in file "C:\Program Files\Microchip\xc8\v2.46\pic\sources\c99\common\flge.c"
  7796 ;; Parameters:    Size  Location     Type
  7797 ;;  ff1             4    0[COMMON] unsigned char 
  7798 ;;  ff2             4    4[COMMON] unsigned char 
  7799 ;; Auto vars:     Size  Location     Type
  7800 ;;		None
  7801 ;; Return value:  Size  Location     Type
  7802 ;;		None               void
  7803 ;; Registers used:
  7804 ;;		wreg, status,2, status,0
  7805 ;; Tracked objects:
  7806 ;;		On entry : 0/0
  7807 ;;		On exit  : 0/0
  7808 ;;		Unchanged: 0/0
  7809 ;; Data sizes:     COMMON   BANK0   BANK1   BANK3   BANK2
  7810 ;;      Params:         8       0       0       0       0
  7811 ;;      Locals:         0       0       0       0       0
  7812 ;;      Temps:          4       0       0       0       0
  7813 ;;      Totals:        12       0       0       0       0
  7814 ;;Total ram usage:       12 bytes
  7815 ;; Hardware stack levels used: 1
  7816 ;; This function calls:
  7817 ;;		Nothing
  7818 ;; This function is called by:
  7819 ;;		_roundf
  7820 ;; This function uses a non-reentrant model
  7821 ;;
  7822                           
  7823     1008                     ___flge:	
  7824                           ;psect for function ___flge
  7825                           
  7826     1008                     l1985:	
  7827                           ;incstack = 0
  7828                           ; Regs used in ___flge: [wreg+status,2+status,0]
  7829                           
  7830     1008  3000               	movlw	0
  7831     1009  0570               	andwf	___flge@ff1,w
  7832     100A  00F8               	movwf	??___flge
  7833     100B  3000               	movlw	0
  7834     100C  0571               	andwf	___flge@ff1+1,w
  7835     100D  00F9               	movwf	??___flge+1
  7836     100E  3080               	movlw	128
  7837     100F  0572               	andwf	___flge@ff1+2,w
  7838     1010  00FA               	movwf	??___flge+2
  7839     1011  307F               	movlw	127
  7840     1012  0573               	andwf	___flge@ff1+3,w
  7841     1013  00FB               	movwf	??___flge+3
  7842     1014  087B               	movf	??___flge+3,w
  7843     1015  047A               	iorwf	??___flge+2,w
  7844     1016  0479               	iorwf	??___flge+1,w
  7845     1017  0478               	iorwf	??___flge,w
  7846     1018  1D03               	skipz
  7847     1019  281B               	goto	u2921
  7848     101A  281C               	goto	u2920
  7849     101B                     u2921:
  7850     101B  2824               	goto	l286
  7851     101C                     u2920:
  7852     101C                     l1987:
  7853     101C  3000               	movlw	0
  7854     101D  00F3               	movwf	___flge@ff1+3
  7855     101E  3000               	movlw	0
  7856     101F  00F2               	movwf	___flge@ff1+2
  7857     1020  3000               	movlw	0
  7858     1021  00F1               	movwf	___flge@ff1+1
  7859     1022  3000               	movlw	0
  7860     1023  00F0               	movwf	___flge@ff1
  7861     1024                     l286:
  7862     1024  3000               	movlw	0
  7863     1025  0574               	andwf	___flge@ff2,w
  7864     1026  00F8               	movwf	??___flge
  7865     1027  3000               	movlw	0
  7866     1028  0575               	andwf	___flge@ff2+1,w
  7867     1029  00F9               	movwf	??___flge+1
  7868     102A  3080               	movlw	128
  7869     102B  0576               	andwf	___flge@ff2+2,w
  7870     102C  00FA               	movwf	??___flge+2
  7871     102D  307F               	movlw	127
  7872     102E  0577               	andwf	___flge@ff2+3,w
  7873     102F  00FB               	movwf	??___flge+3
  7874     1030  087B               	movf	??___flge+3,w
  7875     1031  047A               	iorwf	??___flge+2,w
  7876     1032  0479               	iorwf	??___flge+1,w
  7877     1033  0478               	iorwf	??___flge,w
  7878     1034  1D03               	skipz
  7879     1035  2837               	goto	u2931
  7880     1036  2838               	goto	u2930
  7881     1037                     u2931:
  7882     1037  2840               	goto	l1991
  7883     1038                     u2930:
  7884     1038                     l1989:
  7885     1038  3000               	movlw	0
  7886     1039  00F7               	movwf	___flge@ff2+3
  7887     103A  3000               	movlw	0
  7888     103B  00F6               	movwf	___flge@ff2+2
  7889     103C  3000               	movlw	0
  7890     103D  00F5               	movwf	___flge@ff2+1
  7891     103E  3000               	movlw	0
  7892     103F  00F4               	movwf	___flge@ff2
  7893     1040                     l1991:
  7894     1040  1FF3               	btfss	___flge@ff1+3,7
  7895     1041  2843               	goto	u2941
  7896     1042  2844               	goto	u2940
  7897     1043                     u2941:
  7898     1043  2868               	goto	l1995
  7899     1044                     u2940:
  7900     1044                     l1993:
  7901     1044  3000               	movlw	0
  7902     1045  00F8               	movwf	??___flge
  7903     1046  3000               	movlw	0
  7904     1047  00F9               	movwf	??___flge+1
  7905     1048  3000               	movlw	0
  7906     1049  00FA               	movwf	??___flge+2
  7907     104A  3080               	movlw	128
  7908     104B  00FB               	movwf	??___flge+3
  7909     104C  0870               	movf	___flge@ff1,w
  7910     104D  02F8               	subwf	??___flge,f
  7911     104E  0871               	movf	___flge@ff1+1,w
  7912     104F  1C03               	skipc
  7913     1050  0F71               	incfsz	___flge@ff1+1,w
  7914     1051  2853               	goto	u2951
  7915     1052  2854               	goto	u2952
  7916     1053                     u2951:
  7917     1053  02F9               	subwf	??___flge+1,f
  7918     1054                     u2952:
  7919     1054  0872               	movf	___flge@ff1+2,w
  7920     1055  1C03               	skipc
  7921     1056  0F72               	incfsz	___flge@ff1+2,w
  7922     1057  2859               	goto	u2953
  7923     1058  285A               	goto	u2954
  7924     1059                     u2953:
  7925     1059  02FA               	subwf	??___flge+2,f
  7926     105A                     u2954:
  7927     105A  0873               	movf	___flge@ff1+3,w
  7928     105B  1C03               	skipc
  7929     105C  0F73               	incfsz	___flge@ff1+3,w
  7930     105D  285F               	goto	u2955
  7931     105E  2860               	goto	u2956
  7932     105F                     u2955:
  7933     105F  02FB               	subwf	??___flge+3,f
  7934     1060                     u2956:
  7935     1060  087B               	movf	??___flge+3,w
  7936     1061  00F3               	movwf	___flge@ff1+3
  7937     1062  087A               	movf	??___flge+2,w
  7938     1063  00F2               	movwf	___flge@ff1+2
  7939     1064  0879               	movf	??___flge+1,w
  7940     1065  00F1               	movwf	___flge@ff1+1
  7941     1066  0878               	movf	??___flge,w
  7942     1067  00F0               	movwf	___flge@ff1
  7943     1068                     l1995:
  7944     1068  1FF7               	btfss	___flge@ff2+3,7
  7945     1069  286B               	goto	u2961
  7946     106A  286C               	goto	u2960
  7947     106B                     u2961:
  7948     106B  2890               	goto	l289
  7949     106C                     u2960:
  7950     106C                     l1997:
  7951     106C  3000               	movlw	0
  7952     106D  00F8               	movwf	??___flge
  7953     106E  3000               	movlw	0
  7954     106F  00F9               	movwf	??___flge+1
  7955     1070  3000               	movlw	0
  7956     1071  00FA               	movwf	??___flge+2
  7957     1072  3080               	movlw	128
  7958     1073  00FB               	movwf	??___flge+3
  7959     1074  0874               	movf	___flge@ff2,w
  7960     1075  02F8               	subwf	??___flge,f
  7961     1076  0875               	movf	___flge@ff2+1,w
  7962     1077  1C03               	skipc
  7963     1078  0F75               	incfsz	___flge@ff2+1,w
  7964     1079  287B               	goto	u2971
  7965     107A  287C               	goto	u2972
  7966     107B                     u2971:
  7967     107B  02F9               	subwf	??___flge+1,f
  7968     107C                     u2972:
  7969     107C  0876               	movf	___flge@ff2+2,w
  7970     107D  1C03               	skipc
  7971     107E  0F76               	incfsz	___flge@ff2+2,w
  7972     107F  2881               	goto	u2973
  7973     1080  2882               	goto	u2974
  7974     1081                     u2973:
  7975     1081  02FA               	subwf	??___flge+2,f
  7976     1082                     u2974:
  7977     1082  0877               	movf	___flge@ff2+3,w
  7978     1083  1C03               	skipc
  7979     1084  0F77               	incfsz	___flge@ff2+3,w
  7980     1085  2887               	goto	u2975
  7981     1086  2888               	goto	u2976
  7982     1087                     u2975:
  7983     1087  02FB               	subwf	??___flge+3,f
  7984     1088                     u2976:
  7985     1088  087B               	movf	??___flge+3,w
  7986     1089  00F7               	movwf	___flge@ff2+3
  7987     108A  087A               	movf	??___flge+2,w
  7988     108B  00F6               	movwf	___flge@ff2+2
  7989     108C  0879               	movf	??___flge+1,w
  7990     108D  00F5               	movwf	___flge@ff2+1
  7991     108E  0878               	movf	??___flge,w
  7992     108F  00F4               	movwf	___flge@ff2
  7993     1090                     l289:
  7994     1090  3080               	movlw	128
  7995     1091  06F3               	xorwf	___flge@ff1+3,f
  7996     1092  3080               	movlw	128
  7997     1093  06F7               	xorwf	___flge@ff2+3,f
  7998     1094  0877               	movf	___flge@ff2+3,w
  7999     1095  0273               	subwf	___flge@ff1+3,w
  8000     1096  1D03               	skipz
  8001     1097  28A2               	goto	u2985
  8002     1098  0876               	movf	___flge@ff2+2,w
  8003     1099  0272               	subwf	___flge@ff1+2,w
  8004     109A  1D03               	skipz
  8005     109B  28A2               	goto	u2985
  8006     109C  0875               	movf	___flge@ff2+1,w
  8007     109D  0271               	subwf	___flge@ff1+1,w
  8008     109E  1D03               	skipz
  8009     109F  28A2               	goto	u2985
  8010     10A0  0874               	movf	___flge@ff2,w
  8011     10A1  0270               	subwf	___flge@ff1,w
  8012     10A2                     u2985:
  8013     10A2  1803               	skipnc
  8014     10A3  28A5               	goto	u2981
  8015     10A4  28A6               	goto	u2980
  8016     10A5                     u2981:
  8017     10A5  28A8               	goto	l2001
  8018     10A6                     u2980:
  8019     10A6                     l1999:
  8020     10A6  1003               	clrc
  8021     10A7  28A9               	goto	l294
  8022     10A8                     l2001:
  8023     10A8  1403               	setc
  8024     10A9                     l294:
  8025     10A9  0008               	return
  8026     10AA                     __end_of___flge:
  8027                           
  8028                           	psect	text15
  8029     1D0F                     __ptext15:	
  8030 ;; *************** function ___wmul *****************
  8031 ;; Defined at:
  8032 ;;		line 15 in file "C:\Program Files\Microchip\xc8\v2.46\pic\sources\c99\common\Umul16.c"
  8033 ;; Parameters:    Size  Location     Type
  8034 ;;  multiplier      2    0[COMMON] unsigned int 
  8035 ;;  multiplicand    2    2[COMMON] unsigned int 
  8036 ;; Auto vars:     Size  Location     Type
  8037 ;;  product         2    4[COMMON] unsigned int 
  8038 ;; Return value:  Size  Location     Type
  8039 ;;                  2    0[COMMON] unsigned int 
  8040 ;; Registers used:
  8041 ;;		wreg, status,2, status,0
  8042 ;; Tracked objects:
  8043 ;;		On entry : 0/0
  8044 ;;		On exit  : 0/0
  8045 ;;		Unchanged: 0/0
  8046 ;; Data sizes:     COMMON   BANK0   BANK1   BANK3   BANK2
  8047 ;;      Params:         4       0       0       0       0
  8048 ;;      Locals:         2       0       0       0       0
  8049 ;;      Temps:          0       0       0       0       0
  8050 ;;      Totals:         6       0       0       0       0
  8051 ;;Total ram usage:        6 bytes
  8052 ;; Hardware stack levels used: 1
  8053 ;; This function calls:
  8054 ;;		Nothing
  8055 ;; This function is called by:
  8056 ;;		_main
  8057 ;; This function uses a non-reentrant model
  8058 ;;
  8059                           
  8060     1D0F                     ___wmul:	
  8061                           ;psect for function ___wmul
  8062                           
  8063     1D0F                     l2193:	
  8064                           ;incstack = 0
  8065                           ; Regs used in ___wmul: [wreg+status,2+status,0]
  8066                           
  8067     1D0F  01F4               	clrf	___wmul@product
  8068     1D10  01F5               	clrf	___wmul@product+1
  8069     1D11                     l2195:
  8070     1D11  1C70               	btfss	___wmul@multiplier,0
  8071     1D12  2D14               	goto	u3261
  8072     1D13  2D15               	goto	u3260
  8073     1D14                     u3261:
  8074     1D14  2D1B               	goto	l108
  8075     1D15                     u3260:
  8076     1D15                     l2197:
  8077     1D15  0872               	movf	___wmul@multiplicand,w
  8078     1D16  07F4               	addwf	___wmul@product,f
  8079     1D17  1803               	skipnc
  8080     1D18  0AF5               	incf	___wmul@product+1,f
  8081     1D19  0873               	movf	___wmul@multiplicand+1,w
  8082     1D1A  07F5               	addwf	___wmul@product+1,f
  8083     1D1B                     l108:
  8084     1D1B  3001               	movlw	1
  8085     1D1C                     u3275:
  8086     1D1C  1003               	clrc
  8087     1D1D  0DF2               	rlf	___wmul@multiplicand,f
  8088     1D1E  0DF3               	rlf	___wmul@multiplicand+1,f
  8089     1D1F  3EFF               	addlw	-1
  8090     1D20  1D03               	skipz
  8091     1D21  2D1C               	goto	u3275
  8092     1D22                     l2199:
  8093     1D22  3001               	movlw	1
  8094     1D23                     u3285:
  8095     1D23  1003               	clrc
  8096     1D24  0CF1               	rrf	___wmul@multiplier+1,f
  8097     1D25  0CF0               	rrf	___wmul@multiplier,f
  8098     1D26  3EFF               	addlw	-1
  8099     1D27  1D03               	skipz
  8100     1D28  2D23               	goto	u3285
  8101     1D29                     l2201:
  8102     1D29  0870               	movf	___wmul@multiplier,w
  8103     1D2A  0471               	iorwf	___wmul@multiplier+1,w
  8104     1D2B  1D03               	btfss	3,2
  8105     1D2C  2D2E               	goto	u3291
  8106     1D2D  2D2F               	goto	u3290
  8107     1D2E                     u3291:
  8108     1D2E  2D11               	goto	l2195
  8109     1D2F                     u3290:
  8110     1D2F                     l2203:
  8111     1D2F  0875               	movf	___wmul@product+1,w
  8112     1D30  00F1               	movwf	?___wmul+1
  8113     1D31  0874               	movf	___wmul@product,w
  8114     1D32  00F0               	movwf	?___wmul
  8115     1D33                     l110:
  8116     1D33  0008               	return
  8117     1D34                     __end_of___wmul:
  8118                           
  8119                           	psect	text16
  8120     157D                     __ptext16:	
  8121 ;; *************** function ___fldiv *****************
  8122 ;; Defined at:
  8123 ;;		line 8 in file "C:\Program Files\Microchip\xc8\v2.46\pic\sources\c99\common\sprcdiv.c"
  8124 ;; Parameters:    Size  Location     Type
  8125 ;;  a               4   72[BANK1 ] unsigned int 
  8126 ;;  b               4   76[BANK1 ] unsigned int 
  8127 ;; Auto vars:     Size  Location     Type
  8128 ;;  grs             4   12[BANK3 ] unsigned long 
  8129 ;;  rem             4    5[BANK3 ] unsigned long 
  8130 ;;  new_exp         2   10[BANK3 ] short 
  8131 ;;  aexp            1   17[BANK3 ] unsigned char 
  8132 ;;  bexp            1   16[BANK3 ] unsigned char 
  8133 ;;  sign            1    9[BANK3 ] unsigned char 
  8134 ;; Return value:  Size  Location     Type
  8135 ;;                  4   72[BANK1 ] unsigned char 
  8136 ;; Registers used:
  8137 ;;		wreg, status,2, status,0, btemp+1
  8138 ;; Tracked objects:
  8139 ;;		On entry : 0/0
  8140 ;;		On exit  : 0/0
  8141 ;;		Unchanged: 0/0
  8142 ;; Data sizes:     COMMON   BANK0   BANK1   BANK3   BANK2
  8143 ;;      Params:         0       0       8       0       0
  8144 ;;      Locals:         0       0       0      13       0
  8145 ;;      Temps:          0       0       0       5       0
  8146 ;;      Totals:         0       0       8      18       0
  8147 ;;Total ram usage:       26 bytes
  8148 ;; Hardware stack levels used: 1
  8149 ;; This function calls:
  8150 ;;		Nothing
  8151 ;; This function is called by:
  8152 ;;		_main
  8153 ;; This function uses a non-reentrant model
  8154 ;;
  8155                           
  8156     157D                     ___fldiv:	
  8157                           ;psect for function ___fldiv
  8158                           
  8159     157D                     l2207:	
  8160                           ;incstack = 0
  8161                           ; Regs used in ___fldiv: [wreg+status,2+status,0+btemp+1]
  8162                           
  8163     157D  1683               	bsf	3,5	;RP0=1, select bank1
  8164     157E  1303               	bcf	3,6	;RP1=0, select bank1
  8165     157F  086F               	movf	(___fldiv@b^(0+128)+3),w
  8166     1580  3980               	andlw	128
  8167     1581  1683               	bsf	3,5	;RP0=1, select bank3
  8168     1582  1703               	bsf	3,6	;RP1=1, select bank3
  8169     1583  0099               	movwf	___fldiv@sign^(0+384)
  8170     1584                     l2209:
  8171     1584  1683               	bsf	3,5	;RP0=1, select bank1
  8172     1585  1303               	bcf	3,6	;RP1=0, select bank1
  8173     1586  086F               	movf	(___fldiv@b^(0+128)+3),w
  8174     1587  1683               	bsf	3,5	;RP0=1, select bank3
  8175     1588  1703               	bsf	3,6	;RP1=1, select bank3
  8176     1589  0090               	movwf	??___fldiv^(0+384)
  8177     158A  0710               	addwf	??___fldiv^(0+384),w
  8178     158B  00A0               	movwf	___fldiv@bexp^(0+384)
  8179     158C                     l2211:
  8180     158C  1683               	bsf	3,5	;RP0=1, select bank1
  8181     158D  1303               	bcf	3,6	;RP1=0, select bank1
  8182     158E  1FEE               	btfss	(___fldiv@b^(0+128)+2),7
  8183     158F  2D91               	goto	u3301
  8184     1590  2D92               	goto	u3300
  8185     1591                     u3301:
  8186     1591  2D95               	goto	l2215
  8187     1592                     u3300:
  8188     1592                     l2213:
  8189     1592  1683               	bsf	3,5	;RP0=1, select bank3
  8190     1593  1703               	bsf	3,6	;RP1=1, select bank3
  8191     1594  1420               	bsf	___fldiv@bexp^(0+384),0
  8192     1595                     l2215:
  8193     1595  1683               	bsf	3,5	;RP0=1, select bank3
  8194     1596  1703               	bsf	3,6	;RP1=1, select bank3
  8195     1597  0820               	movf	___fldiv@bexp^(0+384),w
  8196     1598  1903               	btfsc	3,2
  8197     1599  2D9B               	goto	u3311
  8198     159A  2D9C               	goto	u3310
  8199     159B                     u3311:
  8200     159B  2DAF               	goto	l2225
  8201     159C                     u3310:
  8202     159C                     l2217:
  8203     159C  0A20               	incf	___fldiv@bexp^(0+384),w
  8204     159D  1D03               	btfss	3,2
  8205     159E  2DA0               	goto	u3321
  8206     159F  2DA1               	goto	u3320
  8207     15A0                     u3321:
  8208     15A0  2DAB               	goto	l2221
  8209     15A1                     u3320:
  8210     15A1                     l2219:
  8211     15A1  3000               	movlw	0
  8212     15A2  1683               	bsf	3,5	;RP0=1, select bank1
  8213     15A3  1303               	bcf	3,6	;RP1=0, select bank1
  8214     15A4  00EF               	movwf	(___fldiv@b+3)^(0+128)
  8215     15A5  3000               	movlw	0
  8216     15A6  00EE               	movwf	(___fldiv@b+2)^(0+128)
  8217     15A7  3000               	movlw	0
  8218     15A8  00ED               	movwf	(___fldiv@b+1)^(0+128)
  8219     15A9  3000               	movlw	0
  8220     15AA  00EC               	movwf	___fldiv@b^(0+128)
  8221     15AB                     l2221:
  8222     15AB  1303               	bcf	3,6	;RP1=0, select bank1
  8223     15AC  17EE               	bsf	(___fldiv@b^(0+128)+2),7
  8224     15AD                     l2223:
  8225     15AD  01EF               	clrf	(___fldiv@b^(0+128)+3)
  8226     15AE  2DB9               	goto	l2227
  8227     15AF                     l2225:
  8228     15AF  3000               	movlw	0
  8229     15B0  1683               	bsf	3,5	;RP0=1, select bank1
  8230     15B1  1303               	bcf	3,6	;RP1=0, select bank1
  8231     15B2  00EF               	movwf	(___fldiv@b+3)^(0+128)
  8232     15B3  3000               	movlw	0
  8233     15B4  00EE               	movwf	(___fldiv@b+2)^(0+128)
  8234     15B5  3000               	movlw	0
  8235     15B6  00ED               	movwf	(___fldiv@b+1)^(0+128)
  8236     15B7  3000               	movlw	0
  8237     15B8  00EC               	movwf	___fldiv@b^(0+128)
  8238     15B9                     l2227:
  8239     15B9  086B               	movf	(___fldiv@a^(0+128)+3),w
  8240     15BA  3980               	andlw	128
  8241     15BB  00FF               	movwf	btemp+1
  8242     15BC  087F               	movf	btemp+1,w
  8243     15BD  1683               	bsf	3,5	;RP0=1, select bank3
  8244     15BE  1703               	bsf	3,6	;RP1=1, select bank3
  8245     15BF  0699               	xorwf	___fldiv@sign^(0+384),f
  8246     15C0                     l2229:
  8247     15C0  1683               	bsf	3,5	;RP0=1, select bank1
  8248     15C1  1303               	bcf	3,6	;RP1=0, select bank1
  8249     15C2  086B               	movf	(___fldiv@a^(0+128)+3),w
  8250     15C3  1683               	bsf	3,5	;RP0=1, select bank3
  8251     15C4  1703               	bsf	3,6	;RP1=1, select bank3
  8252     15C5  0090               	movwf	??___fldiv^(0+384)
  8253     15C6  0710               	addwf	??___fldiv^(0+384),w
  8254     15C7  00A1               	movwf	___fldiv@aexp^(0+384)
  8255     15C8                     l2231:
  8256     15C8  1683               	bsf	3,5	;RP0=1, select bank1
  8257     15C9  1303               	bcf	3,6	;RP1=0, select bank1
  8258     15CA  1FEA               	btfss	(___fldiv@a^(0+128)+2),7
  8259     15CB  2DCD               	goto	u3331
  8260     15CC  2DCE               	goto	u3330
  8261     15CD                     u3331:
  8262     15CD  2DD1               	goto	l2235
  8263     15CE                     u3330:
  8264     15CE                     l2233:
  8265     15CE  1683               	bsf	3,5	;RP0=1, select bank3
  8266     15CF  1703               	bsf	3,6	;RP1=1, select bank3
  8267     15D0  1421               	bsf	___fldiv@aexp^(0+384),0
  8268     15D1                     l2235:
  8269     15D1  1683               	bsf	3,5	;RP0=1, select bank3
  8270     15D2  1703               	bsf	3,6	;RP1=1, select bank3
  8271     15D3  0821               	movf	___fldiv@aexp^(0+384),w
  8272     15D4  1903               	btfsc	3,2
  8273     15D5  2DD7               	goto	u3341
  8274     15D6  2DD8               	goto	u3340
  8275     15D7                     u3341:
  8276     15D7  2DEB               	goto	l2245
  8277     15D8                     u3340:
  8278     15D8                     l2237:
  8279     15D8  0A21               	incf	___fldiv@aexp^(0+384),w
  8280     15D9  1D03               	btfss	3,2
  8281     15DA  2DDC               	goto	u3351
  8282     15DB  2DDD               	goto	u3350
  8283     15DC                     u3351:
  8284     15DC  2DE7               	goto	l2241
  8285     15DD                     u3350:
  8286     15DD                     l2239:
  8287     15DD  3000               	movlw	0
  8288     15DE  1683               	bsf	3,5	;RP0=1, select bank1
  8289     15DF  1303               	bcf	3,6	;RP1=0, select bank1
  8290     15E0  00EB               	movwf	(___fldiv@a+3)^(0+128)
  8291     15E1  3000               	movlw	0
  8292     15E2  00EA               	movwf	(___fldiv@a+2)^(0+128)
  8293     15E3  3000               	movlw	0
  8294     15E4  00E9               	movwf	(___fldiv@a+1)^(0+128)
  8295     15E5  3000               	movlw	0
  8296     15E6  00E8               	movwf	___fldiv@a^(0+128)
  8297     15E7                     l2241:
  8298     15E7  1303               	bcf	3,6	;RP1=0, select bank1
  8299     15E8  17EA               	bsf	(___fldiv@a^(0+128)+2),7
  8300     15E9                     l2243:
  8301     15E9  01EB               	clrf	(___fldiv@a^(0+128)+3)
  8302     15EA  2DF5               	goto	l465
  8303     15EB                     l2245:
  8304     15EB  3000               	movlw	0
  8305     15EC  1683               	bsf	3,5	;RP0=1, select bank1
  8306     15ED  1303               	bcf	3,6	;RP1=0, select bank1
  8307     15EE  00EB               	movwf	(___fldiv@a+3)^(0+128)
  8308     15EF  3000               	movlw	0
  8309     15F0  00EA               	movwf	(___fldiv@a+2)^(0+128)
  8310     15F1  3000               	movlw	0
  8311     15F2  00E9               	movwf	(___fldiv@a+1)^(0+128)
  8312     15F3  3000               	movlw	0
  8313     15F4  00E8               	movwf	___fldiv@a^(0+128)
  8314     15F5                     l465:
  8315     15F5  086B               	movf	(___fldiv@a+3)^(0+128),w
  8316     15F6  046A               	iorwf	(___fldiv@a+2)^(0+128),w
  8317     15F7  0469               	iorwf	(___fldiv@a+1)^(0+128),w
  8318     15F8  0468               	iorwf	___fldiv@a^(0+128),w
  8319     15F9  1D03               	skipz
  8320     15FA  2DFC               	goto	u3361
  8321     15FB  2DFD               	goto	u3360
  8322     15FC                     u3361:
  8323     15FC  2E1A               	goto	l2255
  8324     15FD                     u3360:
  8325     15FD                     l2247:
  8326     15FD  3000               	movlw	0
  8327     15FE  00EF               	movwf	(___fldiv@b+3)^(0+128)
  8328     15FF  3000               	movlw	0
  8329     1600  00EE               	movwf	(___fldiv@b+2)^(0+128)
  8330     1601  3000               	movlw	0
  8331     1602  00ED               	movwf	(___fldiv@b+1)^(0+128)
  8332     1603  3000               	movlw	0
  8333     1604  00EC               	movwf	___fldiv@b^(0+128)
  8334     1605  3080               	movlw	128
  8335     1606  04EE               	iorwf	(___fldiv@b^(0+128)+2),f
  8336     1607  307F               	movlw	127
  8337     1608  04EF               	iorwf	((___fldiv@b+1)^(0+128)+2),f
  8338     1609                     l2249:
  8339     1609  1683               	bsf	3,5	;RP0=1, select bank3
  8340     160A  1703               	bsf	3,6	;RP1=1, select bank3
  8341     160B  0819               	movf	___fldiv@sign^(0+384),w
  8342     160C  00FF               	movwf	btemp+1
  8343     160D  087F               	movf	btemp+1,w
  8344     160E  1683               	bsf	3,5	;RP0=1, select bank1
  8345     160F  1303               	bcf	3,6	;RP1=0, select bank1
  8346     1610  04EF               	iorwf	(___fldiv@b^(0+128)+3),f
  8347     1611                     l2251:
  8348     1611  086F               	movf	(___fldiv@b+3)^(0+128),w
  8349     1612  00EB               	movwf	(?___fldiv+3)^(0+128)
  8350     1613  086E               	movf	(___fldiv@b+2)^(0+128),w
  8351     1614  00EA               	movwf	(?___fldiv+2)^(0+128)
  8352     1615  086D               	movf	(___fldiv@b+1)^(0+128),w
  8353     1616  00E9               	movwf	(?___fldiv+1)^(0+128)
  8354     1617  086C               	movf	___fldiv@b^(0+128),w
  8355     1618  00E8               	movwf	?___fldiv^(0+128)
  8356     1619  2FFF               	goto	l467
  8357     161A                     l2255:
  8358     161A  1683               	bsf	3,5	;RP0=1, select bank3
  8359     161B  1703               	bsf	3,6	;RP1=1, select bank3
  8360     161C  0820               	movf	___fldiv@bexp^(0+384),w
  8361     161D  1D03               	btfss	3,2
  8362     161E  2E20               	goto	u3371
  8363     161F  2E21               	goto	u3370
  8364     1620                     u3371:
  8365     1620  2E2C               	goto	l2261
  8366     1621                     u3370:
  8367     1621                     l2257:
  8368     1621  3000               	movlw	0
  8369     1622  1683               	bsf	3,5	;RP0=1, select bank1
  8370     1623  1303               	bcf	3,6	;RP1=0, select bank1
  8371     1624  00EB               	movwf	(?___fldiv+3)^(0+128)
  8372     1625  3000               	movlw	0
  8373     1626  00EA               	movwf	(?___fldiv+2)^(0+128)
  8374     1627  3000               	movlw	0
  8375     1628  00E9               	movwf	(?___fldiv+1)^(0+128)
  8376     1629  3000               	movlw	0
  8377     162A  00E8               	movwf	?___fldiv^(0+128)
  8378     162B  2FFF               	goto	l467
  8379     162C                     l2261:
  8380     162C  0820               	movf	___fldiv@bexp^(0+384),w
  8381     162D  0090               	movwf	??___fldiv^(0+384)
  8382     162E  0191               	clrf	(??___fldiv^(0+384)+1)
  8383     162F  0811               	movf	(??___fldiv+1)^(0+384),w
  8384     1630  0093               	movwf	((??___fldiv+2)^(0+384)+1)
  8385     1631  0821               	movf	___fldiv@aexp^(0+384),w
  8386     1632  0210               	subwf	??___fldiv^(0+384),w
  8387     1633  0092               	movwf	(??___fldiv+2)^(0+384)
  8388     1634  1C03               	skipc
  8389     1635  0393               	decf	((??___fldiv+2)^(0+384)+1),f
  8390     1636  0812               	movf	(??___fldiv+2)^(0+384),w
  8391     1637  3E7F               	addlw	127
  8392     1638  009A               	movwf	___fldiv@new_exp^(0+384)
  8393     1639  0813               	movf	(??___fldiv+3)^(0+384),w
  8394     163A  1803               	skipnc
  8395     163B  3E01               	addlw	1
  8396     163C  3E00               	addlw	0
  8397     163D  009B               	movwf	(___fldiv@new_exp+1)^(0+384)
  8398     163E                     l2263:
  8399     163E  1683               	bsf	3,5	;RP0=1, select bank1
  8400     163F  1303               	bcf	3,6	;RP1=0, select bank1
  8401     1640  086F               	movf	(___fldiv@b+3)^(0+128),w
  8402     1641  1683               	bsf	3,5	;RP0=1, select bank3
  8403     1642  1703               	bsf	3,6	;RP1=1, select bank3
  8404     1643  0098               	movwf	(___fldiv@rem+3)^(0+384)
  8405     1644  1683               	bsf	3,5	;RP0=1, select bank1
  8406     1645  1303               	bcf	3,6	;RP1=0, select bank1
  8407     1646  086E               	movf	(___fldiv@b+2)^(0+128),w
  8408     1647  1683               	bsf	3,5	;RP0=1, select bank3
  8409     1648  1703               	bsf	3,6	;RP1=1, select bank3
  8410     1649  0097               	movwf	(___fldiv@rem+2)^(0+384)
  8411     164A  1683               	bsf	3,5	;RP0=1, select bank1
  8412     164B  1303               	bcf	3,6	;RP1=0, select bank1
  8413     164C  086D               	movf	(___fldiv@b+1)^(0+128),w
  8414     164D  1683               	bsf	3,5	;RP0=1, select bank3
  8415     164E  1703               	bsf	3,6	;RP1=1, select bank3
  8416     164F  0096               	movwf	(___fldiv@rem+1)^(0+384)
  8417     1650  1683               	bsf	3,5	;RP0=1, select bank1
  8418     1651  1303               	bcf	3,6	;RP1=0, select bank1
  8419     1652  086C               	movf	___fldiv@b^(0+128),w
  8420     1653  1683               	bsf	3,5	;RP0=1, select bank3
  8421     1654  1703               	bsf	3,6	;RP1=1, select bank3
  8422     1655  0095               	movwf	___fldiv@rem^(0+384)
  8423     1656                     l2265:
  8424     1656  3000               	movlw	0
  8425     1657  1683               	bsf	3,5	;RP0=1, select bank1
  8426     1658  1303               	bcf	3,6	;RP1=0, select bank1
  8427     1659  00EF               	movwf	(___fldiv@b+3)^(0+128)
  8428     165A  3000               	movlw	0
  8429     165B  00EE               	movwf	(___fldiv@b+2)^(0+128)
  8430     165C  3000               	movlw	0
  8431     165D  00ED               	movwf	(___fldiv@b+1)^(0+128)
  8432     165E  3000               	movlw	0
  8433     165F  00EC               	movwf	___fldiv@b^(0+128)
  8434     1660                     l2267:
  8435     1660  3000               	movlw	0
  8436     1661  1683               	bsf	3,5	;RP0=1, select bank3
  8437     1662  1703               	bsf	3,6	;RP1=1, select bank3
  8438     1663  009F               	movwf	(___fldiv@grs+3)^(0+384)
  8439     1664  3000               	movlw	0
  8440     1665  009E               	movwf	(___fldiv@grs+2)^(0+384)
  8441     1666  3000               	movlw	0
  8442     1667  009D               	movwf	(___fldiv@grs+1)^(0+384)
  8443     1668  3000               	movlw	0
  8444     1669  009C               	movwf	___fldiv@grs^(0+384)
  8445     166A                     l2269:
  8446     166A  01A1               	clrf	___fldiv@aexp^(0+384)
  8447     166B  2EE8               	goto	l2289
  8448     166C                     l2271:
  8449     166C  0821               	movf	___fldiv@aexp^(0+384),w
  8450     166D  1903               	btfsc	3,2
  8451     166E  2E70               	goto	u3381
  8452     166F  2E71               	goto	u3380
  8453     1670                     u3381:
  8454     1670  2E99               	goto	l2281
  8455     1671                     u3380:
  8456     1671                     l2273:
  8457     1671  3001               	movlw	1
  8458     1672  0090               	movwf	??___fldiv^(0+384)
  8459     1673                     u3395:
  8460     1673  1003               	clrc
  8461     1674  0D95               	rlf	___fldiv@rem^(0+384),f
  8462     1675  0D96               	rlf	(___fldiv@rem+1)^(0+384),f
  8463     1676  0D97               	rlf	(___fldiv@rem+2)^(0+384),f
  8464     1677  0D98               	rlf	(___fldiv@rem+3)^(0+384),f
  8465     1678  0B90               	decfsz	??___fldiv^(0+384),f
  8466     1679  2E73               	goto	u3395
  8467     167A  3001               	movlw	1
  8468     167B  0090               	movwf	??___fldiv^(0+384)
  8469     167C                     u3405:
  8470     167C  1003               	clrc
  8471     167D  1683               	bsf	3,5	;RP0=1, select bank1
  8472     167E  1303               	bcf	3,6	;RP1=0, select bank1
  8473     167F  0DEC               	rlf	___fldiv@b^(0+128),f
  8474     1680  0DED               	rlf	(___fldiv@b+1)^(0+128),f
  8475     1681  0DEE               	rlf	(___fldiv@b+2)^(0+128),f
  8476     1682  0DEF               	rlf	(___fldiv@b+3)^(0+128),f
  8477     1683  1683               	bsf	3,5	;RP0=1, select bank3
  8478     1684  1703               	bsf	3,6	;RP1=1, select bank3
  8479     1685  0B90               	decfsz	??___fldiv^(0+384),f
  8480     1686  2E7C               	goto	u3405
  8481     1687                     l2275:
  8482     1687  1F9F               	btfss	(___fldiv@grs+3)^(0+384),7
  8483     1688  2E8A               	goto	u3411
  8484     1689  2E8B               	goto	u3410
  8485     168A                     u3411:
  8486     168A  2E8E               	goto	l2279
  8487     168B                     u3410:
  8488     168B                     l2277:
  8489     168B  1683               	bsf	3,5	;RP0=1, select bank1
  8490     168C  1303               	bcf	3,6	;RP1=0, select bank1
  8491     168D  146C               	bsf	___fldiv@b^(0+128),0
  8492     168E                     l2279:
  8493     168E  3001               	movlw	1
  8494     168F  1683               	bsf	3,5	;RP0=1, select bank3
  8495     1690  1703               	bsf	3,6	;RP1=1, select bank3
  8496     1691  0090               	movwf	??___fldiv^(0+384)
  8497     1692                     u3425:
  8498     1692  1003               	clrc
  8499     1693  0D9C               	rlf	___fldiv@grs^(0+384),f
  8500     1694  0D9D               	rlf	(___fldiv@grs+1)^(0+384),f
  8501     1695  0D9E               	rlf	(___fldiv@grs+2)^(0+384),f
  8502     1696  0D9F               	rlf	(___fldiv@grs+3)^(0+384),f
  8503     1697  0B90               	decfsz	??___fldiv^(0+384),f
  8504     1698  2E92               	goto	u3425
  8505     1699                     l2281:
  8506     1699  1683               	bsf	3,5	;RP0=1, select bank1
  8507     169A  1303               	bcf	3,6	;RP1=0, select bank1
  8508     169B  086B               	movf	(___fldiv@a+3)^(0+128),w
  8509     169C  1683               	bsf	3,5	;RP0=1, select bank3
  8510     169D  1703               	bsf	3,6	;RP1=1, select bank3
  8511     169E  0218               	subwf	(___fldiv@rem+3)^(0+384),w
  8512     169F  1D03               	skipz
  8513     16A0  2EB7               	goto	u3435
  8514     16A1  1683               	bsf	3,5	;RP0=1, select bank1
  8515     16A2  1303               	bcf	3,6	;RP1=0, select bank1
  8516     16A3  086A               	movf	(___fldiv@a+2)^(0+128),w
  8517     16A4  1683               	bsf	3,5	;RP0=1, select bank3
  8518     16A5  1703               	bsf	3,6	;RP1=1, select bank3
  8519     16A6  0217               	subwf	(___fldiv@rem+2)^(0+384),w
  8520     16A7  1D03               	skipz
  8521     16A8  2EB7               	goto	u3435
  8522     16A9  1683               	bsf	3,5	;RP0=1, select bank1
  8523     16AA  1303               	bcf	3,6	;RP1=0, select bank1
  8524     16AB  0869               	movf	(___fldiv@a+1)^(0+128),w
  8525     16AC  1683               	bsf	3,5	;RP0=1, select bank3
  8526     16AD  1703               	bsf	3,6	;RP1=1, select bank3
  8527     16AE  0216               	subwf	(___fldiv@rem+1)^(0+384),w
  8528     16AF  1D03               	skipz
  8529     16B0  2EB7               	goto	u3435
  8530     16B1  1683               	bsf	3,5	;RP0=1, select bank1
  8531     16B2  1303               	bcf	3,6	;RP1=0, select bank1
  8532     16B3  0868               	movf	___fldiv@a^(0+128),w
  8533     16B4  1683               	bsf	3,5	;RP0=1, select bank3
  8534     16B5  1703               	bsf	3,6	;RP1=1, select bank3
  8535     16B6  0215               	subwf	___fldiv@rem^(0+384),w
  8536     16B7                     u3435:
  8537     16B7  1C03               	skipc
  8538     16B8  2EBA               	goto	u3431
  8539     16B9  2EBB               	goto	u3430
  8540     16BA                     u3431:
  8541     16BA  2EE4               	goto	l2287
  8542     16BB                     u3430:
  8543     16BB                     l2283:
  8544     16BB  171F               	bsf	(___fldiv@grs^(0+384)+3),6
  8545     16BC                     l2285:
  8546     16BC  1683               	bsf	3,5	;RP0=1, select bank1
  8547     16BD  1303               	bcf	3,6	;RP1=0, select bank1
  8548     16BE  0868               	movf	___fldiv@a^(0+128),w
  8549     16BF  1683               	bsf	3,5	;RP0=1, select bank3
  8550     16C0  1703               	bsf	3,6	;RP1=1, select bank3
  8551     16C1  0295               	subwf	___fldiv@rem^(0+384),f
  8552     16C2  1683               	bsf	3,5	;RP0=1, select bank1
  8553     16C3  1303               	bcf	3,6	;RP1=0, select bank1
  8554     16C4  0869               	movf	(___fldiv@a+1)^(0+128),w
  8555     16C5  1C03               	skipc
  8556     16C6  0F69               	incfsz	(___fldiv@a+1)^(0+128),w
  8557     16C7  2EC9               	goto	u3445
  8558     16C8  2ECC               	goto	u3446
  8559     16C9                     u3445:
  8560     16C9  1683               	bsf	3,5	;RP0=1, select bank3
  8561     16CA  1703               	bsf	3,6	;RP1=1, select bank3
  8562     16CB  0296               	subwf	(___fldiv@rem+1)^(0+384),f
  8563     16CC                     u3446:
  8564     16CC  1683               	bsf	3,5	;RP0=1, select bank1
  8565     16CD  1303               	bcf	3,6	;RP1=0, select bank1
  8566     16CE  086A               	movf	(___fldiv@a+2)^(0+128),w
  8567     16CF  1C03               	skipc
  8568     16D0  0F6A               	incfsz	(___fldiv@a+2)^(0+128),w
  8569     16D1  2ED3               	goto	u3447
  8570     16D2  2ED6               	goto	u3448
  8571     16D3                     u3447:
  8572     16D3  1683               	bsf	3,5	;RP0=1, select bank3
  8573     16D4  1703               	bsf	3,6	;RP1=1, select bank3
  8574     16D5  0297               	subwf	(___fldiv@rem+2)^(0+384),f
  8575     16D6                     u3448:
  8576     16D6  1683               	bsf	3,5	;RP0=1, select bank1
  8577     16D7  1303               	bcf	3,6	;RP1=0, select bank1
  8578     16D8  086B               	movf	(___fldiv@a+3)^(0+128),w
  8579     16D9  1C03               	skipc
  8580     16DA  0F6B               	incfsz	(___fldiv@a+3)^(0+128),w
  8581     16DB  2EDD               	goto	u3449
  8582     16DC  2EE0               	goto	u3440
  8583     16DD                     u3449:
  8584     16DD  1683               	bsf	3,5	;RP0=1, select bank3
  8585     16DE  1703               	bsf	3,6	;RP1=1, select bank3
  8586     16DF  0298               	subwf	(___fldiv@rem+3)^(0+384),f
  8587     16E0                     u3440:
  8588     16E0  1683               	bsf	3,5	;RP0=1, select bank1
  8589     16E1  1303               	bcf	3,6	;RP1=0, select bank1
  8590     16E2  1683               	bsf	3,5	;RP0=1, select bank3
  8591     16E3  1703               	bsf	3,6	;RP1=1, select bank3
  8592     16E4                     l2287:
  8593     16E4  3001               	movlw	1
  8594     16E5  00FF               	movwf	btemp+1
  8595     16E6  087F               	movf	btemp+1,w
  8596     16E7  07A1               	addwf	___fldiv@aexp^(0+384),f
  8597     16E8                     l2289:
  8598     16E8  301A               	movlw	26
  8599     16E9  0221               	subwf	___fldiv@aexp^(0+384),w
  8600     16EA  1C03               	skipc
  8601     16EB  2EED               	goto	u3451
  8602     16EC  2EEE               	goto	u3450
  8603     16ED                     u3451:
  8604     16ED  2E6C               	goto	l2271
  8605     16EE                     u3450:
  8606     16EE                     l2291:
  8607     16EE  0818               	movf	(___fldiv@rem+3)^(0+384),w
  8608     16EF  0417               	iorwf	(___fldiv@rem+2)^(0+384),w
  8609     16F0  0416               	iorwf	(___fldiv@rem+1)^(0+384),w
  8610     16F1  0415               	iorwf	___fldiv@rem^(0+384),w
  8611     16F2  1903               	skipnz
  8612     16F3  2EF5               	goto	u3461
  8613     16F4  2EF6               	goto	u3460
  8614     16F5                     u3461:
  8615     16F5  2F1F               	goto	l2305
  8616     16F6                     u3460:
  8617     16F6                     l2293:
  8618     16F6  141C               	bsf	___fldiv@grs^(0+384),0
  8619     16F7  2F1F               	goto	l2305
  8620     16F8                     l2295:
  8621     16F8  3001               	movlw	1
  8622     16F9  1683               	bsf	3,5	;RP0=1, select bank3
  8623     16FA  1703               	bsf	3,6	;RP1=1, select bank3
  8624     16FB  0090               	movwf	??___fldiv^(0+384)
  8625     16FC                     u3475:
  8626     16FC  1003               	clrc
  8627     16FD  1683               	bsf	3,5	;RP0=1, select bank1
  8628     16FE  1303               	bcf	3,6	;RP1=0, select bank1
  8629     16FF  0DEC               	rlf	___fldiv@b^(0+128),f
  8630     1700  0DED               	rlf	(___fldiv@b+1)^(0+128),f
  8631     1701  0DEE               	rlf	(___fldiv@b+2)^(0+128),f
  8632     1702  0DEF               	rlf	(___fldiv@b+3)^(0+128),f
  8633     1703  1683               	bsf	3,5	;RP0=1, select bank3
  8634     1704  1703               	bsf	3,6	;RP1=1, select bank3
  8635     1705  0B90               	decfsz	??___fldiv^(0+384),f
  8636     1706  2EFC               	goto	u3475
  8637     1707                     l2297:
  8638     1707  1F9F               	btfss	(___fldiv@grs+3)^(0+384),7
  8639     1708  2F0A               	goto	u3481
  8640     1709  2F0B               	goto	u3480
  8641     170A                     u3481:
  8642     170A  2F0E               	goto	l2301
  8643     170B                     u3480:
  8644     170B                     l2299:
  8645     170B  1683               	bsf	3,5	;RP0=1, select bank1
  8646     170C  1303               	bcf	3,6	;RP1=0, select bank1
  8647     170D  146C               	bsf	___fldiv@b^(0+128),0
  8648     170E                     l2301:
  8649     170E  3001               	movlw	1
  8650     170F  1683               	bsf	3,5	;RP0=1, select bank3
  8651     1710  1703               	bsf	3,6	;RP1=1, select bank3
  8652     1711  0090               	movwf	??___fldiv^(0+384)
  8653     1712                     u3495:
  8654     1712  1003               	clrc
  8655     1713  0D9C               	rlf	___fldiv@grs^(0+384),f
  8656     1714  0D9D               	rlf	(___fldiv@grs+1)^(0+384),f
  8657     1715  0D9E               	rlf	(___fldiv@grs+2)^(0+384),f
  8658     1716  0D9F               	rlf	(___fldiv@grs+3)^(0+384),f
  8659     1717  0B90               	decfsz	??___fldiv^(0+384),f
  8660     1718  2F12               	goto	u3495
  8661     1719                     l2303:
  8662     1719  30FF               	movlw	255
  8663     171A  079A               	addwf	___fldiv@new_exp^(0+384),f
  8664     171B  1803               	skipnc
  8665     171C  0A9B               	incf	(___fldiv@new_exp+1)^(0+384),f
  8666     171D  30FF               	movlw	255
  8667     171E  079B               	addwf	(___fldiv@new_exp+1)^(0+384),f
  8668     171F                     l2305:
  8669     171F  1683               	bsf	3,5	;RP0=1, select bank1
  8670     1720  1303               	bcf	3,6	;RP1=0, select bank1
  8671     1721  1FEE               	btfss	(___fldiv@b+2)^(0+128),7
  8672     1722  2F24               	goto	u3501
  8673     1723  2F25               	goto	u3500
  8674     1724                     u3501:
  8675     1724  2EF8               	goto	l2295
  8676     1725                     u3500:
  8677     1725                     l2307:
  8678     1725  1683               	bsf	3,5	;RP0=1, select bank3
  8679     1726  1703               	bsf	3,6	;RP1=1, select bank3
  8680     1727  01A1               	clrf	___fldiv@aexp^(0+384)
  8681     1728                     l2309:
  8682     1728  1F9F               	btfss	(___fldiv@grs+3)^(0+384),7
  8683     1729  2F2B               	goto	u3511
  8684     172A  2F2C               	goto	u3510
  8685     172B                     u3511:
  8686     172B  2F4C               	goto	l2317
  8687     172C                     u3510:
  8688     172C                     l2311:
  8689     172C  30FF               	movlw	255
  8690     172D  051C               	andwf	___fldiv@grs^(0+384),w
  8691     172E  0090               	movwf	??___fldiv^(0+384)
  8692     172F  30FF               	movlw	255
  8693     1730  051D               	andwf	(___fldiv@grs+1)^(0+384),w
  8694     1731  0091               	movwf	(??___fldiv^(0+384)+1)
  8695     1732  30FF               	movlw	255
  8696     1733  051E               	andwf	(___fldiv@grs+2)^(0+384),w
  8697     1734  0092               	movwf	(??___fldiv^(0+384)+2)
  8698     1735  307F               	movlw	127
  8699     1736  051F               	andwf	(___fldiv@grs+3)^(0+384),w
  8700     1737  0093               	movwf	(??___fldiv^(0+384)+3)
  8701     1738  0813               	movf	(??___fldiv+3)^(0+384),w
  8702     1739  0412               	iorwf	(??___fldiv+2)^(0+384),w
  8703     173A  0411               	iorwf	(??___fldiv+1)^(0+384),w
  8704     173B  0410               	iorwf	??___fldiv^(0+384),w
  8705     173C  1903               	skipnz
  8706     173D  2F3F               	goto	u3521
  8707     173E  2F40               	goto	u3520
  8708     173F                     u3521:
  8709     173F  2F45               	goto	l481
  8710     1740                     u3520:
  8711     1740                     l2313:
  8712     1740  1683               	bsf	3,5	;RP0=1, select bank3
  8713     1741  1703               	bsf	3,6	;RP1=1, select bank3
  8714     1742  01A1               	clrf	___fldiv@aexp^(0+384)
  8715     1743  0AA1               	incf	___fldiv@aexp^(0+384),f
  8716     1744  2F4C               	goto	l2317
  8717     1745                     l481:
  8718     1745  1683               	bsf	3,5	;RP0=1, select bank1
  8719     1746  1303               	bcf	3,6	;RP1=0, select bank1
  8720     1747  1C6C               	btfss	___fldiv@b^(0+128),0
  8721     1748  2F4A               	goto	u3531
  8722     1749  2F4B               	goto	u3530
  8723     174A                     u3531:
  8724     174A  2F4C               	goto	l2317
  8725     174B                     u3530:
  8726     174B  2F40               	goto	l2313
  8727     174C                     l2317:
  8728     174C  1683               	bsf	3,5	;RP0=1, select bank3
  8729     174D  1703               	bsf	3,6	;RP1=1, select bank3
  8730     174E  0821               	movf	___fldiv@aexp^(0+384),w
  8731     174F  1903               	btfsc	3,2
  8732     1750  2F52               	goto	u3541
  8733     1751  2F53               	goto	u3540
  8734     1752                     u3541:
  8735     1752  2FA4               	goto	l2327
  8736     1753                     u3540:
  8737     1753                     l2319:
  8738     1753  3001               	movlw	1
  8739     1754  1683               	bsf	3,5	;RP0=1, select bank1
  8740     1755  1303               	bcf	3,6	;RP1=0, select bank1
  8741     1756  07EC               	addwf	___fldiv@b^(0+128),f
  8742     1757  3000               	movlw	0
  8743     1758  1803               	skipnc
  8744     1759  3001               	movlw	1
  8745     175A  07ED               	addwf	(___fldiv@b+1)^(0+128),f
  8746     175B  3000               	movlw	0
  8747     175C  1803               	skipnc
  8748     175D  3001               	movlw	1
  8749     175E  07EE               	addwf	(___fldiv@b+2)^(0+128),f
  8750     175F  3000               	movlw	0
  8751     1760  1803               	skipnc
  8752     1761  3001               	movlw	1
  8753     1762  07EF               	addwf	(___fldiv@b+3)^(0+128),f
  8754     1763                     l2321:
  8755     1763  1C6F               	btfss	(___fldiv@b+3)^(0+128),0
  8756     1764  2F66               	goto	u3551
  8757     1765  2F67               	goto	u3550
  8758     1766                     u3551:
  8759     1766  2FA4               	goto	l2327
  8760     1767                     u3550:
  8761     1767                     l2323:
  8762     1767  086C               	movf	___fldiv@b^(0+128),w
  8763     1768  1683               	bsf	3,5	;RP0=1, select bank3
  8764     1769  1703               	bsf	3,6	;RP1=1, select bank3
  8765     176A  0090               	movwf	??___fldiv^(0+384)
  8766     176B  1683               	bsf	3,5	;RP0=1, select bank1
  8767     176C  1303               	bcf	3,6	;RP1=0, select bank1
  8768     176D  086D               	movf	(___fldiv@b+1)^(0+128),w
  8769     176E  1683               	bsf	3,5	;RP0=1, select bank3
  8770     176F  1703               	bsf	3,6	;RP1=1, select bank3
  8771     1770  0091               	movwf	(??___fldiv^(0+384)+1)
  8772     1771  1683               	bsf	3,5	;RP0=1, select bank1
  8773     1772  1303               	bcf	3,6	;RP1=0, select bank1
  8774     1773  086E               	movf	(___fldiv@b+2)^(0+128),w
  8775     1774  1683               	bsf	3,5	;RP0=1, select bank3
  8776     1775  1703               	bsf	3,6	;RP1=1, select bank3
  8777     1776  0092               	movwf	(??___fldiv^(0+384)+2)
  8778     1777  1683               	bsf	3,5	;RP0=1, select bank1
  8779     1778  1303               	bcf	3,6	;RP1=0, select bank1
  8780     1779  086F               	movf	(___fldiv@b+3)^(0+128),w
  8781     177A  1683               	bsf	3,5	;RP0=1, select bank3
  8782     177B  1703               	bsf	3,6	;RP1=1, select bank3
  8783     177C  0093               	movwf	(??___fldiv^(0+384)+3)
  8784     177D  3001               	movlw	1
  8785     177E  0094               	movwf	(??___fldiv+4)^(0+384)
  8786     177F                     u3565:
  8787     177F  0D13               	rlf	(??___fldiv^(0+384)+3),w
  8788     1780  0C93               	rrf	(??___fldiv^(0+384)+3),f
  8789     1781  0C92               	rrf	(??___fldiv^(0+384)+2),f
  8790     1782  0C91               	rrf	(??___fldiv^(0+384)+1),f
  8791     1783  0C90               	rrf	??___fldiv^(0+384),f
  8792     1784                     u3560:
  8793     1784  0B94               	decfsz	(??___fldiv+4)^(0+384),f
  8794     1785  2F7F               	goto	u3565
  8795     1786  0813               	movf	(??___fldiv+3)^(0+384),w
  8796     1787  1683               	bsf	3,5	;RP0=1, select bank1
  8797     1788  1303               	bcf	3,6	;RP1=0, select bank1
  8798     1789  00EF               	movwf	(___fldiv@b+3)^(0+128)
  8799     178A  1683               	bsf	3,5	;RP0=1, select bank3
  8800     178B  1703               	bsf	3,6	;RP1=1, select bank3
  8801     178C  0812               	movf	(??___fldiv+2)^(0+384),w
  8802     178D  1683               	bsf	3,5	;RP0=1, select bank1
  8803     178E  1303               	bcf	3,6	;RP1=0, select bank1
  8804     178F  00EE               	movwf	(___fldiv@b+2)^(0+128)
  8805     1790  1683               	bsf	3,5	;RP0=1, select bank3
  8806     1791  1703               	bsf	3,6	;RP1=1, select bank3
  8807     1792  0811               	movf	(??___fldiv+1)^(0+384),w
  8808     1793  1683               	bsf	3,5	;RP0=1, select bank1
  8809     1794  1303               	bcf	3,6	;RP1=0, select bank1
  8810     1795  00ED               	movwf	(___fldiv@b+1)^(0+128)
  8811     1796  1683               	bsf	3,5	;RP0=1, select bank3
  8812     1797  1703               	bsf	3,6	;RP1=1, select bank3
  8813     1798  0810               	movf	??___fldiv^(0+384),w
  8814     1799  1683               	bsf	3,5	;RP0=1, select bank1
  8815     179A  1303               	bcf	3,6	;RP1=0, select bank1
  8816     179B  00EC               	movwf	___fldiv@b^(0+128)
  8817     179C                     l2325:
  8818     179C  3001               	movlw	1
  8819     179D  1683               	bsf	3,5	;RP0=1, select bank3
  8820     179E  1703               	bsf	3,6	;RP1=1, select bank3
  8821     179F  079A               	addwf	___fldiv@new_exp^(0+384),f
  8822     17A0  1803               	skipnc
  8823     17A1  0A9B               	incf	(___fldiv@new_exp+1)^(0+384),f
  8824     17A2  3000               	movlw	0
  8825     17A3  079B               	addwf	(___fldiv@new_exp+1)^(0+384),f
  8826     17A4                     l2327:
  8827     17A4  1683               	bsf	3,5	;RP0=1, select bank3
  8828     17A5  1703               	bsf	3,6	;RP1=1, select bank3
  8829     17A6  081B               	movf	(___fldiv@new_exp+1)^(0+384),w
  8830     17A7  3A80               	xorlw	128
  8831     17A8  00FF               	movwf	btemp+1
  8832     17A9  3080               	movlw	128
  8833     17AA  027F               	subwf	btemp+1,w
  8834     17AB  1D03               	skipz
  8835     17AC  2FAF               	goto	u3575
  8836     17AD  30FF               	movlw	255
  8837     17AE  021A               	subwf	___fldiv@new_exp^(0+384),w
  8838     17AF                     u3575:
  8839     17AF  1C03               	skipc
  8840     17B0  2FB2               	goto	u3571
  8841     17B1  2FB3               	goto	u3570
  8842     17B2                     u3571:
  8843     17B2  2FC3               	goto	l2331
  8844     17B3                     u3570:
  8845     17B3                     l2329:
  8846     17B3  30FF               	movlw	255
  8847     17B4  1683               	bsf	3,5	;RP0=1, select bank3
  8848     17B5  1703               	bsf	3,6	;RP1=1, select bank3
  8849     17B6  009A               	movwf	___fldiv@new_exp^(0+384)
  8850     17B7  3000               	movlw	0
  8851     17B8  009B               	movwf	(___fldiv@new_exp^(0+384)+1)
  8852     17B9  3000               	movlw	0
  8853     17BA  1683               	bsf	3,5	;RP0=1, select bank1
  8854     17BB  1303               	bcf	3,6	;RP1=0, select bank1
  8855     17BC  00EF               	movwf	(___fldiv@b+3)^(0+128)
  8856     17BD  3000               	movlw	0
  8857     17BE  00EE               	movwf	(___fldiv@b+2)^(0+128)
  8858     17BF  3000               	movlw	0
  8859     17C0  00ED               	movwf	(___fldiv@b+1)^(0+128)
  8860     17C1  3000               	movlw	0
  8861     17C2  00EC               	movwf	___fldiv@b^(0+128)
  8862     17C3                     l2331:
  8863     17C3  1683               	bsf	3,5	;RP0=1, select bank3
  8864     17C4  1703               	bsf	3,6	;RP1=1, select bank3
  8865     17C5  081B               	movf	(___fldiv@new_exp+1)^(0+384),w
  8866     17C6  3A80               	xorlw	128
  8867     17C7  00FF               	movwf	btemp+1
  8868     17C8  3080               	movlw	128
  8869     17C9  027F               	subwf	btemp+1,w
  8870     17CA  1D03               	skipz
  8871     17CB  2FCE               	goto	u3585
  8872     17CC  3001               	movlw	1
  8873     17CD  021A               	subwf	___fldiv@new_exp^(0+384),w
  8874     17CE                     u3585:
  8875     17CE  1803               	skipnc
  8876     17CF  2FD1               	goto	u3581
  8877     17D0  2FD2               	goto	u3580
  8878     17D1                     u3581:
  8879     17D1  2FE3               	goto	l487
  8880     17D2                     u3580:
  8881     17D2                     l2333:
  8882     17D2  1683               	bsf	3,5	;RP0=1, select bank3
  8883     17D3  1703               	bsf	3,6	;RP1=1, select bank3
  8884     17D4  019A               	clrf	___fldiv@new_exp^(0+384)
  8885     17D5  019B               	clrf	(___fldiv@new_exp+1)^(0+384)
  8886     17D6                     l2335:
  8887     17D6  3000               	movlw	0
  8888     17D7  1683               	bsf	3,5	;RP0=1, select bank1
  8889     17D8  1303               	bcf	3,6	;RP1=0, select bank1
  8890     17D9  00EF               	movwf	(___fldiv@b+3)^(0+128)
  8891     17DA  3000               	movlw	0
  8892     17DB  00EE               	movwf	(___fldiv@b+2)^(0+128)
  8893     17DC  3000               	movlw	0
  8894     17DD  00ED               	movwf	(___fldiv@b+1)^(0+128)
  8895     17DE  3000               	movlw	0
  8896     17DF  00EC               	movwf	___fldiv@b^(0+128)
  8897     17E0                     l2337:
  8898     17E0  1683               	bsf	3,5	;RP0=1, select bank3
  8899     17E1  1703               	bsf	3,6	;RP1=1, select bank3
  8900     17E2  0199               	clrf	___fldiv@sign^(0+384)
  8901     17E3                     l487:
  8902     17E3  1683               	bsf	3,5	;RP0=1, select bank3
  8903     17E4  1703               	bsf	3,6	;RP1=1, select bank3
  8904     17E5  081A               	movf	___fldiv@new_exp^(0+384),w
  8905     17E6  00A0               	movwf	___fldiv@bexp^(0+384)
  8906     17E7                     l2339:
  8907     17E7  1C20               	btfss	___fldiv@bexp^(0+384),0
  8908     17E8  2FEA               	goto	u3591
  8909     17E9  2FEB               	goto	u3590
  8910     17EA                     u3591:
  8911     17EA  2FEF               	goto	l2343
  8912     17EB                     u3590:
  8913     17EB                     l2341:
  8914     17EB  1683               	bsf	3,5	;RP0=1, select bank1
  8915     17EC  1303               	bcf	3,6	;RP1=0, select bank1
  8916     17ED  17EE               	bsf	(___fldiv@b^(0+128)+2),7
  8917     17EE  2FF5               	goto	l2345
  8918     17EF                     l2343:
  8919     17EF  307F               	movlw	127
  8920     17F0  00FF               	movwf	btemp+1
  8921     17F1  087F               	movf	btemp+1,w
  8922     17F2  1683               	bsf	3,5	;RP0=1, select bank1
  8923     17F3  1303               	bcf	3,6	;RP1=0, select bank1
  8924     17F4  05EE               	andwf	(___fldiv@b^(0+128)+2),f
  8925     17F5                     l2345:
  8926     17F5  1683               	bsf	3,5	;RP0=1, select bank3
  8927     17F6  1703               	bsf	3,6	;RP1=1, select bank3
  8928     17F7  0820               	movf	___fldiv@bexp^(0+384),w
  8929     17F8  0090               	movwf	??___fldiv^(0+384)
  8930     17F9  1003               	clrc
  8931     17FA  0C10               	rrf	??___fldiv^(0+384),w
  8932     17FB  1683               	bsf	3,5	;RP0=1, select bank1
  8933     17FC  1303               	bcf	3,6	;RP1=0, select bank1
  8934     17FD  00EF               	movwf	(___fldiv@b^(0+128)+3)
  8935     17FE  2E09               	goto	l2249
  8936     17FF                     l467:
  8937     17FF  0008               	return
  8938     1800                     __end_of___fldiv:
  8939     007E                     btemp	set	126	;btemp
  8940     007E                     wtemp0	set	126
  8941                           
  8942                           	psect	config
  8943                           
  8944                           ;Config register CONFIG @ 0x2007
  8945                           ;	Oscillator Selection bits
  8946                           ;	FOSC = XT, XT oscillator
  8947                           ;	Watchdog Timer Enable bit
  8948                           ;	WDTE = OFF, WDT disabled
  8949                           ;	Power-up Timer Enable bit
  8950                           ;	PWRTE = ON, PWRT enabled
  8951                           ;	Brown-out Reset Enable bit
  8952                           ;	BOREN = ON, BOR enabled
  8953                           ;	Low-Voltage (Single-Supply) In-Circuit Serial Programming Enable bit
  8954                           ;	LVP = OFF, RB3 is digital I/O, HV on MCLR must be used for programming
  8955                           ;	Data EEPROM Memory Code Protection bit
  8956                           ;	CPD = OFF, Data EEPROM code protection off
  8957                           ;	Flash Program Memory Write Enable bits
  8958                           ;	WRT = OFF, Write protection off; all program memory may be written to by EECON control
  8959                           ;	In-Circuit Debugger Mode bit
  8960                           ;	DEBUG = 0x1, unprogrammed default
  8961                           ;	Flash Program Memory Code Protection bit
  8962                           ;	CP = OFF, Code protection off
  8963     2007                     	org	8199
  8964     2007  3F71               	dw	16241

Data Sizes:
    Strings     0
    Constant    68
    Data        0
    BSS         12
    Persistent  0
    Stack       0

Auto Spaces:
    Space          Size  Autos    Used
    COMMON           14     14      14
    BANK0            80     80      80
    BANK1            80     80      80
    BANK3            96     52      64
    BANK2            96     66      66

Pointer List with Targets:

    __rem_pio2f@y	PTR  size(1) Largest target is 4
		 -> sinf@y(BANK1[4]), 


Critical Paths under _main in COMMON

    _main->___xxtofl
    ___rem_pio2f->___xxtofl
    ___xxtofl->___wmul
    ___fltol->___xxtofl
    ___flmul->___xxtofl
    _roundf->___xxtofl
    ___fladd->___xxtofl
    ___fldiv->___xxtofl

Critical Paths under _main in BANK0

    _sinf->___cosdf
    ___sindf->___fladd
    ___cosdf->___fladd
    ___flmul->___xxtofl
    ___flsub->___fladd
    ___fladd->___flmul
    ___flneg->___cosdf

Critical Paths under _main in BANK1

    _main->___fldiv
    _sinf->___rem_pio2f
    ___rem_pio2f->___fltol
    ___fltol->___flneg
    _roundf->___fldiv
    ___fldiv->_sinf

Critical Paths under _main in BANK3

    _main->_roundf
    _roundf->___fldiv

Critical Paths under _main in BANK2

    None.

Call Graph Tables:

 ---------------------------------------------------------------------------------
 (Depth) Function   	        Calls       Base Space   Used Autos Params    Refs
 ---------------------------------------------------------------------------------
 (0) _main                                                69    69      0   80317
                                             49 BANK3      3     3      0
                                              0 BANK2     66    66      0
                            ___fladd
                            ___fldiv
                            ___flmul
                            ___fltol
                             ___wmul
                           ___xxtofl
                             _roundf
                               _sinf
 ---------------------------------------------------------------------------------
 (1) _sinf                                                26    22      4   52214
                                             46 BANK1     26    22      4
                            ___cosdf
                            ___fladd
                            ___flneg
                        ___rem_pio2f
                            ___sindf
                             ___wmul (ARG)
 ---------------------------------------------------------------------------------
 (2) ___sindf                                             32    28      4   12056
                                             52 BANK0      4     0      4
                                              0 BANK1     28    28      0
                            ___fladd
                            ___flmul
 ---------------------------------------------------------------------------------
 (2) ___rem_pio2f                                         32    27      5   20666
                                             14 BANK1     32    27      5
                            ___fladd
                            ___flmul
                            ___flneg
                            ___flsub
                            ___fltol
                           ___xxtofl
                              _fabsf
 ---------------------------------------------------------------------------------
 (3) _fabsf                                                8     4      4     199
                                              0 COMMON     8     4      4
 ---------------------------------------------------------------------------------
 (3) ___xxtofl                                            14    10      4     550
                                              6 COMMON     8     4      4
                                              0 BANK0      6     6      0
                             ___wmul (ARG)
 ---------------------------------------------------------------------------------
 (3) ___fltol                                             10     6      4     457
                                              4 BANK1     10     6      4
                            ___fladd (ARG)
                             ___flge (ARG)
                            ___flmul (ARG)
                            ___flneg (ARG)
                            ___flsub (ARG)
                             ___wmul (ARG)
                           ___xxtofl (ARG)
 ---------------------------------------------------------------------------------
 (2) ___cosdf                                             28    24      4   12141
                                             52 BANK0     28    24      4
                            ___fladd
                            ___flmul
 ---------------------------------------------------------------------------------
 (3) ___flmul                                             26    18      8    5761
                                              6 BANK0     26    18      8
                          __Umul8_16
                             ___wmul (ARG)
                           ___xxtofl (ARG)
 ---------------------------------------------------------------------------------
 (4) __Umul8_16                                            9     7      2     799
                                              0 COMMON     9     7      2
 ---------------------------------------------------------------------------------
 (1) _roundf                                              31    27      4   13912
                                             18 BANK3     31    27      4
                            ___fladd
                            ___fldiv (ARG)
                             ___flge
                            ___flmul (ARG)
                            ___flneg
                            ___flsub
                            ___fltol (ARG)
                             ___wmul (ARG)
                           ___xxtofl (ARG)
                               _sinf (ARG)
 ---------------------------------------------------------------------------------
 (3) ___flsub                                              8     0      8    6437
                                             52 BANK0      8     0      8
                            ___fladd
                            ___flmul (ARG)
 ---------------------------------------------------------------------------------
 (3) ___fladd                                             20    12      8    5632
                                             32 BANK0     20    12      8
                            ___flmul (ARG)
                             ___wmul (ARG)
                           ___xxtofl (ARG)
 ---------------------------------------------------------------------------------
 (3) ___flneg                                              4     0      4     805
                                              0 BANK1      4     0      4
                            ___cosdf (ARG)
                            ___fladd (ARG)
 ---------------------------------------------------------------------------------
 (2) ___flge                                              12     4      8     486
                                              0 COMMON    12     4      8
 ---------------------------------------------------------------------------------
 (1) ___wmul                                               6     2      4     244
                                              0 COMMON     6     2      4
 ---------------------------------------------------------------------------------
 (1) ___fldiv                                             26    18      8    1273
                                             72 BANK1      8     0      8
                                              0 BANK3     18    18      0
                            ___fladd (ARG)
                            ___flmul (ARG)
                            ___fltol (ARG)
                             ___wmul (ARG)
                           ___xxtofl (ARG)
                               _sinf (ARG)
 ---------------------------------------------------------------------------------
 Estimated maximum stack depth 4
 ---------------------------------------------------------------------------------

 Call Graph Graphs:

 _main (ROOT)
   ___fladd
     ___flmul (ARG)
       __Umul8_16
       ___wmul (ARG)
       ___xxtofl (ARG)
         ___wmul (ARG)
     ___wmul (ARG)
     ___xxtofl (ARG)
   ___fldiv
     ___fladd (ARG)
     ___flmul (ARG)
     ___fltol (ARG)
       ___fladd (ARG)
       ___flge (ARG)
       ___flmul (ARG)
       ___flneg (ARG)
         ___cosdf (ARG)
           ___fladd
           ___flmul
         ___fladd (ARG)
       ___flsub (ARG)
         ___fladd
         ___flmul (ARG)
       ___wmul (ARG)
       ___xxtofl (ARG)
     ___wmul (ARG)
     ___xxtofl (ARG)
     _sinf (ARG)
       ___cosdf
       ___fladd
       ___flneg
       ___rem_pio2f
         ___fladd
         ___flmul
         ___flneg
         ___flsub
         ___fltol
         ___xxtofl
         _fabsf
       ___sindf
         ___fladd
         ___flmul
       ___wmul (ARG)
   ___flmul
   ___fltol
   ___wmul
   ___xxtofl
   _roundf
     ___fladd
     ___fldiv (ARG)
     ___flge (ARG)
     ___flmul (ARG)
     ___flneg (ARG)
     ___flsub (ARG)
     ___fltol (ARG)
     ___wmul (ARG)
     ___xxtofl (ARG)
     _sinf (ARG)
   _sinf

 Address spaces:
Name               Size   Autos  Total    Cost      Usage
BITCOMMON            E      0       0       0        0.0%
EEDATA             100      0       0       0        0.0%
NULL                 0      0       0       0        0.0%
CODE                 0      0       0       0        0.0%
COMMON               E      E       E       1      100.0%
BITSFR0              0      0       0       1        0.0%
SFR0                 0      0       0       1        0.0%
BITSFR1              0      0       0       2        0.0%
SFR1                 0      0       0       2        0.0%
STACK                0      0       0       2        0.0%
ABS                  0      0     130       3        0.0%
BITBANK0            50      0       0       4        0.0%
BITSFR3              0      0       0       4        0.0%
SFR3                 0      0       0       4        0.0%
BANK0               50     50      50       5      100.0%
BITSFR2              0      0       0       5        0.0%
SFR2                 0      0       0       5        0.0%
BITBANK1            50      0       0       6        0.0%
BANK1               50     50      50       7      100.0%
BITBANK3            60      0       0       8        0.0%
BANK3               60     34      40       9       66.7%
BITBANK2            60      0       0      10        0.0%
BANK2               60     42      42      11       68.8%
DATA                 0      0     130      12        0.0%


Microchip Technology PIC Macro Assembler V2.46 build 20240104201356 
Symbol Table                                                                                   Tue May 21 14:08:48 2024

           ___fldiv@aexp 01A1             ___fldiv@bexp 01A0                        pc 0002  
           ___fldiv@sign 0199                       _C0 1832                       _C1 182E  
                     _C2 182A                       _C3 1826                       _S1 1812  
                     _S2 180E                       _S3 180A                       _S4 1806  
                     fsr 0004      ___wmul@multiplicand 0072      __Umul8_16@word_mpld 0076  
                    l110 1D33                      l108 1D1B                      l302 1DAB  
                    l312 1DAB                      l413 1188                      l309 1D96  
                    l430 1251                      l422 1301                      l415 1161  
                    l511 0C27                      l440 1297                      l409 1105  
                    l505 0CB7                      l434 1275                      l452 1301  
                    l524 0828                      l613 06AC                      l605 04CE  
                    l294 10A9                      l286 1024                      l526 083A  
                    l455 1D0E                      l631 0972                      l551 1E65  
                    l481 1745                      l465 15F5                      l289 1090  
                    l298 0010                      l562 1E2F                      l467 17FF  
                    l563 1E3B                      l572 0293                      l660 157C  
                    l549 1DD0                      l487 17E3                      l648 0FFF  
                    l665 1CEA                      l597 07ED                      fsr0 0004  
                    indf 0000             ___flmul@aexp 0038             ___flmul@bexp 0039  
           ___flmul@sign 0033             ___flmul@temp 003E             ___flmul@prod 003A  
           ___fltol@exp1 00AD                     l2001 10A8                     l2021 0D75  
                   l2013 0CB8                     l2005 1302                     l2101 0518  
                   l2031 0E7C                     l2023 0D8D                     l2015 0CE7  
                   l2111 05A8                     l2103 052E                     l2201 1D29  
                   l2009 083B                     l2041 0EA6                     l2025 0DF3  
                   l2017 0CFB                     l2105 0535                     l2211 158C  
                   l2203 1D2F                     l2051 0FF9                     l2043 0F07  
                   l2035 0E88                     l2027 0E53                     l2019 0D14  
                   l2131 0720                     l2115 0626                     l2123 06E0  
                   l2301 170E                     l2221 15AB                     l2213 1592  
                   l2045 0F1F                     l2029 0E5A                     l2141 079F  
                   l2133 0737                     l2125 06F6                     l2117 062D  
                   l2311 172C                     l2303 1719                     l2231 15C8  
                   l2223 15AD                     l2215 1595                     l2207 157D  
                   l2151 0023                     l2047 0F85                     l2039 0E8D  
                   l2119 066D                     l2071 02D8                     l2063 0294  
                   l2321 1763                     l2313 1740                     l2305 171F  
                   l2241 15E7                     l2233 15CE                     l2217 159C  
                   l2225 15AF                     l2209 1584                     l1601 112F  
                   l2161 0056                     l2153 003A                     l2049 0FEB  
                   l2137 076B                     l2129 0709                     l2081 0341  
                   l2065 02AD                     l2331 17C3                     l2323 1767  
                   l2307 1725                     l2251 1611                     l2243 15E9  
                   l2235 15D1                     l2227 15B9                     l2219 15A1  
                   l1611 116C                     l1603 1131                     l1531 10B7  
                   l2171 016A                     l2163 0089                     l2155 0047  
                   l2147 07E2                     l2091 0432                     l2067 02C1  
                   l2075 030E                     l2341 17EB                     l2333 17D2  
                   l2325 179C                     l2317 174C                     l2309 1728  
                   l2261 162C                     l2237 15D8                     l2245 15EB  
                   l2229 15C0                     l1701 12D1                     l1613 116E  
                   l1621 1180                     l1605 1132                     l1541 10CB  
                   l1533 10B8                     l1525 10AA                     l2181 01BB  
                   l2173 0172                     l2165 0096                     l2157 0048  
                   l2149 0011                     l2093 0439                     l2077 0324  
                   l2069 02D7                     l2343 17EF                     l2335 17D6  
                   l2319 1753                     l2327 17A4                     l2271 166C  
                   l2263 163E                     l2247 15FD                     l2255 161A  
                   l2239 15DD                     l1711 12EC                     l1703 12D5  
                   l1631 11B1                     l1623 118C                     l1615 1172  
                   l1607 1149                     l1551 10DF                     l1535 10BD  
                   l1543 10CD                     l1527 10AF                     l2183 0208  
                   l2175 018B                     l2159 0051                     l2095 0484  
                   l2087 03BF                     l2079 033A                     l2345 17F5  
                   l2337 17E0                     l2329 17B3                     l2273 1671  
                   l2281 1699                     l2265 1656                     l2257 1621  
                   l2249 1609                     l2193 1D0F                     l1721 12FC  
                   l1713 12ED                     l1705 12DA                     l1641 11C6  
                   l1633 11B5                     l1625 1191                     l1617 1173  
                   l1609 1165                     l1561 10F2                     l1553 10E3  
                   l1545 10D5                     l1537 10C2                     l1529 10B3  
                   l2185 0253                     l2177 0196                     l2169 00A1  
                   l1801 0986                     l2361 1EBD                     l2353 1E66  
                   l2339 17E7                     l2291 16EE                     l2283 16BB  
                   l2275 1687                     l2267 1660                     l2195 1D11  
                   l1723 1300                     l1715 12F1                     l1707 12DF  
                   l1651 1229                     l1643 11C7                     l1635 11B9  
                   l1619 117C                     l1571 110F                     l1563 10FA  
                   l1555 10E7                     l1547 10D8                     l1539 10CA  
                   l2187 0258                     l2179 01B1                     l1731 0822  
                   l1811 09A2                     l1803 098B                     l2099 0502  
                   l2363 1EF0                     l2293 16F6                     l2285 16BC  
                   l2277 168B                     l2269 166A                     l2197 1D15  
                   l1741 000E                     l1717 12F3                     l1709 12E7  
                   l1661 1259                     l1653 122D                     l1645 11D0  
                   l1637 11C0                     l1629 119A                     l1581 111B  
                   l1573 1113                     l1565 10FB                     l1557 10E8  
                   l1549 10DE                     l2189 028B                     l1733 0831  
                   l1725 0815                     l1901 0C31                     l1821 09B5  
                   l1813 09A6                     l1805 0993                     l2381 1FEF  
                   l2365 1FB5                     l2295 16F8                     l2287 16E4  
                   l2279 168E                     l2199 1D22                     l1743 0010  
                   l1719 12F7                     l1671 1274                     l1663 125E  
                   l1655 122F                     l1639 11C2                     l1647 11D5  
                   l1591 1125                     l1583 111D                     l1575 1115  
                   l1559 10ED                     l1567 10FD                     l1735 0836  
                   l1727 0817                     l1911 0C6F                     l1903 0C3F  
                   l1831 09D1                     l1823 09BD                     l1815 09AA  
                   l1807 0995                     l2375 1FCE                     l2367 1FBD  
                   l2359 1E70                     l2297 1707                     l2289 16E8  
                   l1673 1279                     l1681 1285                     l1657 1234  
                   l1649 11EB                     l1593 1127                     l1585 111F  
                   l1577 1117                     l1569 110B                     l1729 081E  
                   l1921 0CA1                     l1913 0C7A                     l1905 0C43  
                   l1841 0A10                     l1825 09BF                     l1817 09AB  
                   l1809 099D                     l1761 1D66                     l1753 1D48  
                   l2377 1FD8                     l2369 1FCA                     l2299 170B  
                   l1739 0004                     l1675 127C                     l1667 1267  
                   l1659 1243                     l1683 1289                     l1595 1129  
                   l1587 1121                     l1579 1119                     l1923 0CA5  
                   l1915 0C89                     l1907 0C5C                     l1851 0A97  
                   l1843 0A2C                     l1835 09DA                     l1827 09C7  
                   l1819 09B0                     l1771 1D7B                     l1763 1D6A  
                   l1755 1D5B                     l1747 1D34                     l2379 1FE7  
                   l1693 129C                     l1685 128A                     l1677 127E  
                   l1669 1270                     l1597 112B                     l1589 1123  
                   l1925 0CA6                     l1917 0C93                     l1909 0C62  
                   l1861 0B04                     l1853 0AA5                     l1845 0A56  
                   l1837 09E8                     l1829 09CC                     l1781 1D9B  
                   l1773 1D84                     l1757 1D5C                     l1749 1D3F  
                   l1941 1DD8                     l1933 1DAF                     l1695 12A1  
                   l1687 128E                     l1679 1283                     l1599 112D  
                   l1919 0C95                     l1927 0CAB                     l1871 0BAB  
                   l1863 0B21                     l1855 0AC2                     l1847 0A72  
                   l1839 09F5                     l1791 0973                     l1783 1DA0  
                   l1759 1D64                     l1951 1DF1                     l1935 1DB4  
                   l1697 12AF                     l1689 1294                     l1785 1CEB  
                   l1929 0CAF                     l1881 0BF7                     l1873 0BD3  
                   l1865 0B4C                     l1857 0AD0                     l1849 0A8E  
                   l1793 0978                     l1769 1D72                     l1961 1E1A  
                   l1953 1DF8                     l1945 1DE1                     l1937 1DB8  
                   l1699 12B3                     l1787 1CEF                     l1891 0C0C  
                   l1883 0BF8                     l1875 0BDC                     l1867 0B5A  
                   l1859 0AED                     l1795 097C                     l1779 1D8B  
                   l1971 1E53                     l1963 1E25                     l1955 1DFC  
                   l1947 1DE4                     l1939 1DC8                     l1893 0C10  
                   l1885 0C01                     l1877 0BEA                     l1869 0B85  
                   l1797 0980                     l1973 1E58                     l1965 1E29  
                   l1957 1E0A                     l1949 1DE8                     l1981 1CC8  
                   l1991 1040                     l1895 0C24                     l1879 0BF3  
                   l1887 0C07                     l1799 0981                     l1975 1E5C  
                   l1967 1E33                     l1959 1E13                     l1993 1044  
                   l1985 1008                     l1889 0C0B                     l1977 1E5D  
                   l1969 1E3D                     l1995 1068                     l1987 101C  
                   l1899 0C2C                     l1997 106C                     l1989 1038  
                   l1999 10A6                     u2000 11B5                     u2001 11B4  
                   u2010 11B9                     u2011 11B8                     u2020 11C6  
                   u2021 11C5                     u2110 1274                     u2111 1273  
                   u2200 12C2                     u2120 1279                     u2040 11EB  
                   u3000 0CDE                     u2121 1278                     u2105 1269  
                   u2041 11EA                     u2210 12D1                     u2130 1283  
                   u3010 0CFB                     u2211 12D0                     u2131 1282  
                   u2051 1202                     u2043 11E7                     u2035 11C9  
                   u3011 0CFA                     u2300 000E                     u2220 12DA  
                   u2140 1289                     u2060 1216                     u2052 1203  
                   u3020 0E5A                     u3100 0341                     u2301 000D  
                   u2221 12D9                     u2205 12BD                     u2141 1288  
                   u2061 1217                     u2053 1208                     u3021 0E59  
                   u3013 0CF7                     u3101 0340                     u2230 12DF  
                   u2150 128E                     u2070 1234                     u2062 121C  
                   u2054 1209                     u2310 1D3F                     u3030 0FFE  
                   u3110 0439                     u2231 12DE                     u2151 128D  
                   u2071 1233                     u2063 121D                     u2055 120E  
                   u2311 1D3E                     u3031 0FFD                     u3111 0438  
                   u2240 12EC                     u2160 1294                     u2080 1259  
                   u2056 120F                     u3200 0050                     u2400 1DA0  
                   u2320 1D56                     u3120 0518                     u3040 02A3  
                   u2241 12EB                     u2161 1293                     u2081 1258  
                   u2401 1D9F                     u3121 0517                     u3041 02A1  
                   u2250 12F1                     u2170 129B                     u2090 125E  
                   u3210 0056                     u2410 0980                     u2330 1D6A  
                   u3130 052E                     u3050 02A4                     u2251 12F0  
                   u2171 129A                     u2091 125D                     u3211 0055  
                   u2411 097F                     u2331 1D69                     u3131 052D  
                   u3123 0514                     u3300 1592                     u2260 1300  
                   u2180 12A1                     u3220 0096                     u2420 0986  
                   u2340 1D71                     u3140 0535                     u3060 02C1  
                   u3301 1591                     u2261 12FF                     u2181 12A0  
                   u3221 0095                     u2501 0A3A                     u2421 0985  
                   u2341 1D70                     u2325 1D51                     u3141 0534  
                   u3133 052A                     u3061 02C0                     u3310 159C  
                   u2190 12B3                     u3230 018B                     u2270 0822  
                   u2502 0A41                     u2430 098B                     u3150 062D  
                   u3070 02D7                     u3311 159B                     u2191 12B2  
                   u3231 018A                     u2271 0821                     u2511 0A64  
                   u2503 0A48                     u2431 098A                     u3151 062C  
                   u3071 02D6                     u3063 02BD                     u3320 15A1  
                   u3240 01B1                     u2600 0B91                     u2512 0A6B  
                   u2440 09AA                     u2360 1D83                     u3160 06F6  
                   u3080 0324                     u3321 15A0                     u3241 01B0  
                   u3225 0092                     u2521 0A80                     u2513 0A72  
                   u2441 09A9                     u2361 1D82                     u3161 06F5  
                   u3081 0323                     u3073 02D3                     u3410 168B  
                   u3330 15CE                     u1810 10B7                     u3250 0258  
                   u3170 0031                     u2290 0836                     u2522 0A87  
                   u2450 09B0                     u2370 1D8A                     u3090 033A  
                   u3411 168A                     u3331 15CD                     u1811 10B6  
                   u3251 0257                     u2291 0835                     u2611 0B9D  
                   u2523 0A8E                     u2451 09AF                     u2371 1D89  
                   u2355 1D73                     u3163 06F2                     u3091 0339  
                   u3083 0320                     u3500 1725                     u3340 15D8  
                   u3260 1D15                     u1900 1149                     u1820 10BD  
                   u3180 0047                     u2700 0C24                     u2620 0BB9  
                   u2612 0BA4                     u2460 09B5                     u3501 1724  
                   u3405 167C                     u3341 15D7                     u3261 1D14  
                   u1901 1148                     u1821 10BC                     u3181 0046  
                   u2285 0829                     u2701 0C23                     u2613 0BAB  
                   u2605 0B8C                     u2541 0AB4                     u2461 09B4  
                   u3093 0336                     u3510 172C                     u3430 16BB  
                   u3350 15DD                     u1910 1154                     u1830 10C2  
                   u3190 004F                     u2710 0C2B                     u2542 0ABB  
                   u2470 09CC                     u2390 1D9B                     u3511 172B  
                   u3431 16BA                     u3351 15DC                     u1911 1152  
                   u1831 10C1                     u3191 004D                     u3175 002C  
                   u2711 0C2A                     u2631 0BC5                     u2551 0ADF  
                   u2543 0AC2                     u2535 0A90                     u2471 09CB  
                   u2391 1D9A                     u3520 1740                     u3440 16E0  
                   u3360 15FD                     u1920 1155                     u1840 10DE  
                   u2720 0C31                     u2632 0BCC                     u2552 0AE6  
                   u2480 09D1                     u2800 1DD8                     u3600 1FCA  
                   u3521 173F                     u3425 1692                     u3361 15FC  
                   u1905 1145                     u1841 10DD                     u3185 0043  
                   u2721 0C30                     u2633 0BD3                     u2625 0BB4  
                   u2553 0AED                     u2481 09D0                     u2385 1D8D  
                   u2801 1DD7                     u3601 1FC9                     u3530 174B  
                   u3450 16EE                     u3370 1621                     u3290 1D2F  
                   u1930 1165                     u1850 10E7                     u2730 0C43  
                   u3610 1FFC                     u3531 174A                     u3451 16ED  
                   u3435 16B7                     u3371 1620                     u3291 1D2E  
                   u3275 1D1C                     u1931 1164                     u1851 10E6  
                   u2731 0C42                     u2571 0B13                     u2491 0A1E  
                   u3611 1FFB                     u3540 1753                     u3460 16F6  
                   u3380 1671                     u1940 1172                     u1860 10ED  
                   u2740 0C52                     u2660 0BF7                     u2572 0B1A  
                   u2492 0A25                     u2900 1E58                     u2820 1DF7  
                   u3541 1752                     u3461 16F5                     u3445 16C9  
                   u3381 1670                     u3285 1D23                     u1941 1171  
                   u1861 10EC                     u2661 0BF6                     u2645 0BD5  
                   u2581 0B3E                     u2573 0B21                     u2565 0AEF  
                   u2493 0A2C                     u2901 1E57                     u2821 1DF6  
                   u3605 1FC6                     u3550 1767                     u3446 16CC  
                   u1870 10F2                     u2750 0C6F                     u2582 0B45  
                   u2910 1E5C                     u3551 1766                     u3447 16D3  
                   u1871 10F1                     u2751 0C6E                     u2655 0BEC  
                   u2591 0B69                     u2583 0B4C                     u2911 1E5B  
                   u2815 1DE9                     u3615 1FF8                     u3560 1784  
                   u3480 170B                     u3448 16D6                     u2920 101C  
                   u1960 1188                     u1880 110B                     u2760 0C89  
                   u2680 0C0B                     u2592 0B70                     u2840 1E19  
                   u3481 170A                     u3449 16DD                     u2921 101B  
                   u1961 1187                     u1881 110A                     u2761 0C88  
                   u2745 0C4D                     u2681 0C0A                     u2593 0B77  
                   u2841 1E18                     u3570 17B3                     u2930 1038  
                   u1970 118C                     u1890 110F                     u2770 0CA5  
                   u2690 0C10                     u3571 17B2                     u3475 16FC  
                   u3395 1673                     u2931 1037                     u1971 118B  
                   u1955 1175                     u1891 110E                     u2771 0CA4  
                   u2755 0C6B                     u2691 0C0F                     u2675 0BFA  
                   u2835 1E0B                     u3627 1FE0                     u3580 17D2  
                   u2940 1044                     u1980 1191                     u2860 1E29  
                   u2780 1DB4                     u3581 17D1                     u3565 177F  
                   u2941 1043                     u1981 1190                     u2765 0C85  
                   u2861 1E28                     u2781 1DB3                     u3590 17EB  
                   u2870 1E2F                     u2790 1DB8                     u3591 17EA  
                   u3575 17AF                     u3495 1712                     u2951 1053  
                   u1991 11A3                     u2871 1E2E                     u2855 1E1E  
                   u2791 1DB7                     u2960 106C                     u2952 1054  
                   u1992 11AA                     u2880 1E33                     u3585 17CE  
                   u2961 106B                     u2953 1059                     u1993 11B1  
                   u2881 1E32                     u2954 105A                     u2890 1E48  
                   u2971 107B                     u2955 105F                     u2980 10A6  
                   u2972 107C                     u2956 1060                     u2981 10A5  
                   u2973 1081                     u2974 1082                     u2990 0CDD  
                   u2975 1087                     u2895 1E43                     u2991 0CDB  
                   u2976 1088                     u2985 10A2                     _half 1822  
                   _main 1E66                     _sinf 0294                     btemp 007E  
                   start 0000          ___fldiv@new_exp 019A            ___fltol@sign1 00AC  
        __end_of___fladd 1302                    ?_main 0070          __end_of___fldiv 1800  
        __end_of___cosdf 0973          __end_of___flneg 0011                    ?_sinf 00CE  
        __end_of___flmul 0CB8          __end_of___flsub 1D0F          __end_of___fltol 1DAC  
        __end_of___sindf 157D                    _PORTB 0006                    _TRISB 0086  
        __end_of_pio2_1t 181A                    _fabsf 1CC8          __end_of_invpio2 1822  
                  _toint 1846                    main@i 0150                    pclath 000A  
                  sinf@n 00DA                    sinf@x 00CE                    sinf@y 00E0  
                  status 0003                    wtemp0 007E          __initialization 07EE  
           __end_of_half 1826             __end_of_main 2000             __end_of_sinf 07EE  
                 ??_main 01C1                   ??_sinf 007E                   ?_fabsf 0070  
          ___rem_pio2f@n 00CA            ___rem_pio2f@t 00C6            ___rem_pio2f@x 00AE  
          ___rem_pio2f@y 00B2         __end_of___xxtofl 1E66                   _s1pio2 1842  
                 _s2pio2 183E                   _s3pio2 183A                   _s4pio2 1836  
                 ___flge 1008                ??___fladd 0048                   ___wmul 1D0F  
              ??___fldiv 0190                ??___cosdf 007E                ??___flneg 007E  
              ??___flmul 002E                ??___flsub 007E                ??___fltol 00A8  
              ??___sindf 007E                   _pio2_1 181A                   fabsf@u 0074  
                 fabsf@x 0070                   _roundf 0011                   sinf@ux 00E4  
             ___flge@ff1 0070               ___flge@ff2 0074             ___xxtofl@arg 0022  
           ___xxtofl@exp 0021             ___xxtofl@val 0076  __end_of__initialization 07FC  
             ___flneg@f1 00A0               ___fltol@f1 00A4           __pcstackCOMMON 0070  
          __end_of_fabsf 1CEB            __end_of_toint 184A               __end_of_C0 1836  
             __end_of_C1 1832               __end_of_C2 182E               __end_of_C3 182A  
             __end_of_S1 1816               __end_of_S2 1812               __end_of_S3 180E  
             __end_of_S4 180A                  ??_fabsf 0074               __pbssBANK3 01C4  
      __end_of__Umul8_16 083B               __pmaintext 1E66                  ?___flge 0070  
                ?___wmul 0070            ??___rem_pio2f 00B3                  ?_roundf 01A2  
              ?___xxtofl 0076           ___rem_pio2f@fn 00C2           ___rem_pio2f@ty 00B5  
         ___rem_pio2f@ux 00BE               __stringtab 1800                  ___fladd 10AA  
                ___fldiv 157D                  ___cosdf 083B                  ___flneg 0004  
                ___flmul 0973                  ___flsub 1CEB                  ___fltol 1D34  
                ___sindf 1302                  __ptext1 0294                  __ptext2 1302  
                __ptext3 0CB8                  __ptext4 1CC8                  __ptext5 1DAC  
                __ptext6 1D34                  __ptext7 083B                  __ptext8 0973  
                __ptext9 0814                  _pio2_1t 1816               ??___xxtofl 007A  
    __end_of___rem_pio2f 1000                  _invpio2 181E     end_of_initialization 07FC  
       ___rem_pio2f@F526 01C8         ___rem_pio2f@sign 00BD                  roundf@e 01B2  
                roundf@u 01B4                  roundf@x 01A2                  roundf@y 01BD  
                roundf@z 01AE              ___fladd@grs 0053              ___cosdf$760 0060  
            ___cosdf$761 0064              ___cosdf$759 005C            ___xxtofl@sign 0020  
             _roundf$756 01B8               _roundf$757 01AA              ___fldiv@grs 019C  
            ___fldiv@rem 0195              ___flmul@grs 0034           __end_of_s1pio2 1846  
         __end_of_s2pio2 1842           __end_of_s3pio2 183E           __end_of_s4pio2 183A  
         __end_of___flge 10AA              ___rem_pio2f 0CB8              ___sindf$763 00A8  
         __end_of___wmul 1D34              ___sindf$764 00AC              ___sindf$765 00B0  
         __end_of_pio2_1 181E           __end_of_roundf 0294      start_initialization 07EE  
               ??___flge 0078                 ??___wmul 0074                __Umul8_16 0814  
               ??_roundf 01A6                ___fladd@a 0044                ___fladd@b 0040  
              ___fldiv@a 00E8                ___fldiv@b 00EC                ___cosdf@r 0058  
              ___cosdf@w 0068                ___cosdf@x 0054                ___cosdf@z 006C  
              ___flmul@a 002A                ___flmul@b 0026                ___flsub@a 0054  
              ___flsub@b 0058                ___latbits 0002            __pcstackBANK0 0020  
          __pcstackBANK1 00A0            __pcstackBANK2 0110            __pcstackBANK3 0190  
              ___sindf@r 00A0                ___sindf@s 00B4                ___sindf@w 00A4  
              ___sindf@x 0054                ___sindf@z 00B8                 ?___fladd 0040  
               ?___fldiv 00E8                 ?___cosdf 0054                 ?___flneg 00A0  
               ?___flmul 0026                 ?___flsub 0054                 ?___fltol 00A4  
             ?__Umul8_16 0070                 ?___sindf 0054                __pstrings 1800  
              fabsf@F465 01C4           ___wmul@product 0074          ___rem_pio2f$762 00B9  
            __stringbase 1805        ___wmul@multiplier 0070               roundf@F522 01CC  
             roundf@sign 01BC              ??__Umul8_16 0072             ?___rem_pio2f 00AE  
     __end_of__stringtab 1806                 ___xxtofl 1DAC                 _main$753 0142  
               _main$754 0146                 _main$755 014A                 __ptext10 0011  
               __ptext11 1CEB                 __ptext12 10AA                 __ptext13 0004  
               __ptext14 1008                 __ptext15 1D0F                 __ptext16 157D  
               _sinf$536 00D2                 _sinf$537 00D6                 _sinf$758 00DC  
               main@i_47 014E                 main@sine 0110                 sinf@sign 00DB  
              stringcode 1800   __Umul8_16@multiplicand 0070                 stringdir 1800  
               stringtab 1800            ___fladd@signs 0050             ___fladd@aexp 0051  
           ___fladd@bexp 0052     __Umul8_16@multiplier 0078        __Umul8_16@product 0074  
